ARM GAS  /tmp/ccn82dRc.s 			page 1


   1              		.cpu cortex-m4
   2              		.eabi_attribute 27, 1
   3              		.eabi_attribute 28, 1
   4              		.eabi_attribute 20, 1
   5              		.eabi_attribute 21, 1
   6              		.eabi_attribute 23, 3
   7              		.eabi_attribute 24, 1
   8              		.eabi_attribute 25, 1
   9              		.eabi_attribute 26, 1
  10              		.eabi_attribute 30, 2
  11              		.eabi_attribute 34, 1
  12              		.eabi_attribute 18, 4
  13              		.file	"gpio.c"
  14              		.text
  15              	.Ltext0:
  16              		.cfi_sections	.debug_frame
  17              		.section	.text.MX_GPIO_Init,"ax",%progbits
  18              		.align	1
  19              		.p2align 2,,3
  20              		.global	MX_GPIO_Init
  21              		.arch armv7e-m
  22              		.syntax unified
  23              		.thumb
  24              		.thumb_func
  25              		.fpu fpv4-sp-d16
  27              	MX_GPIO_Init:
  28              	.LFB130:
  29              		.file 1 "Src/gpio.c"
   1:Src/gpio.c    **** /**
   2:Src/gpio.c    ****   ******************************************************************************
   3:Src/gpio.c    ****   * @file    gpio.c
   4:Src/gpio.c    ****   * @brief   This file provides code for the configuration
   5:Src/gpio.c    ****   *          of all used GPIO pins.
   6:Src/gpio.c    ****   ******************************************************************************
   7:Src/gpio.c    ****   * @attention
   8:Src/gpio.c    ****   *
   9:Src/gpio.c    ****   * <h2><center>&copy; Copyright (c) 2021 STMicroelectronics.
  10:Src/gpio.c    ****   * All rights reserved.</center></h2>
  11:Src/gpio.c    ****   *
  12:Src/gpio.c    ****   * This software component is licensed by ST under Ultimate Liberty license
  13:Src/gpio.c    ****   * SLA0044, the "License"; You may not use this file except in compliance with
  14:Src/gpio.c    ****   * the License. You may obtain a copy of the License at:
  15:Src/gpio.c    ****   *                             www.st.com/SLA0044
  16:Src/gpio.c    ****   *
  17:Src/gpio.c    ****   ******************************************************************************
  18:Src/gpio.c    ****   */
  19:Src/gpio.c    **** 
  20:Src/gpio.c    **** /* Includes ------------------------------------------------------------------*/
  21:Src/gpio.c    **** #include "gpio.h"
  22:Src/gpio.c    **** 
  23:Src/gpio.c    **** /* USER CODE BEGIN 0 */
  24:Src/gpio.c    **** 
  25:Src/gpio.c    **** /* USER CODE END 0 */
  26:Src/gpio.c    **** 
  27:Src/gpio.c    **** /*----------------------------------------------------------------------------*/
  28:Src/gpio.c    **** /* Configure GPIO                                                             */
  29:Src/gpio.c    **** /*----------------------------------------------------------------------------*/
ARM GAS  /tmp/ccn82dRc.s 			page 2


  30:Src/gpio.c    **** /* USER CODE BEGIN 1 */
  31:Src/gpio.c    **** 
  32:Src/gpio.c    **** /* USER CODE END 1 */
  33:Src/gpio.c    **** 
  34:Src/gpio.c    **** /** Configure pins as
  35:Src/gpio.c    ****         * Analog
  36:Src/gpio.c    ****         * Input
  37:Src/gpio.c    ****         * Output
  38:Src/gpio.c    ****         * EVENT_OUT
  39:Src/gpio.c    ****         * EXTI
  40:Src/gpio.c    **** */
  41:Src/gpio.c    **** void MX_GPIO_Init(void)
  42:Src/gpio.c    **** {
  30              		.loc 1 42 1 view -0
  31              		.cfi_startproc
  32              		@ args = 0, pretend = 0, frame = 40
  33              		@ frame_needed = 0, uses_anonymous_args = 0
  43:Src/gpio.c    **** 
  44:Src/gpio.c    ****   GPIO_InitTypeDef GPIO_InitStruct = {0};
  34              		.loc 1 44 3 view .LVU1
  42:Src/gpio.c    **** 
  35              		.loc 1 42 1 is_stmt 0 view .LVU2
  36 0000 2DE9F041 		push	{r4, r5, r6, r7, r8, lr}
  37              	.LCFI0:
  38              		.cfi_def_cfa_offset 24
  39              		.cfi_offset 4, -24
  40              		.cfi_offset 5, -20
  41              		.cfi_offset 6, -16
  42              		.cfi_offset 7, -12
  43              		.cfi_offset 8, -8
  44              		.cfi_offset 14, -4
  45              		.loc 1 44 20 view .LVU3
  46 0004 0024     		movs	r4, #0
  42:Src/gpio.c    **** 
  47              		.loc 1 42 1 view .LVU4
  48 0006 8AB0     		sub	sp, sp, #40
  49              	.LCFI1:
  50              		.cfi_def_cfa_offset 64
  51              		.loc 1 44 20 view .LVU5
  52 0008 CDE90544 		strd	r4, r4, [sp, #20]
  53 000c CDE90744 		strd	r4, r4, [sp, #28]
  54              	.LBB2:
  45:Src/gpio.c    **** 
  46:Src/gpio.c    ****   /* GPIO Ports Clock Enable */
  47:Src/gpio.c    ****   __HAL_RCC_GPIOC_CLK_ENABLE();
  55              		.loc 1 47 3 view .LVU6
  56 0010 414B     		ldr	r3, .L4
  57 0012 0094     		str	r4, [sp]
  58              	.LBE2:
  44:Src/gpio.c    **** 
  59              		.loc 1 44 20 view .LVU7
  60 0014 0994     		str	r4, [sp, #36]
  61              		.loc 1 47 3 is_stmt 1 view .LVU8
  62              	.LBB3:
  63              		.loc 1 47 3 view .LVU9
  64              		.loc 1 47 3 view .LVU10
  65 0016 1A6B     		ldr	r2, [r3, #48]
ARM GAS  /tmp/ccn82dRc.s 			page 3


  66              	.LBE3:
  48:Src/gpio.c    ****   __HAL_RCC_GPIOH_CLK_ENABLE();
  49:Src/gpio.c    ****   __HAL_RCC_GPIOA_CLK_ENABLE();
  50:Src/gpio.c    ****   __HAL_RCC_GPIOB_CLK_ENABLE();
  51:Src/gpio.c    ****   __HAL_RCC_GPIOD_CLK_ENABLE();
  52:Src/gpio.c    **** 
  53:Src/gpio.c    ****   /*Configure GPIO pin Output Level */
  54:Src/gpio.c    ****   HAL_GPIO_WritePin(GPIOB, GPIO_PIN_1|GPIO_PIN_2, GPIO_PIN_RESET);
  67              		.loc 1 54 3 is_stmt 0 view .LVU11
  68 0018 404D     		ldr	r5, .L4+4
  55:Src/gpio.c    **** 
  56:Src/gpio.c    ****   /*Configure GPIO pin Output Level */
  57:Src/gpio.c    ****   HAL_GPIO_WritePin(GPIOC, GPIO_PIN_7|GPIO_PIN_10|GPIO_PIN_12, GPIO_PIN_RESET);
  69              		.loc 1 57 3 view .LVU12
  70 001a 414E     		ldr	r6, .L4+8
  58:Src/gpio.c    **** 
  59:Src/gpio.c    ****   /*Configure GPIO pin Output Level */
  60:Src/gpio.c    ****   HAL_GPIO_WritePin(GPIOA, GPIO_PIN_15, GPIO_PIN_RESET);
  71              		.loc 1 60 3 view .LVU13
  72 001c DFF80881 		ldr	r8, .L4+16
  73              	.LBB4:
  47:Src/gpio.c    ****   __HAL_RCC_GPIOH_CLK_ENABLE();
  74              		.loc 1 47 3 view .LVU14
  75 0020 42F00402 		orr	r2, r2, #4
  76 0024 1A63     		str	r2, [r3, #48]
  47:Src/gpio.c    ****   __HAL_RCC_GPIOH_CLK_ENABLE();
  77              		.loc 1 47 3 is_stmt 1 view .LVU15
  78 0026 1A6B     		ldr	r2, [r3, #48]
  79 0028 02F00402 		and	r2, r2, #4
  80 002c 0092     		str	r2, [sp]
  47:Src/gpio.c    ****   __HAL_RCC_GPIOH_CLK_ENABLE();
  81              		.loc 1 47 3 view .LVU16
  82 002e 009A     		ldr	r2, [sp]
  83              	.LBE4:
  47:Src/gpio.c    ****   __HAL_RCC_GPIOH_CLK_ENABLE();
  84              		.loc 1 47 3 view .LVU17
  48:Src/gpio.c    ****   __HAL_RCC_GPIOA_CLK_ENABLE();
  85              		.loc 1 48 3 view .LVU18
  86              	.LBB5:
  48:Src/gpio.c    ****   __HAL_RCC_GPIOA_CLK_ENABLE();
  87              		.loc 1 48 3 view .LVU19
  88 0030 0194     		str	r4, [sp, #4]
  48:Src/gpio.c    ****   __HAL_RCC_GPIOA_CLK_ENABLE();
  89              		.loc 1 48 3 view .LVU20
  90 0032 1A6B     		ldr	r2, [r3, #48]
  91 0034 42F08002 		orr	r2, r2, #128
  92 0038 1A63     		str	r2, [r3, #48]
  48:Src/gpio.c    ****   __HAL_RCC_GPIOA_CLK_ENABLE();
  93              		.loc 1 48 3 view .LVU21
  94 003a 1A6B     		ldr	r2, [r3, #48]
  95 003c 02F08002 		and	r2, r2, #128
  96 0040 0192     		str	r2, [sp, #4]
  48:Src/gpio.c    ****   __HAL_RCC_GPIOA_CLK_ENABLE();
  97              		.loc 1 48 3 view .LVU22
  98 0042 019A     		ldr	r2, [sp, #4]
  99              	.LBE5:
  48:Src/gpio.c    ****   __HAL_RCC_GPIOA_CLK_ENABLE();
ARM GAS  /tmp/ccn82dRc.s 			page 4


 100              		.loc 1 48 3 view .LVU23
  49:Src/gpio.c    ****   __HAL_RCC_GPIOB_CLK_ENABLE();
 101              		.loc 1 49 3 view .LVU24
 102              	.LBB6:
  49:Src/gpio.c    ****   __HAL_RCC_GPIOB_CLK_ENABLE();
 103              		.loc 1 49 3 view .LVU25
 104 0044 0294     		str	r4, [sp, #8]
  49:Src/gpio.c    ****   __HAL_RCC_GPIOB_CLK_ENABLE();
 105              		.loc 1 49 3 view .LVU26
 106 0046 1A6B     		ldr	r2, [r3, #48]
 107 0048 42F00102 		orr	r2, r2, #1
 108 004c 1A63     		str	r2, [r3, #48]
  49:Src/gpio.c    ****   __HAL_RCC_GPIOB_CLK_ENABLE();
 109              		.loc 1 49 3 view .LVU27
 110 004e 1A6B     		ldr	r2, [r3, #48]
 111 0050 02F00102 		and	r2, r2, #1
 112 0054 0292     		str	r2, [sp, #8]
  49:Src/gpio.c    ****   __HAL_RCC_GPIOB_CLK_ENABLE();
 113              		.loc 1 49 3 view .LVU28
 114 0056 029A     		ldr	r2, [sp, #8]
 115              	.LBE6:
  49:Src/gpio.c    ****   __HAL_RCC_GPIOB_CLK_ENABLE();
 116              		.loc 1 49 3 view .LVU29
  50:Src/gpio.c    ****   __HAL_RCC_GPIOD_CLK_ENABLE();
 117              		.loc 1 50 3 view .LVU30
 118              	.LBB7:
  50:Src/gpio.c    ****   __HAL_RCC_GPIOD_CLK_ENABLE();
 119              		.loc 1 50 3 view .LVU31
 120 0058 0394     		str	r4, [sp, #12]
  50:Src/gpio.c    ****   __HAL_RCC_GPIOD_CLK_ENABLE();
 121              		.loc 1 50 3 view .LVU32
 122 005a 1A6B     		ldr	r2, [r3, #48]
 123 005c 42F00202 		orr	r2, r2, #2
 124 0060 1A63     		str	r2, [r3, #48]
  50:Src/gpio.c    ****   __HAL_RCC_GPIOD_CLK_ENABLE();
 125              		.loc 1 50 3 view .LVU33
 126 0062 1A6B     		ldr	r2, [r3, #48]
 127 0064 02F00202 		and	r2, r2, #2
 128 0068 0392     		str	r2, [sp, #12]
  50:Src/gpio.c    ****   __HAL_RCC_GPIOD_CLK_ENABLE();
 129              		.loc 1 50 3 view .LVU34
 130 006a 039A     		ldr	r2, [sp, #12]
 131              	.LBE7:
  50:Src/gpio.c    ****   __HAL_RCC_GPIOD_CLK_ENABLE();
 132              		.loc 1 50 3 view .LVU35
  51:Src/gpio.c    **** 
 133              		.loc 1 51 3 view .LVU36
 134              	.LBB8:
  51:Src/gpio.c    **** 
 135              		.loc 1 51 3 view .LVU37
 136 006c 0494     		str	r4, [sp, #16]
  51:Src/gpio.c    **** 
 137              		.loc 1 51 3 view .LVU38
 138 006e 1A6B     		ldr	r2, [r3, #48]
 139 0070 42F00802 		orr	r2, r2, #8
 140 0074 1A63     		str	r2, [r3, #48]
  51:Src/gpio.c    **** 
ARM GAS  /tmp/ccn82dRc.s 			page 5


 141              		.loc 1 51 3 view .LVU39
 142 0076 1B6B     		ldr	r3, [r3, #48]
 143 0078 03F00803 		and	r3, r3, #8
 144 007c 0493     		str	r3, [sp, #16]
  51:Src/gpio.c    **** 
 145              		.loc 1 51 3 view .LVU40
 146              	.LBE8:
  54:Src/gpio.c    **** 
 147              		.loc 1 54 3 is_stmt 0 view .LVU41
 148 007e 2246     		mov	r2, r4
 149 0080 2846     		mov	r0, r5
 150 0082 0621     		movs	r1, #6
 151              	.LBB9:
  51:Src/gpio.c    **** 
 152              		.loc 1 51 3 view .LVU42
 153 0084 049B     		ldr	r3, [sp, #16]
 154              	.LBE9:
  51:Src/gpio.c    **** 
 155              		.loc 1 51 3 is_stmt 1 view .LVU43
  54:Src/gpio.c    **** 
 156              		.loc 1 54 3 view .LVU44
 157 0086 FFF7FEFF 		bl	HAL_GPIO_WritePin
 158              	.LVL0:
  57:Src/gpio.c    **** 
 159              		.loc 1 57 3 view .LVU45
 160 008a 2246     		mov	r2, r4
 161 008c 3046     		mov	r0, r6
 162 008e 4FF4A451 		mov	r1, #5248
 163 0092 FFF7FEFF 		bl	HAL_GPIO_WritePin
 164              	.LVL1:
 165              		.loc 1 60 3 view .LVU46
 166 0096 2246     		mov	r2, r4
 167 0098 4046     		mov	r0, r8
 168 009a 4FF40041 		mov	r1, #32768
 169 009e FFF7FEFF 		bl	HAL_GPIO_WritePin
 170              	.LVL2:
  61:Src/gpio.c    **** 
  62:Src/gpio.c    ****   /*Configure GPIO pins : PB1 PB2 */
  63:Src/gpio.c    ****   GPIO_InitStruct.Pin = GPIO_PIN_1|GPIO_PIN_2;
 171              		.loc 1 63 3 view .LVU47
  64:Src/gpio.c    ****   GPIO_InitStruct.Mode = GPIO_MODE_OUTPUT_PP;
 172              		.loc 1 64 24 is_stmt 0 view .LVU48
 173 00a2 0127     		movs	r7, #1
  65:Src/gpio.c    ****   GPIO_InitStruct.Pull = GPIO_NOPULL;
  66:Src/gpio.c    ****   GPIO_InitStruct.Speed = GPIO_SPEED_FREQ_LOW;
  67:Src/gpio.c    ****   HAL_GPIO_Init(GPIOB, &GPIO_InitStruct);
 174              		.loc 1 67 3 view .LVU49
 175 00a4 05A9     		add	r1, sp, #20
 176 00a6 2846     		mov	r0, r5
  63:Src/gpio.c    ****   GPIO_InitStruct.Mode = GPIO_MODE_OUTPUT_PP;
 177              		.loc 1 63 23 view .LVU50
 178 00a8 0623     		movs	r3, #6
  64:Src/gpio.c    ****   GPIO_InitStruct.Mode = GPIO_MODE_OUTPUT_PP;
 179              		.loc 1 64 24 view .LVU51
 180 00aa CDE90537 		strd	r3, r7, [sp, #20]
  65:Src/gpio.c    ****   GPIO_InitStruct.Pull = GPIO_NOPULL;
 181              		.loc 1 65 3 is_stmt 1 view .LVU52
ARM GAS  /tmp/ccn82dRc.s 			page 6


  66:Src/gpio.c    ****   HAL_GPIO_Init(GPIOB, &GPIO_InitStruct);
 182              		.loc 1 66 3 view .LVU53
 183              		.loc 1 67 3 view .LVU54
  66:Src/gpio.c    ****   HAL_GPIO_Init(GPIOB, &GPIO_InitStruct);
 184              		.loc 1 66 25 is_stmt 0 view .LVU55
 185 00ae CDE90744 		strd	r4, r4, [sp, #28]
 186              		.loc 1 67 3 view .LVU56
 187 00b2 FFF7FEFF 		bl	HAL_GPIO_Init
 188              	.LVL3:
  68:Src/gpio.c    **** 
  69:Src/gpio.c    ****   /*Configure GPIO pins : PC7 PC10 PC12 */
  70:Src/gpio.c    ****   GPIO_InitStruct.Pin = GPIO_PIN_7|GPIO_PIN_10|GPIO_PIN_12;
 189              		.loc 1 70 3 is_stmt 1 view .LVU57
  71:Src/gpio.c    ****   GPIO_InitStruct.Mode = GPIO_MODE_OUTPUT_PP;
  72:Src/gpio.c    ****   GPIO_InitStruct.Pull = GPIO_NOPULL;
  73:Src/gpio.c    ****   GPIO_InitStruct.Speed = GPIO_SPEED_FREQ_LOW;
  74:Src/gpio.c    ****   HAL_GPIO_Init(GPIOC, &GPIO_InitStruct);
 190              		.loc 1 74 3 is_stmt 0 view .LVU58
 191 00b6 05A9     		add	r1, sp, #20
 192 00b8 3046     		mov	r0, r6
  70:Src/gpio.c    ****   GPIO_InitStruct.Mode = GPIO_MODE_OUTPUT_PP;
 193              		.loc 1 70 23 view .LVU59
 194 00ba 4FF4A453 		mov	r3, #5248
 195 00be 0593     		str	r3, [sp, #20]
  71:Src/gpio.c    ****   GPIO_InitStruct.Mode = GPIO_MODE_OUTPUT_PP;
 196              		.loc 1 71 3 is_stmt 1 view .LVU60
  72:Src/gpio.c    ****   GPIO_InitStruct.Speed = GPIO_SPEED_FREQ_LOW;
 197              		.loc 1 72 3 view .LVU61
  73:Src/gpio.c    ****   HAL_GPIO_Init(GPIOC, &GPIO_InitStruct);
 198              		.loc 1 73 3 view .LVU62
 199              		.loc 1 74 3 view .LVU63
  72:Src/gpio.c    ****   GPIO_InitStruct.Speed = GPIO_SPEED_FREQ_LOW;
 200              		.loc 1 72 24 is_stmt 0 view .LVU64
 201 00c0 CDE90674 		strd	r7, r4, [sp, #24]
  73:Src/gpio.c    ****   HAL_GPIO_Init(GPIOC, &GPIO_InitStruct);
 202              		.loc 1 73 25 view .LVU65
 203 00c4 0894     		str	r4, [sp, #32]
 204              		.loc 1 74 3 view .LVU66
 205 00c6 FFF7FEFF 		bl	HAL_GPIO_Init
 206              	.LVL4:
  75:Src/gpio.c    **** 
  76:Src/gpio.c    ****   /*Configure GPIO pin : PA15 */
  77:Src/gpio.c    ****   GPIO_InitStruct.Pin = GPIO_PIN_15;
 207              		.loc 1 77 3 is_stmt 1 view .LVU67
  78:Src/gpio.c    ****   GPIO_InitStruct.Mode = GPIO_MODE_OUTPUT_PP;
  79:Src/gpio.c    ****   GPIO_InitStruct.Pull = GPIO_NOPULL;
  80:Src/gpio.c    ****   GPIO_InitStruct.Speed = GPIO_SPEED_FREQ_LOW;
  81:Src/gpio.c    ****   HAL_GPIO_Init(GPIOA, &GPIO_InitStruct);
 208              		.loc 1 81 3 is_stmt 0 view .LVU68
 209 00ca 4046     		mov	r0, r8
 210 00cc 05A9     		add	r1, sp, #20
  77:Src/gpio.c    ****   GPIO_InitStruct.Mode = GPIO_MODE_OUTPUT_PP;
 211              		.loc 1 77 23 view .LVU69
 212 00ce 4FF40043 		mov	r3, #32768
 213 00d2 0593     		str	r3, [sp, #20]
  78:Src/gpio.c    ****   GPIO_InitStruct.Mode = GPIO_MODE_OUTPUT_PP;
 214              		.loc 1 78 3 is_stmt 1 view .LVU70
ARM GAS  /tmp/ccn82dRc.s 			page 7


  79:Src/gpio.c    ****   GPIO_InitStruct.Speed = GPIO_SPEED_FREQ_LOW;
 215              		.loc 1 79 3 view .LVU71
  80:Src/gpio.c    ****   HAL_GPIO_Init(GPIOA, &GPIO_InitStruct);
 216              		.loc 1 80 3 view .LVU72
 217              		.loc 1 81 3 view .LVU73
  79:Src/gpio.c    ****   GPIO_InitStruct.Speed = GPIO_SPEED_FREQ_LOW;
 218              		.loc 1 79 24 is_stmt 0 view .LVU74
 219 00d4 CDE90674 		strd	r7, r4, [sp, #24]
  80:Src/gpio.c    ****   HAL_GPIO_Init(GPIOA, &GPIO_InitStruct);
 220              		.loc 1 80 25 view .LVU75
 221 00d8 0894     		str	r4, [sp, #32]
 222              		.loc 1 81 3 view .LVU76
 223 00da FFF7FEFF 		bl	HAL_GPIO_Init
 224              	.LVL5:
  82:Src/gpio.c    **** 
  83:Src/gpio.c    ****   /*Configure GPIO pin : PC11 */
  84:Src/gpio.c    ****   GPIO_InitStruct.Pin = GPIO_PIN_11;
 225              		.loc 1 84 3 is_stmt 1 view .LVU77
  85:Src/gpio.c    ****   GPIO_InitStruct.Mode = GPIO_MODE_INPUT;
  86:Src/gpio.c    ****   GPIO_InitStruct.Pull = GPIO_NOPULL;
  87:Src/gpio.c    ****   HAL_GPIO_Init(GPIOC, &GPIO_InitStruct);
 226              		.loc 1 87 3 is_stmt 0 view .LVU78
 227 00de 3046     		mov	r0, r6
 228 00e0 05A9     		add	r1, sp, #20
  84:Src/gpio.c    ****   GPIO_InitStruct.Mode = GPIO_MODE_INPUT;
 229              		.loc 1 84 23 view .LVU79
 230 00e2 4FF40063 		mov	r3, #2048
 231 00e6 0593     		str	r3, [sp, #20]
  85:Src/gpio.c    ****   GPIO_InitStruct.Mode = GPIO_MODE_INPUT;
 232              		.loc 1 85 3 is_stmt 1 view .LVU80
  86:Src/gpio.c    ****   HAL_GPIO_Init(GPIOC, &GPIO_InitStruct);
 233              		.loc 1 86 3 view .LVU81
 234              		.loc 1 87 3 view .LVU82
  86:Src/gpio.c    ****   HAL_GPIO_Init(GPIOC, &GPIO_InitStruct);
 235              		.loc 1 86 24 is_stmt 0 view .LVU83
 236 00e8 CDE90644 		strd	r4, r4, [sp, #24]
 237              		.loc 1 87 3 view .LVU84
 238 00ec FFF7FEFF 		bl	HAL_GPIO_Init
 239              	.LVL6:
  88:Src/gpio.c    **** 
  89:Src/gpio.c    ****   /*Configure GPIO pin : PD2 */
  90:Src/gpio.c    ****   GPIO_InitStruct.Pin = GPIO_PIN_2;
 240              		.loc 1 90 3 is_stmt 1 view .LVU85
  91:Src/gpio.c    ****   GPIO_InitStruct.Mode = GPIO_MODE_INPUT;
  92:Src/gpio.c    ****   GPIO_InitStruct.Pull = GPIO_NOPULL;
  93:Src/gpio.c    ****   HAL_GPIO_Init(GPIOD, &GPIO_InitStruct);
 241              		.loc 1 93 3 is_stmt 0 view .LVU86
 242 00f0 05A9     		add	r1, sp, #20
  90:Src/gpio.c    ****   GPIO_InitStruct.Mode = GPIO_MODE_INPUT;
 243              		.loc 1 90 23 view .LVU87
 244 00f2 0423     		movs	r3, #4
 245              		.loc 1 93 3 view .LVU88
 246 00f4 0B48     		ldr	r0, .L4+12
  90:Src/gpio.c    ****   GPIO_InitStruct.Mode = GPIO_MODE_INPUT;
 247              		.loc 1 90 23 view .LVU89
 248 00f6 0593     		str	r3, [sp, #20]
  91:Src/gpio.c    ****   GPIO_InitStruct.Mode = GPIO_MODE_INPUT;
ARM GAS  /tmp/ccn82dRc.s 			page 8


 249              		.loc 1 91 3 is_stmt 1 view .LVU90
  92:Src/gpio.c    ****   HAL_GPIO_Init(GPIOD, &GPIO_InitStruct);
 250              		.loc 1 92 3 view .LVU91
 251              		.loc 1 93 3 view .LVU92
  92:Src/gpio.c    ****   HAL_GPIO_Init(GPIOD, &GPIO_InitStruct);
 252              		.loc 1 92 24 is_stmt 0 view .LVU93
 253 00f8 CDE90644 		strd	r4, r4, [sp, #24]
 254              		.loc 1 93 3 view .LVU94
 255 00fc FFF7FEFF 		bl	HAL_GPIO_Init
 256              	.LVL7:
  94:Src/gpio.c    **** 
  95:Src/gpio.c    ****   /*Configure GPIO pin : PB9 */
  96:Src/gpio.c    ****   GPIO_InitStruct.Pin = GPIO_PIN_9;
 257              		.loc 1 96 3 is_stmt 1 view .LVU95
 258              		.loc 1 96 23 is_stmt 0 view .LVU96
 259 0100 4FF40073 		mov	r3, #512
  97:Src/gpio.c    ****   GPIO_InitStruct.Mode = GPIO_MODE_INPUT;
  98:Src/gpio.c    ****   GPIO_InitStruct.Pull = GPIO_NOPULL;
  99:Src/gpio.c    ****   HAL_GPIO_Init(GPIOB, &GPIO_InitStruct);
 260              		.loc 1 99 3 view .LVU97
 261 0104 05A9     		add	r1, sp, #20
 262 0106 2846     		mov	r0, r5
  98:Src/gpio.c    ****   HAL_GPIO_Init(GPIOB, &GPIO_InitStruct);
 263              		.loc 1 98 24 view .LVU98
 264 0108 CDE90644 		strd	r4, r4, [sp, #24]
  96:Src/gpio.c    ****   GPIO_InitStruct.Mode = GPIO_MODE_INPUT;
 265              		.loc 1 96 23 view .LVU99
 266 010c 0593     		str	r3, [sp, #20]
  97:Src/gpio.c    ****   GPIO_InitStruct.Mode = GPIO_MODE_INPUT;
 267              		.loc 1 97 3 is_stmt 1 view .LVU100
  98:Src/gpio.c    ****   HAL_GPIO_Init(GPIOB, &GPIO_InitStruct);
 268              		.loc 1 98 3 view .LVU101
 269              		.loc 1 99 3 view .LVU102
 270 010e FFF7FEFF 		bl	HAL_GPIO_Init
 271              	.LVL8:
 100:Src/gpio.c    **** 
 101:Src/gpio.c    **** }
 272              		.loc 1 101 1 is_stmt 0 view .LVU103
 273 0112 0AB0     		add	sp, sp, #40
 274              	.LCFI2:
 275              		.cfi_def_cfa_offset 24
 276              		@ sp needed
 277 0114 BDE8F081 		pop	{r4, r5, r6, r7, r8, pc}
 278              	.L5:
 279              		.align	2
 280              	.L4:
 281 0118 00380240 		.word	1073887232
 282 011c 00040240 		.word	1073873920
 283 0120 00080240 		.word	1073874944
 284 0124 000C0240 		.word	1073875968
 285 0128 00000240 		.word	1073872896
 286              		.cfi_endproc
 287              	.LFE130:
 289              		.text
 290              	.Letext0:
 291              		.file 2 "/opt/gcc-arm-none-eabi-9-2020-q2-update/arm-none-eabi/include/machine/_default_types.h"
 292              		.file 3 "/opt/gcc-arm-none-eabi-9-2020-q2-update/arm-none-eabi/include/sys/_stdint.h"
ARM GAS  /tmp/ccn82dRc.s 			page 9


 293              		.file 4 "Drivers/CMSIS/Include/core_cm4.h"
 294              		.file 5 "Drivers/CMSIS/Device/ST/STM32F4xx/Include/system_stm32f4xx.h"
 295              		.file 6 "Drivers/CMSIS/Device/ST/STM32F4xx/Include/stm32f405xx.h"
 296              		.file 7 "Drivers/STM32F4xx_HAL_Driver/Inc/stm32f4xx_hal_gpio.h"
 297              		.file 8 "Drivers/STM32F4xx_HAL_Driver/Inc/stm32f4xx_hal.h"
ARM GAS  /tmp/ccn82dRc.s 			page 10

