ARM GAS  /tmp/ccAcW5BD.s 			page 1


   1              		.cpu cortex-m4
   2              		.eabi_attribute 27, 1
   3              		.eabi_attribute 28, 1
   4              		.eabi_attribute 20, 1
   5              		.eabi_attribute 21, 1
   6              		.eabi_attribute 23, 3
   7              		.eabi_attribute 24, 1
   8              		.eabi_attribute 25, 1
   9              		.eabi_attribute 26, 1
  10              		.eabi_attribute 30, 2
  11              		.eabi_attribute 34, 1
  12              		.eabi_attribute 18, 4
  13              		.file	"spi.c"
  14              		.text
  15              	.Ltext0:
  16              		.cfi_sections	.debug_frame
  17              		.section	.text.MX_SPI1_Init,"ax",%progbits
  18              		.align	1
  19              		.p2align 2,,3
  20              		.global	MX_SPI1_Init
  21              		.arch armv7e-m
  22              		.syntax unified
  23              		.thumb
  24              		.thumb_func
  25              		.fpu fpv4-sp-d16
  27              	MX_SPI1_Init:
  28              	.LFB130:
  29              		.file 1 "Src/spi.c"
   1:Src/spi.c     **** /**
   2:Src/spi.c     ****   ******************************************************************************
   3:Src/spi.c     ****   * @file    spi.c
   4:Src/spi.c     ****   * @brief   This file provides code for the configuration
   5:Src/spi.c     ****   *          of the SPI instances.
   6:Src/spi.c     ****   ******************************************************************************
   7:Src/spi.c     ****   * @attention
   8:Src/spi.c     ****   *
   9:Src/spi.c     ****   * <h2><center>&copy; Copyright (c) 2021 STMicroelectronics.
  10:Src/spi.c     ****   * All rights reserved.</center></h2>
  11:Src/spi.c     ****   *
  12:Src/spi.c     ****   * This software component is licensed by ST under Ultimate Liberty license
  13:Src/spi.c     ****   * SLA0044, the "License"; You may not use this file except in compliance with
  14:Src/spi.c     ****   * the License. You may obtain a copy of the License at:
  15:Src/spi.c     ****   *                             www.st.com/SLA0044
  16:Src/spi.c     ****   *
  17:Src/spi.c     ****   ******************************************************************************
  18:Src/spi.c     ****   */
  19:Src/spi.c     **** 
  20:Src/spi.c     **** /* Includes ------------------------------------------------------------------*/
  21:Src/spi.c     **** #include "spi.h"
  22:Src/spi.c     **** 
  23:Src/spi.c     **** /* USER CODE BEGIN 0 */
  24:Src/spi.c     **** 
  25:Src/spi.c     **** /* USER CODE END 0 */
  26:Src/spi.c     **** 
  27:Src/spi.c     **** SPI_HandleTypeDef hspi1;
  28:Src/spi.c     **** 
  29:Src/spi.c     **** /* SPI1 init function */
ARM GAS  /tmp/ccAcW5BD.s 			page 2


  30:Src/spi.c     **** void MX_SPI1_Init(void)
  31:Src/spi.c     **** {
  30              		.loc 1 31 1 view -0
  31              		.cfi_startproc
  32              		@ args = 0, pretend = 0, frame = 0
  33              		@ frame_needed = 0, uses_anonymous_args = 0
  32:Src/spi.c     **** 
  33:Src/spi.c     ****   /* USER CODE BEGIN SPI1_Init 0 */
  34:Src/spi.c     **** 
  35:Src/spi.c     ****   /* USER CODE END SPI1_Init 0 */
  36:Src/spi.c     **** 
  37:Src/spi.c     ****   /* USER CODE BEGIN SPI1_Init 1 */
  38:Src/spi.c     **** 
  39:Src/spi.c     ****   /* USER CODE END SPI1_Init 1 */
  40:Src/spi.c     ****   hspi1.Instance = SPI1;
  34              		.loc 1 40 3 view .LVU1
  35              		.loc 1 40 18 is_stmt 0 view .LVU2
  36 0000 0E48     		ldr	r0, .L6
  37 0002 0F4B     		ldr	r3, .L6+4
  31:Src/spi.c     **** 
  38              		.loc 1 31 1 view .LVU3
  39 0004 10B5     		push	{r4, lr}
  40              	.LCFI0:
  41              		.cfi_def_cfa_offset 8
  42              		.cfi_offset 4, -8
  43              		.cfi_offset 14, -4
  41:Src/spi.c     ****   hspi1.Init.Mode = SPI_MODE_MASTER;
  42:Src/spi.c     ****   hspi1.Init.Direction = SPI_DIRECTION_2LINES;
  43:Src/spi.c     ****   hspi1.Init.DataSize = SPI_DATASIZE_8BIT;
  44:Src/spi.c     ****   hspi1.Init.CLKPolarity = SPI_POLARITY_LOW;
  45:Src/spi.c     ****   hspi1.Init.CLKPhase = SPI_PHASE_1EDGE;
  46:Src/spi.c     ****   hspi1.Init.NSS = SPI_NSS_HARD_OUTPUT;
  44              		.loc 1 46 18 view .LVU4
  45 0006 4FF48021 		mov	r1, #262144
  40:Src/spi.c     ****   hspi1.Init.Mode = SPI_MODE_MASTER;
  46              		.loc 1 40 18 view .LVU5
  47 000a 0360     		str	r3, [r0]
  41:Src/spi.c     ****   hspi1.Init.Mode = SPI_MODE_MASTER;
  48              		.loc 1 41 3 is_stmt 1 view .LVU6
  41:Src/spi.c     ****   hspi1.Init.Mode = SPI_MODE_MASTER;
  49              		.loc 1 41 19 is_stmt 0 view .LVU7
  50 000c 4FF48274 		mov	r4, #260
  42:Src/spi.c     ****   hspi1.Init.DataSize = SPI_DATASIZE_8BIT;
  51              		.loc 1 42 24 view .LVU8
  52 0010 0023     		movs	r3, #0
  47:Src/spi.c     ****   hspi1.Init.BaudRatePrescaler = SPI_BAUDRATEPRESCALER_2;
  48:Src/spi.c     ****   hspi1.Init.FirstBit = SPI_FIRSTBIT_MSB;
  49:Src/spi.c     ****   hspi1.Init.TIMode = SPI_TIMODE_DISABLE;
  50:Src/spi.c     ****   hspi1.Init.CRCCalculation = SPI_CRCCALCULATION_DISABLE;
  51:Src/spi.c     ****   hspi1.Init.CRCPolynomial = 10;
  53              		.loc 1 51 28 view .LVU9
  54 0012 0A22     		movs	r2, #10
  43:Src/spi.c     ****   hspi1.Init.CLKPolarity = SPI_POLARITY_LOW;
  55              		.loc 1 43 23 view .LVU10
  56 0014 C0E90233 		strd	r3, r3, [r0, #8]
  45:Src/spi.c     ****   hspi1.Init.NSS = SPI_NSS_HARD_OUTPUT;
  57              		.loc 1 45 23 view .LVU11
ARM GAS  /tmp/ccAcW5BD.s 			page 3


  58 0018 C0E90433 		strd	r3, r3, [r0, #16]
  48:Src/spi.c     ****   hspi1.Init.TIMode = SPI_TIMODE_DISABLE;
  59              		.loc 1 48 23 view .LVU12
  60 001c C0E90733 		strd	r3, r3, [r0, #28]
  50:Src/spi.c     ****   hspi1.Init.CRCPolynomial = 10;
  61              		.loc 1 50 29 view .LVU13
  62 0020 C0E90933 		strd	r3, r3, [r0, #36]
  41:Src/spi.c     ****   hspi1.Init.Direction = SPI_DIRECTION_2LINES;
  63              		.loc 1 41 19 view .LVU14
  64 0024 4460     		str	r4, [r0, #4]
  42:Src/spi.c     ****   hspi1.Init.DataSize = SPI_DATASIZE_8BIT;
  65              		.loc 1 42 3 is_stmt 1 view .LVU15
  44:Src/spi.c     ****   hspi1.Init.CLKPhase = SPI_PHASE_1EDGE;
  66              		.loc 1 44 3 view .LVU16
  46:Src/spi.c     ****   hspi1.Init.BaudRatePrescaler = SPI_BAUDRATEPRESCALER_2;
  67              		.loc 1 46 3 view .LVU17
  47:Src/spi.c     ****   hspi1.Init.FirstBit = SPI_FIRSTBIT_MSB;
  68              		.loc 1 47 3 view .LVU18
  49:Src/spi.c     ****   hspi1.Init.CRCCalculation = SPI_CRCCALCULATION_DISABLE;
  69              		.loc 1 49 3 view .LVU19
  70              		.loc 1 51 3 view .LVU20
  52:Src/spi.c     ****   if (HAL_SPI_Init(&hspi1) != HAL_OK)
  71              		.loc 1 52 3 view .LVU21
  46:Src/spi.c     ****   hspi1.Init.BaudRatePrescaler = SPI_BAUDRATEPRESCALER_2;
  72              		.loc 1 46 18 is_stmt 0 view .LVU22
  73 0026 8161     		str	r1, [r0, #24]
  51:Src/spi.c     ****   if (HAL_SPI_Init(&hspi1) != HAL_OK)
  74              		.loc 1 51 28 view .LVU23
  75 0028 C262     		str	r2, [r0, #44]
  76              		.loc 1 52 7 view .LVU24
  77 002a FFF7FEFF 		bl	HAL_SPI_Init
  78              	.LVL0:
  79              		.loc 1 52 6 view .LVU25
  80 002e 00B9     		cbnz	r0, .L5
  53:Src/spi.c     ****   {
  54:Src/spi.c     ****     Error_Handler();
  55:Src/spi.c     ****   }
  56:Src/spi.c     ****   /* USER CODE BEGIN SPI1_Init 2 */
  57:Src/spi.c     **** 
  58:Src/spi.c     ****   /* USER CODE END SPI1_Init 2 */
  59:Src/spi.c     **** 
  60:Src/spi.c     **** }
  81              		.loc 1 60 1 view .LVU26
  82 0030 10BD     		pop	{r4, pc}
  83              	.L5:
  54:Src/spi.c     ****   }
  84              		.loc 1 54 5 is_stmt 1 view .LVU27
  85              		.loc 1 60 1 is_stmt 0 view .LVU28
  86 0032 BDE81040 		pop	{r4, lr}
  87              	.LCFI1:
  88              		.cfi_restore 14
  89              		.cfi_restore 4
  90              		.cfi_def_cfa_offset 0
  54:Src/spi.c     ****   }
  91              		.loc 1 54 5 view .LVU29
  92 0036 FFF7FEBF 		b	Error_Handler
  93              	.LVL1:
ARM GAS  /tmp/ccAcW5BD.s 			page 4


  94              	.L7:
  95 003a 00BF     		.align	2
  96              	.L6:
  97 003c 00000000 		.word	hspi1
  98 0040 00300140 		.word	1073819648
  99              		.cfi_endproc
 100              	.LFE130:
 102              		.section	.text.HAL_SPI_MspInit,"ax",%progbits
 103              		.align	1
 104              		.p2align 2,,3
 105              		.global	HAL_SPI_MspInit
 106              		.syntax unified
 107              		.thumb
 108              		.thumb_func
 109              		.fpu fpv4-sp-d16
 111              	HAL_SPI_MspInit:
 112              	.LVL2:
 113              	.LFB131:
  61:Src/spi.c     **** 
  62:Src/spi.c     **** void HAL_SPI_MspInit(SPI_HandleTypeDef* spiHandle)
  63:Src/spi.c     **** {
 114              		.loc 1 63 1 is_stmt 1 view -0
 115              		.cfi_startproc
 116              		@ args = 0, pretend = 0, frame = 32
 117              		@ frame_needed = 0, uses_anonymous_args = 0
  64:Src/spi.c     **** 
  65:Src/spi.c     ****   GPIO_InitTypeDef GPIO_InitStruct = {0};
 118              		.loc 1 65 3 view .LVU31
  63:Src/spi.c     **** 
 119              		.loc 1 63 1 is_stmt 0 view .LVU32
 120 0000 F0B5     		push	{r4, r5, r6, r7, lr}
 121              	.LCFI2:
 122              		.cfi_def_cfa_offset 20
 123              		.cfi_offset 4, -20
 124              		.cfi_offset 5, -16
 125              		.cfi_offset 6, -12
 126              		.cfi_offset 7, -8
 127              		.cfi_offset 14, -4
  66:Src/spi.c     ****   if(spiHandle->Instance==SPI1)
 128              		.loc 1 66 5 view .LVU33
 129 0002 0268     		ldr	r2, [r0]
 130 0004 224B     		ldr	r3, .L12
  63:Src/spi.c     **** 
 131              		.loc 1 63 1 view .LVU34
 132 0006 89B0     		sub	sp, sp, #36
 133              	.LCFI3:
 134              		.cfi_def_cfa_offset 56
  65:Src/spi.c     ****   if(spiHandle->Instance==SPI1)
 135              		.loc 1 65 20 view .LVU35
 136 0008 0024     		movs	r4, #0
 137              		.loc 1 66 5 view .LVU36
 138 000a 9A42     		cmp	r2, r3
  65:Src/spi.c     ****   if(spiHandle->Instance==SPI1)
 139              		.loc 1 65 20 view .LVU37
 140 000c CDE90344 		strd	r4, r4, [sp, #12]
 141 0010 CDE90544 		strd	r4, r4, [sp, #20]
 142 0014 0794     		str	r4, [sp, #28]
ARM GAS  /tmp/ccAcW5BD.s 			page 5


 143              		.loc 1 66 3 is_stmt 1 view .LVU38
 144              		.loc 1 66 5 is_stmt 0 view .LVU39
 145 0016 01D0     		beq	.L11
  67:Src/spi.c     ****   {
  68:Src/spi.c     ****   /* USER CODE BEGIN SPI1_MspInit 0 */
  69:Src/spi.c     **** 
  70:Src/spi.c     ****   /* USER CODE END SPI1_MspInit 0 */
  71:Src/spi.c     ****     /* SPI1 clock enable */
  72:Src/spi.c     ****     __HAL_RCC_SPI1_CLK_ENABLE();
  73:Src/spi.c     **** 
  74:Src/spi.c     ****     __HAL_RCC_GPIOA_CLK_ENABLE();
  75:Src/spi.c     ****     __HAL_RCC_GPIOB_CLK_ENABLE();
  76:Src/spi.c     ****     /**SPI1 GPIO Configuration
  77:Src/spi.c     ****     PA4     ------> SPI1_NSS
  78:Src/spi.c     ****     PB3     ------> SPI1_SCK
  79:Src/spi.c     ****     PB4     ------> SPI1_MISO
  80:Src/spi.c     ****     PB5     ------> SPI1_MOSI
  81:Src/spi.c     ****     */
  82:Src/spi.c     ****     GPIO_InitStruct.Pin = GPIO_PIN_4;
  83:Src/spi.c     ****     GPIO_InitStruct.Mode = GPIO_MODE_AF_PP;
  84:Src/spi.c     ****     GPIO_InitStruct.Pull = GPIO_NOPULL;
  85:Src/spi.c     ****     GPIO_InitStruct.Speed = GPIO_SPEED_FREQ_VERY_HIGH;
  86:Src/spi.c     ****     GPIO_InitStruct.Alternate = GPIO_AF5_SPI1;
  87:Src/spi.c     ****     HAL_GPIO_Init(GPIOA, &GPIO_InitStruct);
  88:Src/spi.c     **** 
  89:Src/spi.c     ****     GPIO_InitStruct.Pin = GPIO_PIN_3|GPIO_PIN_4|GPIO_PIN_5;
  90:Src/spi.c     ****     GPIO_InitStruct.Mode = GPIO_MODE_AF_PP;
  91:Src/spi.c     ****     GPIO_InitStruct.Pull = GPIO_NOPULL;
  92:Src/spi.c     ****     GPIO_InitStruct.Speed = GPIO_SPEED_FREQ_VERY_HIGH;
  93:Src/spi.c     ****     GPIO_InitStruct.Alternate = GPIO_AF5_SPI1;
  94:Src/spi.c     ****     HAL_GPIO_Init(GPIOB, &GPIO_InitStruct);
  95:Src/spi.c     **** 
  96:Src/spi.c     ****   /* USER CODE BEGIN SPI1_MspInit 1 */
  97:Src/spi.c     **** 
  98:Src/spi.c     ****   /* USER CODE END SPI1_MspInit 1 */
  99:Src/spi.c     ****   }
 100:Src/spi.c     **** }
 146              		.loc 1 100 1 view .LVU40
 147 0018 09B0     		add	sp, sp, #36
 148              	.LCFI4:
 149              		.cfi_remember_state
 150              		.cfi_def_cfa_offset 20
 151              		@ sp needed
 152 001a F0BD     		pop	{r4, r5, r6, r7, pc}
 153              	.L11:
 154              	.LCFI5:
 155              		.cfi_restore_state
  72:Src/spi.c     **** 
 156              		.loc 1 72 5 is_stmt 1 view .LVU41
 157              	.LBB2:
  72:Src/spi.c     **** 
 158              		.loc 1 72 5 view .LVU42
 159 001c 03F58433 		add	r3, r3, #67584
 160 0020 0094     		str	r4, [sp]
  72:Src/spi.c     **** 
 161              		.loc 1 72 5 view .LVU43
 162 0022 5A6C     		ldr	r2, [r3, #68]
ARM GAS  /tmp/ccAcW5BD.s 			page 6


 163              	.LBE2:
  87:Src/spi.c     **** 
 164              		.loc 1 87 5 is_stmt 0 view .LVU44
 165 0024 1B48     		ldr	r0, .L12+4
 166              	.LVL3:
 167              	.LBB3:
  72:Src/spi.c     **** 
 168              		.loc 1 72 5 view .LVU45
 169 0026 42F48052 		orr	r2, r2, #4096
 170 002a 5A64     		str	r2, [r3, #68]
  72:Src/spi.c     **** 
 171              		.loc 1 72 5 is_stmt 1 view .LVU46
 172 002c 5A6C     		ldr	r2, [r3, #68]
 173 002e 02F48052 		and	r2, r2, #4096
 174 0032 0092     		str	r2, [sp]
  72:Src/spi.c     **** 
 175              		.loc 1 72 5 view .LVU47
 176 0034 009A     		ldr	r2, [sp]
 177              	.LBE3:
  72:Src/spi.c     **** 
 178              		.loc 1 72 5 view .LVU48
  74:Src/spi.c     ****     __HAL_RCC_GPIOB_CLK_ENABLE();
 179              		.loc 1 74 5 view .LVU49
 180              	.LBB4:
  74:Src/spi.c     ****     __HAL_RCC_GPIOB_CLK_ENABLE();
 181              		.loc 1 74 5 view .LVU50
 182 0036 0194     		str	r4, [sp, #4]
  74:Src/spi.c     ****     __HAL_RCC_GPIOB_CLK_ENABLE();
 183              		.loc 1 74 5 view .LVU51
 184 0038 1A6B     		ldr	r2, [r3, #48]
 185 003a 42F00102 		orr	r2, r2, #1
 186 003e 1A63     		str	r2, [r3, #48]
  74:Src/spi.c     ****     __HAL_RCC_GPIOB_CLK_ENABLE();
 187              		.loc 1 74 5 view .LVU52
 188 0040 1A6B     		ldr	r2, [r3, #48]
 189 0042 02F00102 		and	r2, r2, #1
 190 0046 0192     		str	r2, [sp, #4]
  74:Src/spi.c     ****     __HAL_RCC_GPIOB_CLK_ENABLE();
 191              		.loc 1 74 5 view .LVU53
 192 0048 019A     		ldr	r2, [sp, #4]
 193              	.LBE4:
  74:Src/spi.c     ****     __HAL_RCC_GPIOB_CLK_ENABLE();
 194              		.loc 1 74 5 view .LVU54
  75:Src/spi.c     ****     /**SPI1 GPIO Configuration
 195              		.loc 1 75 5 view .LVU55
 196              	.LBB5:
  75:Src/spi.c     ****     /**SPI1 GPIO Configuration
 197              		.loc 1 75 5 view .LVU56
 198 004a 0294     		str	r4, [sp, #8]
  75:Src/spi.c     ****     /**SPI1 GPIO Configuration
 199              		.loc 1 75 5 view .LVU57
 200 004c 1A6B     		ldr	r2, [r3, #48]
 201 004e 42F00202 		orr	r2, r2, #2
 202 0052 1A63     		str	r2, [r3, #48]
  75:Src/spi.c     ****     /**SPI1 GPIO Configuration
 203              		.loc 1 75 5 view .LVU58
 204 0054 1B6B     		ldr	r3, [r3, #48]
ARM GAS  /tmp/ccAcW5BD.s 			page 7


 205              	.LBE5:
  84:Src/spi.c     ****     GPIO_InitStruct.Speed = GPIO_SPEED_FREQ_VERY_HIGH;
 206              		.loc 1 84 26 is_stmt 0 view .LVU59
 207 0056 0594     		str	r4, [sp, #20]
 208              	.LBB6:
  75:Src/spi.c     ****     /**SPI1 GPIO Configuration
 209              		.loc 1 75 5 view .LVU60
 210 0058 03F00203 		and	r3, r3, #2
 211 005c 0293     		str	r3, [sp, #8]
  75:Src/spi.c     ****     /**SPI1 GPIO Configuration
 212              		.loc 1 75 5 is_stmt 1 view .LVU61
 213              	.LBE6:
  83:Src/spi.c     ****     GPIO_InitStruct.Pull = GPIO_NOPULL;
 214              		.loc 1 83 26 is_stmt 0 view .LVU62
 215 005e 0227     		movs	r7, #2
  82:Src/spi.c     ****     GPIO_InitStruct.Mode = GPIO_MODE_AF_PP;
 216              		.loc 1 82 25 view .LVU63
 217 0060 1023     		movs	r3, #16
  85:Src/spi.c     ****     GPIO_InitStruct.Alternate = GPIO_AF5_SPI1;
 218              		.loc 1 85 27 view .LVU64
 219 0062 0326     		movs	r6, #3
  86:Src/spi.c     ****     HAL_GPIO_Init(GPIOA, &GPIO_InitStruct);
 220              		.loc 1 86 31 view .LVU65
 221 0064 0525     		movs	r5, #5
  87:Src/spi.c     **** 
 222              		.loc 1 87 5 view .LVU66
 223 0066 03A9     		add	r1, sp, #12
  83:Src/spi.c     ****     GPIO_InitStruct.Pull = GPIO_NOPULL;
 224              		.loc 1 83 26 view .LVU67
 225 0068 CDE90337 		strd	r3, r7, [sp, #12]
 226              	.LBB7:
  75:Src/spi.c     ****     /**SPI1 GPIO Configuration
 227              		.loc 1 75 5 view .LVU68
 228 006c 029A     		ldr	r2, [sp, #8]
 229              	.LBE7:
  75:Src/spi.c     ****     /**SPI1 GPIO Configuration
 230              		.loc 1 75 5 is_stmt 1 view .LVU69
  82:Src/spi.c     ****     GPIO_InitStruct.Mode = GPIO_MODE_AF_PP;
 231              		.loc 1 82 5 view .LVU70
  84:Src/spi.c     ****     GPIO_InitStruct.Speed = GPIO_SPEED_FREQ_VERY_HIGH;
 232              		.loc 1 84 5 view .LVU71
  85:Src/spi.c     ****     GPIO_InitStruct.Alternate = GPIO_AF5_SPI1;
 233              		.loc 1 85 5 view .LVU72
  86:Src/spi.c     ****     HAL_GPIO_Init(GPIOA, &GPIO_InitStruct);
 234              		.loc 1 86 31 is_stmt 0 view .LVU73
 235 006e CDE90665 		strd	r6, r5, [sp, #24]
  87:Src/spi.c     **** 
 236              		.loc 1 87 5 is_stmt 1 view .LVU74
 237 0072 FFF7FEFF 		bl	HAL_GPIO_Init
 238              	.LVL4:
  89:Src/spi.c     ****     GPIO_InitStruct.Mode = GPIO_MODE_AF_PP;
 239              		.loc 1 89 5 view .LVU75
  89:Src/spi.c     ****     GPIO_InitStruct.Mode = GPIO_MODE_AF_PP;
 240              		.loc 1 89 25 is_stmt 0 view .LVU76
 241 0076 3823     		movs	r3, #56
  94:Src/spi.c     **** 
 242              		.loc 1 94 5 view .LVU77
ARM GAS  /tmp/ccAcW5BD.s 			page 8


 243 0078 0748     		ldr	r0, .L12+8
  90:Src/spi.c     ****     GPIO_InitStruct.Pull = GPIO_NOPULL;
 244              		.loc 1 90 26 view .LVU78
 245 007a 0497     		str	r7, [sp, #16]
  94:Src/spi.c     **** 
 246              		.loc 1 94 5 view .LVU79
 247 007c 03A9     		add	r1, sp, #12
  93:Src/spi.c     ****     HAL_GPIO_Init(GPIOB, &GPIO_InitStruct);
 248              		.loc 1 93 31 view .LVU80
 249 007e CDE90665 		strd	r6, r5, [sp, #24]
  91:Src/spi.c     ****     GPIO_InitStruct.Speed = GPIO_SPEED_FREQ_VERY_HIGH;
 250              		.loc 1 91 26 view .LVU81
 251 0082 0594     		str	r4, [sp, #20]
  89:Src/spi.c     ****     GPIO_InitStruct.Mode = GPIO_MODE_AF_PP;
 252              		.loc 1 89 25 view .LVU82
 253 0084 0393     		str	r3, [sp, #12]
  90:Src/spi.c     ****     GPIO_InitStruct.Pull = GPIO_NOPULL;
 254              		.loc 1 90 5 is_stmt 1 view .LVU83
  91:Src/spi.c     ****     GPIO_InitStruct.Speed = GPIO_SPEED_FREQ_VERY_HIGH;
 255              		.loc 1 91 5 view .LVU84
  92:Src/spi.c     ****     GPIO_InitStruct.Alternate = GPIO_AF5_SPI1;
 256              		.loc 1 92 5 view .LVU85
  93:Src/spi.c     ****     HAL_GPIO_Init(GPIOB, &GPIO_InitStruct);
 257              		.loc 1 93 5 view .LVU86
  94:Src/spi.c     **** 
 258              		.loc 1 94 5 view .LVU87
 259 0086 FFF7FEFF 		bl	HAL_GPIO_Init
 260              	.LVL5:
 261              		.loc 1 100 1 is_stmt 0 view .LVU88
 262 008a 09B0     		add	sp, sp, #36
 263              	.LCFI6:
 264              		.cfi_def_cfa_offset 20
 265              		@ sp needed
 266 008c F0BD     		pop	{r4, r5, r6, r7, pc}
 267              	.L13:
 268 008e 00BF     		.align	2
 269              	.L12:
 270 0090 00300140 		.word	1073819648
 271 0094 00000240 		.word	1073872896
 272 0098 00040240 		.word	1073873920
 273              		.cfi_endproc
 274              	.LFE131:
 276              		.section	.text.HAL_SPI_MspDeInit,"ax",%progbits
 277              		.align	1
 278              		.p2align 2,,3
 279              		.global	HAL_SPI_MspDeInit
 280              		.syntax unified
 281              		.thumb
 282              		.thumb_func
 283              		.fpu fpv4-sp-d16
 285              	HAL_SPI_MspDeInit:
 286              	.LVL6:
 287              	.LFB132:
 101:Src/spi.c     **** 
 102:Src/spi.c     **** void HAL_SPI_MspDeInit(SPI_HandleTypeDef* spiHandle)
 103:Src/spi.c     **** {
 288              		.loc 1 103 1 is_stmt 1 view -0
ARM GAS  /tmp/ccAcW5BD.s 			page 9


 289              		.cfi_startproc
 290              		@ args = 0, pretend = 0, frame = 0
 291              		@ frame_needed = 0, uses_anonymous_args = 0
 104:Src/spi.c     **** 
 105:Src/spi.c     ****   if(spiHandle->Instance==SPI1)
 292              		.loc 1 105 3 view .LVU90
 103:Src/spi.c     **** 
 293              		.loc 1 103 1 is_stmt 0 view .LVU91
 294 0000 08B5     		push	{r3, lr}
 295              	.LCFI7:
 296              		.cfi_def_cfa_offset 8
 297              		.cfi_offset 3, -8
 298              		.cfi_offset 14, -4
 299              		.loc 1 105 5 view .LVU92
 300 0002 0268     		ldr	r2, [r0]
 301 0004 094B     		ldr	r3, .L18
 302 0006 9A42     		cmp	r2, r3
 303 0008 00D0     		beq	.L17
 106:Src/spi.c     ****   {
 107:Src/spi.c     ****   /* USER CODE BEGIN SPI1_MspDeInit 0 */
 108:Src/spi.c     **** 
 109:Src/spi.c     ****   /* USER CODE END SPI1_MspDeInit 0 */
 110:Src/spi.c     ****     /* Peripheral clock disable */
 111:Src/spi.c     ****     __HAL_RCC_SPI1_CLK_DISABLE();
 112:Src/spi.c     **** 
 113:Src/spi.c     ****     /**SPI1 GPIO Configuration
 114:Src/spi.c     ****     PA4     ------> SPI1_NSS
 115:Src/spi.c     ****     PB3     ------> SPI1_SCK
 116:Src/spi.c     ****     PB4     ------> SPI1_MISO
 117:Src/spi.c     ****     PB5     ------> SPI1_MOSI
 118:Src/spi.c     ****     */
 119:Src/spi.c     ****     HAL_GPIO_DeInit(GPIOA, GPIO_PIN_4);
 120:Src/spi.c     **** 
 121:Src/spi.c     ****     HAL_GPIO_DeInit(GPIOB, GPIO_PIN_3|GPIO_PIN_4|GPIO_PIN_5);
 122:Src/spi.c     **** 
 123:Src/spi.c     ****   /* USER CODE BEGIN SPI1_MspDeInit 1 */
 124:Src/spi.c     **** 
 125:Src/spi.c     ****   /* USER CODE END SPI1_MspDeInit 1 */
 126:Src/spi.c     ****   }
 127:Src/spi.c     **** }
 304              		.loc 1 127 1 view .LVU93
 305 000a 08BD     		pop	{r3, pc}
 306              	.L17:
 111:Src/spi.c     **** 
 307              		.loc 1 111 5 is_stmt 1 view .LVU94
 308 000c 084A     		ldr	r2, .L18+4
 119:Src/spi.c     **** 
 309              		.loc 1 119 5 is_stmt 0 view .LVU95
 310 000e 0948     		ldr	r0, .L18+8
 311              	.LVL7:
 111:Src/spi.c     **** 
 312              		.loc 1 111 5 view .LVU96
 313 0010 536C     		ldr	r3, [r2, #68]
 314 0012 23F48053 		bic	r3, r3, #4096
 315 0016 5364     		str	r3, [r2, #68]
 119:Src/spi.c     **** 
 316              		.loc 1 119 5 is_stmt 1 view .LVU97
ARM GAS  /tmp/ccAcW5BD.s 			page 10


 317 0018 1021     		movs	r1, #16
 318 001a FFF7FEFF 		bl	HAL_GPIO_DeInit
 319              	.LVL8:
 121:Src/spi.c     **** 
 320              		.loc 1 121 5 view .LVU98
 321              		.loc 1 127 1 is_stmt 0 view .LVU99
 322 001e BDE80840 		pop	{r3, lr}
 323              	.LCFI8:
 324              		.cfi_restore 14
 325              		.cfi_restore 3
 326              		.cfi_def_cfa_offset 0
 121:Src/spi.c     **** 
 327              		.loc 1 121 5 view .LVU100
 328 0022 0548     		ldr	r0, .L18+12
 329 0024 3821     		movs	r1, #56
 330 0026 FFF7FEBF 		b	HAL_GPIO_DeInit
 331              	.LVL9:
 332              	.L19:
 333 002a 00BF     		.align	2
 334              	.L18:
 335 002c 00300140 		.word	1073819648
 336 0030 00380240 		.word	1073887232
 337 0034 00000240 		.word	1073872896
 338 0038 00040240 		.word	1073873920
 339              		.cfi_endproc
 340              	.LFE132:
 342              		.comm	hspi1,88,4
 343              		.text
 344              	.Letext0:
 345              		.file 2 "/opt/gcc-arm-none-eabi-9-2020-q2-update/arm-none-eabi/include/machine/_default_types.h"
 346              		.file 3 "/opt/gcc-arm-none-eabi-9-2020-q2-update/arm-none-eabi/include/sys/_stdint.h"
 347              		.file 4 "Drivers/CMSIS/Include/core_cm4.h"
 348              		.file 5 "Drivers/CMSIS/Device/ST/STM32F4xx/Include/system_stm32f4xx.h"
 349              		.file 6 "Drivers/CMSIS/Device/ST/STM32F4xx/Include/stm32f405xx.h"
 350              		.file 7 "Drivers/STM32F4xx_HAL_Driver/Inc/stm32f4xx_hal_def.h"
 351              		.file 8 "Drivers/STM32F4xx_HAL_Driver/Inc/stm32f4xx_hal_gpio.h"
 352              		.file 9 "Drivers/STM32F4xx_HAL_Driver/Inc/stm32f4xx_hal_dma.h"
 353              		.file 10 "Drivers/STM32F4xx_HAL_Driver/Inc/stm32f4xx_hal_spi.h"
 354              		.file 11 "Drivers/STM32F4xx_HAL_Driver/Inc/stm32f4xx_hal.h"
 355              		.file 12 "Inc/spi.h"
 356              		.file 13 "Inc/main.h"
ARM GAS  /tmp/ccAcW5BD.s 			page 11

