ARM GAS  /tmp/ccDzXOxq.s 			page 1


   1              		.cpu cortex-m4
   2              		.eabi_attribute 27, 1
   3              		.eabi_attribute 28, 1
   4              		.eabi_attribute 20, 1
   5              		.eabi_attribute 21, 1
   6              		.eabi_attribute 23, 3
   7              		.eabi_attribute 24, 1
   8              		.eabi_attribute 25, 1
   9              		.eabi_attribute 26, 1
  10              		.eabi_attribute 30, 2
  11              		.eabi_attribute 34, 1
  12              		.eabi_attribute 18, 4
  13              		.file	"stm32f4xx_ll_usb.c"
  14              		.text
  15              	.Ltext0:
  16              		.cfi_sections	.debug_frame
  17              		.section	.text.USB_CoreReset,"ax",%progbits
  18              		.align	1
  19              		.p2align 2,,3
  20              		.arch armv7e-m
  21              		.syntax unified
  22              		.thumb
  23              		.thumb_func
  24              		.fpu fpv4-sp-d16
  26              	USB_CoreReset:
  27              	.LVL0:
  28              	.LFB163:
  29              		.file 1 "Drivers/STM32F4xx_HAL_Driver/Src/stm32f4xx_ll_usb.c"
   1:Drivers/STM32F4xx_HAL_Driver/Src/stm32f4xx_ll_usb.c **** /**
   2:Drivers/STM32F4xx_HAL_Driver/Src/stm32f4xx_ll_usb.c ****   ******************************************************************************
   3:Drivers/STM32F4xx_HAL_Driver/Src/stm32f4xx_ll_usb.c ****   * @file    stm32f4xx_ll_usb.c
   4:Drivers/STM32F4xx_HAL_Driver/Src/stm32f4xx_ll_usb.c ****   * @author  MCD Application Team
   5:Drivers/STM32F4xx_HAL_Driver/Src/stm32f4xx_ll_usb.c ****   * @brief   USB Low Layer HAL module driver.
   6:Drivers/STM32F4xx_HAL_Driver/Src/stm32f4xx_ll_usb.c ****   *
   7:Drivers/STM32F4xx_HAL_Driver/Src/stm32f4xx_ll_usb.c ****   *          This file provides firmware functions to manage the following
   8:Drivers/STM32F4xx_HAL_Driver/Src/stm32f4xx_ll_usb.c ****   *          functionalities of the USB Peripheral Controller:
   9:Drivers/STM32F4xx_HAL_Driver/Src/stm32f4xx_ll_usb.c ****   *           + Initialization/de-initialization functions
  10:Drivers/STM32F4xx_HAL_Driver/Src/stm32f4xx_ll_usb.c ****   *           + I/O operation functions
  11:Drivers/STM32F4xx_HAL_Driver/Src/stm32f4xx_ll_usb.c ****   *           + Peripheral Control functions
  12:Drivers/STM32F4xx_HAL_Driver/Src/stm32f4xx_ll_usb.c ****   *           + Peripheral State functions
  13:Drivers/STM32F4xx_HAL_Driver/Src/stm32f4xx_ll_usb.c ****   *
  14:Drivers/STM32F4xx_HAL_Driver/Src/stm32f4xx_ll_usb.c ****   @verbatim
  15:Drivers/STM32F4xx_HAL_Driver/Src/stm32f4xx_ll_usb.c ****   ==============================================================================
  16:Drivers/STM32F4xx_HAL_Driver/Src/stm32f4xx_ll_usb.c ****                     ##### How to use this driver #####
  17:Drivers/STM32F4xx_HAL_Driver/Src/stm32f4xx_ll_usb.c ****   ==============================================================================
  18:Drivers/STM32F4xx_HAL_Driver/Src/stm32f4xx_ll_usb.c ****     [..]
  19:Drivers/STM32F4xx_HAL_Driver/Src/stm32f4xx_ll_usb.c ****       (#) Fill parameters of Init structure in USB_OTG_CfgTypeDef structure.
  20:Drivers/STM32F4xx_HAL_Driver/Src/stm32f4xx_ll_usb.c **** 
  21:Drivers/STM32F4xx_HAL_Driver/Src/stm32f4xx_ll_usb.c ****       (#) Call USB_CoreInit() API to initialize the USB Core peripheral.
  22:Drivers/STM32F4xx_HAL_Driver/Src/stm32f4xx_ll_usb.c **** 
  23:Drivers/STM32F4xx_HAL_Driver/Src/stm32f4xx_ll_usb.c ****       (#) The upper HAL HCD/PCD driver will call the right routines for its internal processes.
  24:Drivers/STM32F4xx_HAL_Driver/Src/stm32f4xx_ll_usb.c **** 
  25:Drivers/STM32F4xx_HAL_Driver/Src/stm32f4xx_ll_usb.c ****   @endverbatim
  26:Drivers/STM32F4xx_HAL_Driver/Src/stm32f4xx_ll_usb.c ****   ******************************************************************************
  27:Drivers/STM32F4xx_HAL_Driver/Src/stm32f4xx_ll_usb.c ****   * @attention
  28:Drivers/STM32F4xx_HAL_Driver/Src/stm32f4xx_ll_usb.c ****   *
  29:Drivers/STM32F4xx_HAL_Driver/Src/stm32f4xx_ll_usb.c ****   * <h2><center>&copy; Copyright (c) 2016 STMicroelectronics.
ARM GAS  /tmp/ccDzXOxq.s 			page 2


  30:Drivers/STM32F4xx_HAL_Driver/Src/stm32f4xx_ll_usb.c ****   * All rights reserved.</center></h2>
  31:Drivers/STM32F4xx_HAL_Driver/Src/stm32f4xx_ll_usb.c ****   *
  32:Drivers/STM32F4xx_HAL_Driver/Src/stm32f4xx_ll_usb.c ****   * This software component is licensed by ST under BSD 3-Clause license,
  33:Drivers/STM32F4xx_HAL_Driver/Src/stm32f4xx_ll_usb.c ****   * the "License"; You may not use this file except in compliance with the
  34:Drivers/STM32F4xx_HAL_Driver/Src/stm32f4xx_ll_usb.c ****   * License. You may obtain a copy of the License at:
  35:Drivers/STM32F4xx_HAL_Driver/Src/stm32f4xx_ll_usb.c ****   *                        opensource.org/licenses/BSD-3-Clause
  36:Drivers/STM32F4xx_HAL_Driver/Src/stm32f4xx_ll_usb.c ****   *
  37:Drivers/STM32F4xx_HAL_Driver/Src/stm32f4xx_ll_usb.c ****   ******************************************************************************
  38:Drivers/STM32F4xx_HAL_Driver/Src/stm32f4xx_ll_usb.c ****   */
  39:Drivers/STM32F4xx_HAL_Driver/Src/stm32f4xx_ll_usb.c **** 
  40:Drivers/STM32F4xx_HAL_Driver/Src/stm32f4xx_ll_usb.c **** /* Includes ------------------------------------------------------------------*/
  41:Drivers/STM32F4xx_HAL_Driver/Src/stm32f4xx_ll_usb.c **** #include "stm32f4xx_hal.h"
  42:Drivers/STM32F4xx_HAL_Driver/Src/stm32f4xx_ll_usb.c **** 
  43:Drivers/STM32F4xx_HAL_Driver/Src/stm32f4xx_ll_usb.c **** /** @addtogroup STM32F4xx_LL_USB_DRIVER
  44:Drivers/STM32F4xx_HAL_Driver/Src/stm32f4xx_ll_usb.c ****   * @{
  45:Drivers/STM32F4xx_HAL_Driver/Src/stm32f4xx_ll_usb.c ****   */
  46:Drivers/STM32F4xx_HAL_Driver/Src/stm32f4xx_ll_usb.c **** 
  47:Drivers/STM32F4xx_HAL_Driver/Src/stm32f4xx_ll_usb.c **** #if defined (HAL_PCD_MODULE_ENABLED) || defined (HAL_HCD_MODULE_ENABLED)
  48:Drivers/STM32F4xx_HAL_Driver/Src/stm32f4xx_ll_usb.c **** #if defined (USB_OTG_FS) || defined (USB_OTG_HS)
  49:Drivers/STM32F4xx_HAL_Driver/Src/stm32f4xx_ll_usb.c **** /* Private typedef -----------------------------------------------------------*/
  50:Drivers/STM32F4xx_HAL_Driver/Src/stm32f4xx_ll_usb.c **** /* Private define ------------------------------------------------------------*/
  51:Drivers/STM32F4xx_HAL_Driver/Src/stm32f4xx_ll_usb.c **** /* Private macro -------------------------------------------------------------*/
  52:Drivers/STM32F4xx_HAL_Driver/Src/stm32f4xx_ll_usb.c **** /* Private variables ---------------------------------------------------------*/
  53:Drivers/STM32F4xx_HAL_Driver/Src/stm32f4xx_ll_usb.c **** /* Private function prototypes -----------------------------------------------*/
  54:Drivers/STM32F4xx_HAL_Driver/Src/stm32f4xx_ll_usb.c **** /* Private functions ---------------------------------------------------------*/
  55:Drivers/STM32F4xx_HAL_Driver/Src/stm32f4xx_ll_usb.c **** #if defined (USB_OTG_FS) || defined (USB_OTG_HS)
  56:Drivers/STM32F4xx_HAL_Driver/Src/stm32f4xx_ll_usb.c **** static HAL_StatusTypeDef USB_CoreReset(USB_OTG_GlobalTypeDef *USBx);
  57:Drivers/STM32F4xx_HAL_Driver/Src/stm32f4xx_ll_usb.c **** 
  58:Drivers/STM32F4xx_HAL_Driver/Src/stm32f4xx_ll_usb.c **** /* Exported functions --------------------------------------------------------*/
  59:Drivers/STM32F4xx_HAL_Driver/Src/stm32f4xx_ll_usb.c **** /** @defgroup USB_LL_Exported_Functions USB Low Layer Exported Functions
  60:Drivers/STM32F4xx_HAL_Driver/Src/stm32f4xx_ll_usb.c ****   * @{
  61:Drivers/STM32F4xx_HAL_Driver/Src/stm32f4xx_ll_usb.c ****   */
  62:Drivers/STM32F4xx_HAL_Driver/Src/stm32f4xx_ll_usb.c **** 
  63:Drivers/STM32F4xx_HAL_Driver/Src/stm32f4xx_ll_usb.c **** /** @defgroup USB_LL_Exported_Functions_Group1 Initialization/de-initialization functions
  64:Drivers/STM32F4xx_HAL_Driver/Src/stm32f4xx_ll_usb.c ****   *  @brief    Initialization and Configuration functions
  65:Drivers/STM32F4xx_HAL_Driver/Src/stm32f4xx_ll_usb.c ****   *
  66:Drivers/STM32F4xx_HAL_Driver/Src/stm32f4xx_ll_usb.c **** @verbatim
  67:Drivers/STM32F4xx_HAL_Driver/Src/stm32f4xx_ll_usb.c ****  ===============================================================================
  68:Drivers/STM32F4xx_HAL_Driver/Src/stm32f4xx_ll_usb.c ****                       ##### Initialization/de-initialization functions #####
  69:Drivers/STM32F4xx_HAL_Driver/Src/stm32f4xx_ll_usb.c ****  ===============================================================================
  70:Drivers/STM32F4xx_HAL_Driver/Src/stm32f4xx_ll_usb.c **** 
  71:Drivers/STM32F4xx_HAL_Driver/Src/stm32f4xx_ll_usb.c **** @endverbatim
  72:Drivers/STM32F4xx_HAL_Driver/Src/stm32f4xx_ll_usb.c ****   * @{
  73:Drivers/STM32F4xx_HAL_Driver/Src/stm32f4xx_ll_usb.c ****   */
  74:Drivers/STM32F4xx_HAL_Driver/Src/stm32f4xx_ll_usb.c **** 
  75:Drivers/STM32F4xx_HAL_Driver/Src/stm32f4xx_ll_usb.c **** /**
  76:Drivers/STM32F4xx_HAL_Driver/Src/stm32f4xx_ll_usb.c ****   * @brief  Initializes the USB Core
  77:Drivers/STM32F4xx_HAL_Driver/Src/stm32f4xx_ll_usb.c ****   * @param  USBx USB Instance
  78:Drivers/STM32F4xx_HAL_Driver/Src/stm32f4xx_ll_usb.c ****   * @param  cfg pointer to a USB_OTG_CfgTypeDef structure that contains
  79:Drivers/STM32F4xx_HAL_Driver/Src/stm32f4xx_ll_usb.c ****   *         the configuration information for the specified USBx peripheral.
  80:Drivers/STM32F4xx_HAL_Driver/Src/stm32f4xx_ll_usb.c ****   * @retval HAL status
  81:Drivers/STM32F4xx_HAL_Driver/Src/stm32f4xx_ll_usb.c ****   */
  82:Drivers/STM32F4xx_HAL_Driver/Src/stm32f4xx_ll_usb.c **** HAL_StatusTypeDef USB_CoreInit(USB_OTG_GlobalTypeDef *USBx, USB_OTG_CfgTypeDef cfg)
  83:Drivers/STM32F4xx_HAL_Driver/Src/stm32f4xx_ll_usb.c **** {
  84:Drivers/STM32F4xx_HAL_Driver/Src/stm32f4xx_ll_usb.c ****   HAL_StatusTypeDef ret;
  85:Drivers/STM32F4xx_HAL_Driver/Src/stm32f4xx_ll_usb.c **** 
  86:Drivers/STM32F4xx_HAL_Driver/Src/stm32f4xx_ll_usb.c ****   if (cfg.phy_itface == USB_OTG_ULPI_PHY)
ARM GAS  /tmp/ccDzXOxq.s 			page 3


  87:Drivers/STM32F4xx_HAL_Driver/Src/stm32f4xx_ll_usb.c ****   {
  88:Drivers/STM32F4xx_HAL_Driver/Src/stm32f4xx_ll_usb.c ****     USBx->GCCFG &= ~(USB_OTG_GCCFG_PWRDWN);
  89:Drivers/STM32F4xx_HAL_Driver/Src/stm32f4xx_ll_usb.c **** 
  90:Drivers/STM32F4xx_HAL_Driver/Src/stm32f4xx_ll_usb.c ****     /* Init The ULPI Interface */
  91:Drivers/STM32F4xx_HAL_Driver/Src/stm32f4xx_ll_usb.c ****     USBx->GUSBCFG &= ~(USB_OTG_GUSBCFG_TSDPS | USB_OTG_GUSBCFG_ULPIFSLS | USB_OTG_GUSBCFG_PHYSEL);
  92:Drivers/STM32F4xx_HAL_Driver/Src/stm32f4xx_ll_usb.c **** 
  93:Drivers/STM32F4xx_HAL_Driver/Src/stm32f4xx_ll_usb.c ****     /* Select vbus source */
  94:Drivers/STM32F4xx_HAL_Driver/Src/stm32f4xx_ll_usb.c ****     USBx->GUSBCFG &= ~(USB_OTG_GUSBCFG_ULPIEVBUSD | USB_OTG_GUSBCFG_ULPIEVBUSI);
  95:Drivers/STM32F4xx_HAL_Driver/Src/stm32f4xx_ll_usb.c ****     if (cfg.use_external_vbus == 1U)
  96:Drivers/STM32F4xx_HAL_Driver/Src/stm32f4xx_ll_usb.c ****     {
  97:Drivers/STM32F4xx_HAL_Driver/Src/stm32f4xx_ll_usb.c ****       USBx->GUSBCFG |= USB_OTG_GUSBCFG_ULPIEVBUSD;
  98:Drivers/STM32F4xx_HAL_Driver/Src/stm32f4xx_ll_usb.c ****     }
  99:Drivers/STM32F4xx_HAL_Driver/Src/stm32f4xx_ll_usb.c ****     /* Reset after a PHY select  */
 100:Drivers/STM32F4xx_HAL_Driver/Src/stm32f4xx_ll_usb.c ****     ret = USB_CoreReset(USBx);
 101:Drivers/STM32F4xx_HAL_Driver/Src/stm32f4xx_ll_usb.c ****   }
 102:Drivers/STM32F4xx_HAL_Driver/Src/stm32f4xx_ll_usb.c ****   else /* FS interface (embedded Phy) */
 103:Drivers/STM32F4xx_HAL_Driver/Src/stm32f4xx_ll_usb.c ****   {
 104:Drivers/STM32F4xx_HAL_Driver/Src/stm32f4xx_ll_usb.c ****     /* Select FS Embedded PHY */
 105:Drivers/STM32F4xx_HAL_Driver/Src/stm32f4xx_ll_usb.c ****     USBx->GUSBCFG |= USB_OTG_GUSBCFG_PHYSEL;
 106:Drivers/STM32F4xx_HAL_Driver/Src/stm32f4xx_ll_usb.c **** 
 107:Drivers/STM32F4xx_HAL_Driver/Src/stm32f4xx_ll_usb.c ****     /* Reset after a PHY select */
 108:Drivers/STM32F4xx_HAL_Driver/Src/stm32f4xx_ll_usb.c ****     ret = USB_CoreReset(USBx);
 109:Drivers/STM32F4xx_HAL_Driver/Src/stm32f4xx_ll_usb.c **** 
 110:Drivers/STM32F4xx_HAL_Driver/Src/stm32f4xx_ll_usb.c ****     if (cfg.battery_charging_enable == 0U)
 111:Drivers/STM32F4xx_HAL_Driver/Src/stm32f4xx_ll_usb.c ****     {
 112:Drivers/STM32F4xx_HAL_Driver/Src/stm32f4xx_ll_usb.c ****       /* Activate the USB Transceiver */
 113:Drivers/STM32F4xx_HAL_Driver/Src/stm32f4xx_ll_usb.c ****       USBx->GCCFG |= USB_OTG_GCCFG_PWRDWN;
 114:Drivers/STM32F4xx_HAL_Driver/Src/stm32f4xx_ll_usb.c ****     }
 115:Drivers/STM32F4xx_HAL_Driver/Src/stm32f4xx_ll_usb.c ****     else
 116:Drivers/STM32F4xx_HAL_Driver/Src/stm32f4xx_ll_usb.c ****     {
 117:Drivers/STM32F4xx_HAL_Driver/Src/stm32f4xx_ll_usb.c ****       /* Deactivate the USB Transceiver */
 118:Drivers/STM32F4xx_HAL_Driver/Src/stm32f4xx_ll_usb.c ****       USBx->GCCFG &= ~(USB_OTG_GCCFG_PWRDWN);
 119:Drivers/STM32F4xx_HAL_Driver/Src/stm32f4xx_ll_usb.c ****     }
 120:Drivers/STM32F4xx_HAL_Driver/Src/stm32f4xx_ll_usb.c ****   }
 121:Drivers/STM32F4xx_HAL_Driver/Src/stm32f4xx_ll_usb.c **** 
 122:Drivers/STM32F4xx_HAL_Driver/Src/stm32f4xx_ll_usb.c ****   if (cfg.dma_enable == 1U)
 123:Drivers/STM32F4xx_HAL_Driver/Src/stm32f4xx_ll_usb.c ****   {
 124:Drivers/STM32F4xx_HAL_Driver/Src/stm32f4xx_ll_usb.c ****     USBx->GAHBCFG |= USB_OTG_GAHBCFG_HBSTLEN_2;
 125:Drivers/STM32F4xx_HAL_Driver/Src/stm32f4xx_ll_usb.c ****     USBx->GAHBCFG |= USB_OTG_GAHBCFG_DMAEN;
 126:Drivers/STM32F4xx_HAL_Driver/Src/stm32f4xx_ll_usb.c ****   }
 127:Drivers/STM32F4xx_HAL_Driver/Src/stm32f4xx_ll_usb.c **** 
 128:Drivers/STM32F4xx_HAL_Driver/Src/stm32f4xx_ll_usb.c ****   return ret;
 129:Drivers/STM32F4xx_HAL_Driver/Src/stm32f4xx_ll_usb.c **** }
 130:Drivers/STM32F4xx_HAL_Driver/Src/stm32f4xx_ll_usb.c **** 
 131:Drivers/STM32F4xx_HAL_Driver/Src/stm32f4xx_ll_usb.c **** 
 132:Drivers/STM32F4xx_HAL_Driver/Src/stm32f4xx_ll_usb.c **** /**
 133:Drivers/STM32F4xx_HAL_Driver/Src/stm32f4xx_ll_usb.c ****   * @brief  Set the USB turnaround time
 134:Drivers/STM32F4xx_HAL_Driver/Src/stm32f4xx_ll_usb.c ****   * @param  USBx USB Instance
 135:Drivers/STM32F4xx_HAL_Driver/Src/stm32f4xx_ll_usb.c ****   * @param  hclk: AHB clock frequency
 136:Drivers/STM32F4xx_HAL_Driver/Src/stm32f4xx_ll_usb.c ****   * @retval USB turnaround time In PHY Clocks number
 137:Drivers/STM32F4xx_HAL_Driver/Src/stm32f4xx_ll_usb.c ****   */
 138:Drivers/STM32F4xx_HAL_Driver/Src/stm32f4xx_ll_usb.c **** HAL_StatusTypeDef USB_SetTurnaroundTime(USB_OTG_GlobalTypeDef *USBx,
 139:Drivers/STM32F4xx_HAL_Driver/Src/stm32f4xx_ll_usb.c ****                                         uint32_t hclk, uint8_t speed)
 140:Drivers/STM32F4xx_HAL_Driver/Src/stm32f4xx_ll_usb.c **** {
 141:Drivers/STM32F4xx_HAL_Driver/Src/stm32f4xx_ll_usb.c ****   uint32_t UsbTrd;
 142:Drivers/STM32F4xx_HAL_Driver/Src/stm32f4xx_ll_usb.c **** 
 143:Drivers/STM32F4xx_HAL_Driver/Src/stm32f4xx_ll_usb.c ****   /* The USBTRD is configured according to the tables below, depending on AHB frequency
ARM GAS  /tmp/ccDzXOxq.s 			page 4


 144:Drivers/STM32F4xx_HAL_Driver/Src/stm32f4xx_ll_usb.c ****   used by application. In the low AHB frequency range it is used to stretch enough the USB response
 145:Drivers/STM32F4xx_HAL_Driver/Src/stm32f4xx_ll_usb.c ****   time to IN tokens, the USB turnaround time, so to compensate for the longer AHB read access
 146:Drivers/STM32F4xx_HAL_Driver/Src/stm32f4xx_ll_usb.c ****   latency to the Data FIFO */
 147:Drivers/STM32F4xx_HAL_Driver/Src/stm32f4xx_ll_usb.c ****   if (speed == USBD_FS_SPEED)
 148:Drivers/STM32F4xx_HAL_Driver/Src/stm32f4xx_ll_usb.c ****   {
 149:Drivers/STM32F4xx_HAL_Driver/Src/stm32f4xx_ll_usb.c ****     if ((hclk >= 14200000U) && (hclk < 15000000U))
 150:Drivers/STM32F4xx_HAL_Driver/Src/stm32f4xx_ll_usb.c ****     {
 151:Drivers/STM32F4xx_HAL_Driver/Src/stm32f4xx_ll_usb.c ****       /* hclk Clock Range between 14.2-15 MHz */
 152:Drivers/STM32F4xx_HAL_Driver/Src/stm32f4xx_ll_usb.c ****       UsbTrd = 0xFU;
 153:Drivers/STM32F4xx_HAL_Driver/Src/stm32f4xx_ll_usb.c ****     }
 154:Drivers/STM32F4xx_HAL_Driver/Src/stm32f4xx_ll_usb.c ****     else if ((hclk >= 15000000U) && (hclk < 16000000U))
 155:Drivers/STM32F4xx_HAL_Driver/Src/stm32f4xx_ll_usb.c ****     {
 156:Drivers/STM32F4xx_HAL_Driver/Src/stm32f4xx_ll_usb.c ****       /* hclk Clock Range between 15-16 MHz */
 157:Drivers/STM32F4xx_HAL_Driver/Src/stm32f4xx_ll_usb.c ****       UsbTrd = 0xEU;
 158:Drivers/STM32F4xx_HAL_Driver/Src/stm32f4xx_ll_usb.c ****     }
 159:Drivers/STM32F4xx_HAL_Driver/Src/stm32f4xx_ll_usb.c ****     else if ((hclk >= 16000000U) && (hclk < 17200000U))
 160:Drivers/STM32F4xx_HAL_Driver/Src/stm32f4xx_ll_usb.c ****     {
 161:Drivers/STM32F4xx_HAL_Driver/Src/stm32f4xx_ll_usb.c ****       /* hclk Clock Range between 16-17.2 MHz */
 162:Drivers/STM32F4xx_HAL_Driver/Src/stm32f4xx_ll_usb.c ****       UsbTrd = 0xDU;
 163:Drivers/STM32F4xx_HAL_Driver/Src/stm32f4xx_ll_usb.c ****     }
 164:Drivers/STM32F4xx_HAL_Driver/Src/stm32f4xx_ll_usb.c ****     else if ((hclk >= 17200000U) && (hclk < 18500000U))
 165:Drivers/STM32F4xx_HAL_Driver/Src/stm32f4xx_ll_usb.c ****     {
 166:Drivers/STM32F4xx_HAL_Driver/Src/stm32f4xx_ll_usb.c ****       /* hclk Clock Range between 17.2-18.5 MHz */
 167:Drivers/STM32F4xx_HAL_Driver/Src/stm32f4xx_ll_usb.c ****       UsbTrd = 0xCU;
 168:Drivers/STM32F4xx_HAL_Driver/Src/stm32f4xx_ll_usb.c ****     }
 169:Drivers/STM32F4xx_HAL_Driver/Src/stm32f4xx_ll_usb.c ****     else if ((hclk >= 18500000U) && (hclk < 20000000U))
 170:Drivers/STM32F4xx_HAL_Driver/Src/stm32f4xx_ll_usb.c ****     {
 171:Drivers/STM32F4xx_HAL_Driver/Src/stm32f4xx_ll_usb.c ****       /* hclk Clock Range between 18.5-20 MHz */
 172:Drivers/STM32F4xx_HAL_Driver/Src/stm32f4xx_ll_usb.c ****       UsbTrd = 0xBU;
 173:Drivers/STM32F4xx_HAL_Driver/Src/stm32f4xx_ll_usb.c ****     }
 174:Drivers/STM32F4xx_HAL_Driver/Src/stm32f4xx_ll_usb.c ****     else if ((hclk >= 20000000U) && (hclk < 21800000U))
 175:Drivers/STM32F4xx_HAL_Driver/Src/stm32f4xx_ll_usb.c ****     {
 176:Drivers/STM32F4xx_HAL_Driver/Src/stm32f4xx_ll_usb.c ****       /* hclk Clock Range between 20-21.8 MHz */
 177:Drivers/STM32F4xx_HAL_Driver/Src/stm32f4xx_ll_usb.c ****       UsbTrd = 0xAU;
 178:Drivers/STM32F4xx_HAL_Driver/Src/stm32f4xx_ll_usb.c ****     }
 179:Drivers/STM32F4xx_HAL_Driver/Src/stm32f4xx_ll_usb.c ****     else if ((hclk >= 21800000U) && (hclk < 24000000U))
 180:Drivers/STM32F4xx_HAL_Driver/Src/stm32f4xx_ll_usb.c ****     {
 181:Drivers/STM32F4xx_HAL_Driver/Src/stm32f4xx_ll_usb.c ****       /* hclk Clock Range between 21.8-24 MHz */
 182:Drivers/STM32F4xx_HAL_Driver/Src/stm32f4xx_ll_usb.c ****       UsbTrd = 0x9U;
 183:Drivers/STM32F4xx_HAL_Driver/Src/stm32f4xx_ll_usb.c ****     }
 184:Drivers/STM32F4xx_HAL_Driver/Src/stm32f4xx_ll_usb.c ****     else if ((hclk >= 24000000U) && (hclk < 27700000U))
 185:Drivers/STM32F4xx_HAL_Driver/Src/stm32f4xx_ll_usb.c ****     {
 186:Drivers/STM32F4xx_HAL_Driver/Src/stm32f4xx_ll_usb.c ****       /* hclk Clock Range between 24-27.7 MHz */
 187:Drivers/STM32F4xx_HAL_Driver/Src/stm32f4xx_ll_usb.c ****       UsbTrd = 0x8U;
 188:Drivers/STM32F4xx_HAL_Driver/Src/stm32f4xx_ll_usb.c ****     }
 189:Drivers/STM32F4xx_HAL_Driver/Src/stm32f4xx_ll_usb.c ****     else if ((hclk >= 27700000U) && (hclk < 32000000U))
 190:Drivers/STM32F4xx_HAL_Driver/Src/stm32f4xx_ll_usb.c ****     {
 191:Drivers/STM32F4xx_HAL_Driver/Src/stm32f4xx_ll_usb.c ****       /* hclk Clock Range between 27.7-32 MHz */
 192:Drivers/STM32F4xx_HAL_Driver/Src/stm32f4xx_ll_usb.c ****       UsbTrd = 0x7U;
 193:Drivers/STM32F4xx_HAL_Driver/Src/stm32f4xx_ll_usb.c ****     }
 194:Drivers/STM32F4xx_HAL_Driver/Src/stm32f4xx_ll_usb.c ****     else /* if(hclk >= 32000000) */
 195:Drivers/STM32F4xx_HAL_Driver/Src/stm32f4xx_ll_usb.c ****     {
 196:Drivers/STM32F4xx_HAL_Driver/Src/stm32f4xx_ll_usb.c ****       /* hclk Clock Range between 32-200 MHz */
 197:Drivers/STM32F4xx_HAL_Driver/Src/stm32f4xx_ll_usb.c ****       UsbTrd = 0x6U;
 198:Drivers/STM32F4xx_HAL_Driver/Src/stm32f4xx_ll_usb.c ****     }
 199:Drivers/STM32F4xx_HAL_Driver/Src/stm32f4xx_ll_usb.c ****   }
 200:Drivers/STM32F4xx_HAL_Driver/Src/stm32f4xx_ll_usb.c ****   else if (speed == USBD_HS_SPEED)
ARM GAS  /tmp/ccDzXOxq.s 			page 5


 201:Drivers/STM32F4xx_HAL_Driver/Src/stm32f4xx_ll_usb.c ****   {
 202:Drivers/STM32F4xx_HAL_Driver/Src/stm32f4xx_ll_usb.c ****     UsbTrd = USBD_HS_TRDT_VALUE;
 203:Drivers/STM32F4xx_HAL_Driver/Src/stm32f4xx_ll_usb.c ****   }
 204:Drivers/STM32F4xx_HAL_Driver/Src/stm32f4xx_ll_usb.c ****   else
 205:Drivers/STM32F4xx_HAL_Driver/Src/stm32f4xx_ll_usb.c ****   {
 206:Drivers/STM32F4xx_HAL_Driver/Src/stm32f4xx_ll_usb.c ****     UsbTrd = USBD_DEFAULT_TRDT_VALUE;
 207:Drivers/STM32F4xx_HAL_Driver/Src/stm32f4xx_ll_usb.c ****   }
 208:Drivers/STM32F4xx_HAL_Driver/Src/stm32f4xx_ll_usb.c **** 
 209:Drivers/STM32F4xx_HAL_Driver/Src/stm32f4xx_ll_usb.c ****   USBx->GUSBCFG &= ~USB_OTG_GUSBCFG_TRDT;
 210:Drivers/STM32F4xx_HAL_Driver/Src/stm32f4xx_ll_usb.c ****   USBx->GUSBCFG |= (uint32_t)((UsbTrd << 10) & USB_OTG_GUSBCFG_TRDT);
 211:Drivers/STM32F4xx_HAL_Driver/Src/stm32f4xx_ll_usb.c **** 
 212:Drivers/STM32F4xx_HAL_Driver/Src/stm32f4xx_ll_usb.c ****   return HAL_OK;
 213:Drivers/STM32F4xx_HAL_Driver/Src/stm32f4xx_ll_usb.c **** }
 214:Drivers/STM32F4xx_HAL_Driver/Src/stm32f4xx_ll_usb.c **** 
 215:Drivers/STM32F4xx_HAL_Driver/Src/stm32f4xx_ll_usb.c **** /**
 216:Drivers/STM32F4xx_HAL_Driver/Src/stm32f4xx_ll_usb.c ****   * @brief  USB_EnableGlobalInt
 217:Drivers/STM32F4xx_HAL_Driver/Src/stm32f4xx_ll_usb.c ****   *         Enables the controller's Global Int in the AHB Config reg
 218:Drivers/STM32F4xx_HAL_Driver/Src/stm32f4xx_ll_usb.c ****   * @param  USBx  Selected device
 219:Drivers/STM32F4xx_HAL_Driver/Src/stm32f4xx_ll_usb.c ****   * @retval HAL status
 220:Drivers/STM32F4xx_HAL_Driver/Src/stm32f4xx_ll_usb.c ****   */
 221:Drivers/STM32F4xx_HAL_Driver/Src/stm32f4xx_ll_usb.c **** HAL_StatusTypeDef USB_EnableGlobalInt(USB_OTG_GlobalTypeDef *USBx)
 222:Drivers/STM32F4xx_HAL_Driver/Src/stm32f4xx_ll_usb.c **** {
 223:Drivers/STM32F4xx_HAL_Driver/Src/stm32f4xx_ll_usb.c ****   USBx->GAHBCFG |= USB_OTG_GAHBCFG_GINT;
 224:Drivers/STM32F4xx_HAL_Driver/Src/stm32f4xx_ll_usb.c ****   return HAL_OK;
 225:Drivers/STM32F4xx_HAL_Driver/Src/stm32f4xx_ll_usb.c **** }
 226:Drivers/STM32F4xx_HAL_Driver/Src/stm32f4xx_ll_usb.c **** 
 227:Drivers/STM32F4xx_HAL_Driver/Src/stm32f4xx_ll_usb.c **** /**
 228:Drivers/STM32F4xx_HAL_Driver/Src/stm32f4xx_ll_usb.c ****   * @brief  USB_DisableGlobalInt
 229:Drivers/STM32F4xx_HAL_Driver/Src/stm32f4xx_ll_usb.c ****   *         Disable the controller's Global Int in the AHB Config reg
 230:Drivers/STM32F4xx_HAL_Driver/Src/stm32f4xx_ll_usb.c ****   * @param  USBx  Selected device
 231:Drivers/STM32F4xx_HAL_Driver/Src/stm32f4xx_ll_usb.c ****   * @retval HAL status
 232:Drivers/STM32F4xx_HAL_Driver/Src/stm32f4xx_ll_usb.c ****   */
 233:Drivers/STM32F4xx_HAL_Driver/Src/stm32f4xx_ll_usb.c **** HAL_StatusTypeDef USB_DisableGlobalInt(USB_OTG_GlobalTypeDef *USBx)
 234:Drivers/STM32F4xx_HAL_Driver/Src/stm32f4xx_ll_usb.c **** {
 235:Drivers/STM32F4xx_HAL_Driver/Src/stm32f4xx_ll_usb.c ****   USBx->GAHBCFG &= ~USB_OTG_GAHBCFG_GINT;
 236:Drivers/STM32F4xx_HAL_Driver/Src/stm32f4xx_ll_usb.c ****   return HAL_OK;
 237:Drivers/STM32F4xx_HAL_Driver/Src/stm32f4xx_ll_usb.c **** }
 238:Drivers/STM32F4xx_HAL_Driver/Src/stm32f4xx_ll_usb.c **** 
 239:Drivers/STM32F4xx_HAL_Driver/Src/stm32f4xx_ll_usb.c **** /**
 240:Drivers/STM32F4xx_HAL_Driver/Src/stm32f4xx_ll_usb.c ****   * @brief  USB_SetCurrentMode Set functional mode
 241:Drivers/STM32F4xx_HAL_Driver/Src/stm32f4xx_ll_usb.c ****   * @param  USBx  Selected device
 242:Drivers/STM32F4xx_HAL_Driver/Src/stm32f4xx_ll_usb.c ****   * @param  mode  current core mode
 243:Drivers/STM32F4xx_HAL_Driver/Src/stm32f4xx_ll_usb.c ****   *          This parameter can be one of these values:
 244:Drivers/STM32F4xx_HAL_Driver/Src/stm32f4xx_ll_usb.c ****   *            @arg USB_DEVICE_MODE Peripheral mode
 245:Drivers/STM32F4xx_HAL_Driver/Src/stm32f4xx_ll_usb.c ****   *            @arg USB_HOST_MODE Host mode
 246:Drivers/STM32F4xx_HAL_Driver/Src/stm32f4xx_ll_usb.c ****   * @retval HAL status
 247:Drivers/STM32F4xx_HAL_Driver/Src/stm32f4xx_ll_usb.c ****   */
 248:Drivers/STM32F4xx_HAL_Driver/Src/stm32f4xx_ll_usb.c **** HAL_StatusTypeDef USB_SetCurrentMode(USB_OTG_GlobalTypeDef *USBx, USB_OTG_ModeTypeDef mode)
 249:Drivers/STM32F4xx_HAL_Driver/Src/stm32f4xx_ll_usb.c **** {
 250:Drivers/STM32F4xx_HAL_Driver/Src/stm32f4xx_ll_usb.c ****   USBx->GUSBCFG &= ~(USB_OTG_GUSBCFG_FHMOD | USB_OTG_GUSBCFG_FDMOD);
 251:Drivers/STM32F4xx_HAL_Driver/Src/stm32f4xx_ll_usb.c **** 
 252:Drivers/STM32F4xx_HAL_Driver/Src/stm32f4xx_ll_usb.c ****   if (mode == USB_HOST_MODE)
 253:Drivers/STM32F4xx_HAL_Driver/Src/stm32f4xx_ll_usb.c ****   {
 254:Drivers/STM32F4xx_HAL_Driver/Src/stm32f4xx_ll_usb.c ****     USBx->GUSBCFG |= USB_OTG_GUSBCFG_FHMOD;
 255:Drivers/STM32F4xx_HAL_Driver/Src/stm32f4xx_ll_usb.c ****   }
 256:Drivers/STM32F4xx_HAL_Driver/Src/stm32f4xx_ll_usb.c ****   else if (mode == USB_DEVICE_MODE)
 257:Drivers/STM32F4xx_HAL_Driver/Src/stm32f4xx_ll_usb.c ****   {
ARM GAS  /tmp/ccDzXOxq.s 			page 6


 258:Drivers/STM32F4xx_HAL_Driver/Src/stm32f4xx_ll_usb.c ****     USBx->GUSBCFG |= USB_OTG_GUSBCFG_FDMOD;
 259:Drivers/STM32F4xx_HAL_Driver/Src/stm32f4xx_ll_usb.c ****   }
 260:Drivers/STM32F4xx_HAL_Driver/Src/stm32f4xx_ll_usb.c ****   else
 261:Drivers/STM32F4xx_HAL_Driver/Src/stm32f4xx_ll_usb.c ****   {
 262:Drivers/STM32F4xx_HAL_Driver/Src/stm32f4xx_ll_usb.c ****     return HAL_ERROR;
 263:Drivers/STM32F4xx_HAL_Driver/Src/stm32f4xx_ll_usb.c ****   }
 264:Drivers/STM32F4xx_HAL_Driver/Src/stm32f4xx_ll_usb.c ****   HAL_Delay(50U);
 265:Drivers/STM32F4xx_HAL_Driver/Src/stm32f4xx_ll_usb.c **** 
 266:Drivers/STM32F4xx_HAL_Driver/Src/stm32f4xx_ll_usb.c ****   return HAL_OK;
 267:Drivers/STM32F4xx_HAL_Driver/Src/stm32f4xx_ll_usb.c **** }
 268:Drivers/STM32F4xx_HAL_Driver/Src/stm32f4xx_ll_usb.c **** 
 269:Drivers/STM32F4xx_HAL_Driver/Src/stm32f4xx_ll_usb.c **** /**
 270:Drivers/STM32F4xx_HAL_Driver/Src/stm32f4xx_ll_usb.c ****   * @brief  USB_DevInit Initializes the USB_OTG controller registers
 271:Drivers/STM32F4xx_HAL_Driver/Src/stm32f4xx_ll_usb.c ****   *         for device mode
 272:Drivers/STM32F4xx_HAL_Driver/Src/stm32f4xx_ll_usb.c ****   * @param  USBx  Selected device
 273:Drivers/STM32F4xx_HAL_Driver/Src/stm32f4xx_ll_usb.c ****   * @param  cfg   pointer to a USB_OTG_CfgTypeDef structure that contains
 274:Drivers/STM32F4xx_HAL_Driver/Src/stm32f4xx_ll_usb.c ****   *         the configuration information for the specified USBx peripheral.
 275:Drivers/STM32F4xx_HAL_Driver/Src/stm32f4xx_ll_usb.c ****   * @retval HAL status
 276:Drivers/STM32F4xx_HAL_Driver/Src/stm32f4xx_ll_usb.c ****   */
 277:Drivers/STM32F4xx_HAL_Driver/Src/stm32f4xx_ll_usb.c **** HAL_StatusTypeDef USB_DevInit(USB_OTG_GlobalTypeDef *USBx, USB_OTG_CfgTypeDef cfg)
 278:Drivers/STM32F4xx_HAL_Driver/Src/stm32f4xx_ll_usb.c **** {
 279:Drivers/STM32F4xx_HAL_Driver/Src/stm32f4xx_ll_usb.c ****   HAL_StatusTypeDef ret = HAL_OK;
 280:Drivers/STM32F4xx_HAL_Driver/Src/stm32f4xx_ll_usb.c ****   uint32_t USBx_BASE = (uint32_t)USBx;
 281:Drivers/STM32F4xx_HAL_Driver/Src/stm32f4xx_ll_usb.c ****   uint32_t i;
 282:Drivers/STM32F4xx_HAL_Driver/Src/stm32f4xx_ll_usb.c **** 
 283:Drivers/STM32F4xx_HAL_Driver/Src/stm32f4xx_ll_usb.c ****   for (i = 0U; i < 15U; i++)
 284:Drivers/STM32F4xx_HAL_Driver/Src/stm32f4xx_ll_usb.c ****   {
 285:Drivers/STM32F4xx_HAL_Driver/Src/stm32f4xx_ll_usb.c ****     USBx->DIEPTXF[i] = 0U;
 286:Drivers/STM32F4xx_HAL_Driver/Src/stm32f4xx_ll_usb.c ****   }
 287:Drivers/STM32F4xx_HAL_Driver/Src/stm32f4xx_ll_usb.c **** 
 288:Drivers/STM32F4xx_HAL_Driver/Src/stm32f4xx_ll_usb.c **** #if defined(STM32F446xx) || defined(STM32F469xx) || defined(STM32F479xx) || defined(STM32F412Zx) ||
 289:Drivers/STM32F4xx_HAL_Driver/Src/stm32f4xx_ll_usb.c ****   /* VBUS Sensing setup */
 290:Drivers/STM32F4xx_HAL_Driver/Src/stm32f4xx_ll_usb.c ****   if (cfg.vbus_sensing_enable == 0U)
 291:Drivers/STM32F4xx_HAL_Driver/Src/stm32f4xx_ll_usb.c ****   {
 292:Drivers/STM32F4xx_HAL_Driver/Src/stm32f4xx_ll_usb.c ****     USBx_DEVICE->DCTL |= USB_OTG_DCTL_SDIS;
 293:Drivers/STM32F4xx_HAL_Driver/Src/stm32f4xx_ll_usb.c **** 
 294:Drivers/STM32F4xx_HAL_Driver/Src/stm32f4xx_ll_usb.c ****     /* Deactivate VBUS Sensing B */
 295:Drivers/STM32F4xx_HAL_Driver/Src/stm32f4xx_ll_usb.c ****     USBx->GCCFG &= ~USB_OTG_GCCFG_VBDEN;
 296:Drivers/STM32F4xx_HAL_Driver/Src/stm32f4xx_ll_usb.c **** 
 297:Drivers/STM32F4xx_HAL_Driver/Src/stm32f4xx_ll_usb.c ****     /* B-peripheral session valid override enable */
 298:Drivers/STM32F4xx_HAL_Driver/Src/stm32f4xx_ll_usb.c ****     USBx->GOTGCTL |= USB_OTG_GOTGCTL_BVALOEN;
 299:Drivers/STM32F4xx_HAL_Driver/Src/stm32f4xx_ll_usb.c ****     USBx->GOTGCTL |= USB_OTG_GOTGCTL_BVALOVAL;
 300:Drivers/STM32F4xx_HAL_Driver/Src/stm32f4xx_ll_usb.c ****   }
 301:Drivers/STM32F4xx_HAL_Driver/Src/stm32f4xx_ll_usb.c ****   else
 302:Drivers/STM32F4xx_HAL_Driver/Src/stm32f4xx_ll_usb.c ****   {
 303:Drivers/STM32F4xx_HAL_Driver/Src/stm32f4xx_ll_usb.c ****     /* Enable HW VBUS sensing */
 304:Drivers/STM32F4xx_HAL_Driver/Src/stm32f4xx_ll_usb.c ****     USBx->GCCFG |= USB_OTG_GCCFG_VBDEN;
 305:Drivers/STM32F4xx_HAL_Driver/Src/stm32f4xx_ll_usb.c ****   }
 306:Drivers/STM32F4xx_HAL_Driver/Src/stm32f4xx_ll_usb.c **** #else
 307:Drivers/STM32F4xx_HAL_Driver/Src/stm32f4xx_ll_usb.c ****   /* VBUS Sensing setup */
 308:Drivers/STM32F4xx_HAL_Driver/Src/stm32f4xx_ll_usb.c ****   if (cfg.vbus_sensing_enable == 0U)
 309:Drivers/STM32F4xx_HAL_Driver/Src/stm32f4xx_ll_usb.c ****   {
 310:Drivers/STM32F4xx_HAL_Driver/Src/stm32f4xx_ll_usb.c ****     /*
 311:Drivers/STM32F4xx_HAL_Driver/Src/stm32f4xx_ll_usb.c ****      * Disable HW VBUS sensing. VBUS is internally considered to be always
 312:Drivers/STM32F4xx_HAL_Driver/Src/stm32f4xx_ll_usb.c ****      * at VBUS-Valid level (5V).
 313:Drivers/STM32F4xx_HAL_Driver/Src/stm32f4xx_ll_usb.c ****      */
 314:Drivers/STM32F4xx_HAL_Driver/Src/stm32f4xx_ll_usb.c ****     USBx_DEVICE->DCTL |= USB_OTG_DCTL_SDIS;
ARM GAS  /tmp/ccDzXOxq.s 			page 7


 315:Drivers/STM32F4xx_HAL_Driver/Src/stm32f4xx_ll_usb.c ****     USBx->GCCFG |= USB_OTG_GCCFG_NOVBUSSENS;
 316:Drivers/STM32F4xx_HAL_Driver/Src/stm32f4xx_ll_usb.c ****     USBx->GCCFG &= ~USB_OTG_GCCFG_VBUSBSEN;
 317:Drivers/STM32F4xx_HAL_Driver/Src/stm32f4xx_ll_usb.c ****     USBx->GCCFG &= ~USB_OTG_GCCFG_VBUSASEN;
 318:Drivers/STM32F4xx_HAL_Driver/Src/stm32f4xx_ll_usb.c ****   }
 319:Drivers/STM32F4xx_HAL_Driver/Src/stm32f4xx_ll_usb.c ****   else
 320:Drivers/STM32F4xx_HAL_Driver/Src/stm32f4xx_ll_usb.c ****   {
 321:Drivers/STM32F4xx_HAL_Driver/Src/stm32f4xx_ll_usb.c ****     /* Enable HW VBUS sensing */
 322:Drivers/STM32F4xx_HAL_Driver/Src/stm32f4xx_ll_usb.c ****     USBx->GCCFG &= ~USB_OTG_GCCFG_NOVBUSSENS;
 323:Drivers/STM32F4xx_HAL_Driver/Src/stm32f4xx_ll_usb.c ****     USBx->GCCFG |= USB_OTG_GCCFG_VBUSBSEN;
 324:Drivers/STM32F4xx_HAL_Driver/Src/stm32f4xx_ll_usb.c ****   }
 325:Drivers/STM32F4xx_HAL_Driver/Src/stm32f4xx_ll_usb.c **** #endif /* defined(STM32F446xx) || defined(STM32F469xx) || defined(STM32F479xx) || defined(STM32F412
 326:Drivers/STM32F4xx_HAL_Driver/Src/stm32f4xx_ll_usb.c **** 
 327:Drivers/STM32F4xx_HAL_Driver/Src/stm32f4xx_ll_usb.c ****   /* Restart the Phy Clock */
 328:Drivers/STM32F4xx_HAL_Driver/Src/stm32f4xx_ll_usb.c ****   USBx_PCGCCTL = 0U;
 329:Drivers/STM32F4xx_HAL_Driver/Src/stm32f4xx_ll_usb.c **** 
 330:Drivers/STM32F4xx_HAL_Driver/Src/stm32f4xx_ll_usb.c ****   /* Device mode configuration */
 331:Drivers/STM32F4xx_HAL_Driver/Src/stm32f4xx_ll_usb.c ****   USBx_DEVICE->DCFG |= DCFG_FRAME_INTERVAL_80;
 332:Drivers/STM32F4xx_HAL_Driver/Src/stm32f4xx_ll_usb.c **** 
 333:Drivers/STM32F4xx_HAL_Driver/Src/stm32f4xx_ll_usb.c ****   if (cfg.phy_itface == USB_OTG_ULPI_PHY)
 334:Drivers/STM32F4xx_HAL_Driver/Src/stm32f4xx_ll_usb.c ****   {
 335:Drivers/STM32F4xx_HAL_Driver/Src/stm32f4xx_ll_usb.c ****     if (cfg.speed == USBD_HS_SPEED)
 336:Drivers/STM32F4xx_HAL_Driver/Src/stm32f4xx_ll_usb.c ****     {
 337:Drivers/STM32F4xx_HAL_Driver/Src/stm32f4xx_ll_usb.c ****       /* Set Core speed to High speed mode */
 338:Drivers/STM32F4xx_HAL_Driver/Src/stm32f4xx_ll_usb.c ****       (void)USB_SetDevSpeed(USBx, USB_OTG_SPEED_HIGH);
 339:Drivers/STM32F4xx_HAL_Driver/Src/stm32f4xx_ll_usb.c ****     }
 340:Drivers/STM32F4xx_HAL_Driver/Src/stm32f4xx_ll_usb.c ****     else
 341:Drivers/STM32F4xx_HAL_Driver/Src/stm32f4xx_ll_usb.c ****     {
 342:Drivers/STM32F4xx_HAL_Driver/Src/stm32f4xx_ll_usb.c ****       /* Set Core speed to Full speed mode */
 343:Drivers/STM32F4xx_HAL_Driver/Src/stm32f4xx_ll_usb.c ****       (void)USB_SetDevSpeed(USBx, USB_OTG_SPEED_HIGH_IN_FULL);
 344:Drivers/STM32F4xx_HAL_Driver/Src/stm32f4xx_ll_usb.c ****     }
 345:Drivers/STM32F4xx_HAL_Driver/Src/stm32f4xx_ll_usb.c ****   }
 346:Drivers/STM32F4xx_HAL_Driver/Src/stm32f4xx_ll_usb.c ****   else
 347:Drivers/STM32F4xx_HAL_Driver/Src/stm32f4xx_ll_usb.c ****   {
 348:Drivers/STM32F4xx_HAL_Driver/Src/stm32f4xx_ll_usb.c ****     /* Set Core speed to Full speed mode */
 349:Drivers/STM32F4xx_HAL_Driver/Src/stm32f4xx_ll_usb.c ****     (void)USB_SetDevSpeed(USBx, USB_OTG_SPEED_FULL);
 350:Drivers/STM32F4xx_HAL_Driver/Src/stm32f4xx_ll_usb.c ****   }
 351:Drivers/STM32F4xx_HAL_Driver/Src/stm32f4xx_ll_usb.c **** 
 352:Drivers/STM32F4xx_HAL_Driver/Src/stm32f4xx_ll_usb.c ****   /* Flush the FIFOs */
 353:Drivers/STM32F4xx_HAL_Driver/Src/stm32f4xx_ll_usb.c ****   if (USB_FlushTxFifo(USBx, 0x10U) != HAL_OK) /* all Tx FIFOs */
 354:Drivers/STM32F4xx_HAL_Driver/Src/stm32f4xx_ll_usb.c ****   {
 355:Drivers/STM32F4xx_HAL_Driver/Src/stm32f4xx_ll_usb.c ****     ret = HAL_ERROR;
 356:Drivers/STM32F4xx_HAL_Driver/Src/stm32f4xx_ll_usb.c ****   }
 357:Drivers/STM32F4xx_HAL_Driver/Src/stm32f4xx_ll_usb.c **** 
 358:Drivers/STM32F4xx_HAL_Driver/Src/stm32f4xx_ll_usb.c ****   if (USB_FlushRxFifo(USBx) != HAL_OK)
 359:Drivers/STM32F4xx_HAL_Driver/Src/stm32f4xx_ll_usb.c ****   {
 360:Drivers/STM32F4xx_HAL_Driver/Src/stm32f4xx_ll_usb.c ****     ret = HAL_ERROR;
 361:Drivers/STM32F4xx_HAL_Driver/Src/stm32f4xx_ll_usb.c ****   }
 362:Drivers/STM32F4xx_HAL_Driver/Src/stm32f4xx_ll_usb.c **** 
 363:Drivers/STM32F4xx_HAL_Driver/Src/stm32f4xx_ll_usb.c ****   /* Clear all pending Device Interrupts */
 364:Drivers/STM32F4xx_HAL_Driver/Src/stm32f4xx_ll_usb.c ****   USBx_DEVICE->DIEPMSK = 0U;
 365:Drivers/STM32F4xx_HAL_Driver/Src/stm32f4xx_ll_usb.c ****   USBx_DEVICE->DOEPMSK = 0U;
 366:Drivers/STM32F4xx_HAL_Driver/Src/stm32f4xx_ll_usb.c ****   USBx_DEVICE->DAINTMSK = 0U;
 367:Drivers/STM32F4xx_HAL_Driver/Src/stm32f4xx_ll_usb.c **** 
 368:Drivers/STM32F4xx_HAL_Driver/Src/stm32f4xx_ll_usb.c ****   for (i = 0U; i < cfg.dev_endpoints; i++)
 369:Drivers/STM32F4xx_HAL_Driver/Src/stm32f4xx_ll_usb.c ****   {
 370:Drivers/STM32F4xx_HAL_Driver/Src/stm32f4xx_ll_usb.c ****     if ((USBx_INEP(i)->DIEPCTL & USB_OTG_DIEPCTL_EPENA) == USB_OTG_DIEPCTL_EPENA)
 371:Drivers/STM32F4xx_HAL_Driver/Src/stm32f4xx_ll_usb.c ****     {
ARM GAS  /tmp/ccDzXOxq.s 			page 8


 372:Drivers/STM32F4xx_HAL_Driver/Src/stm32f4xx_ll_usb.c ****       if (i == 0U)
 373:Drivers/STM32F4xx_HAL_Driver/Src/stm32f4xx_ll_usb.c ****       {
 374:Drivers/STM32F4xx_HAL_Driver/Src/stm32f4xx_ll_usb.c ****         USBx_INEP(i)->DIEPCTL = USB_OTG_DIEPCTL_SNAK;
 375:Drivers/STM32F4xx_HAL_Driver/Src/stm32f4xx_ll_usb.c ****       }
 376:Drivers/STM32F4xx_HAL_Driver/Src/stm32f4xx_ll_usb.c ****       else
 377:Drivers/STM32F4xx_HAL_Driver/Src/stm32f4xx_ll_usb.c ****       {
 378:Drivers/STM32F4xx_HAL_Driver/Src/stm32f4xx_ll_usb.c ****         USBx_INEP(i)->DIEPCTL = USB_OTG_DIEPCTL_EPDIS | USB_OTG_DIEPCTL_SNAK;
 379:Drivers/STM32F4xx_HAL_Driver/Src/stm32f4xx_ll_usb.c ****       }
 380:Drivers/STM32F4xx_HAL_Driver/Src/stm32f4xx_ll_usb.c ****     }
 381:Drivers/STM32F4xx_HAL_Driver/Src/stm32f4xx_ll_usb.c ****     else
 382:Drivers/STM32F4xx_HAL_Driver/Src/stm32f4xx_ll_usb.c ****     {
 383:Drivers/STM32F4xx_HAL_Driver/Src/stm32f4xx_ll_usb.c ****       USBx_INEP(i)->DIEPCTL = 0U;
 384:Drivers/STM32F4xx_HAL_Driver/Src/stm32f4xx_ll_usb.c ****     }
 385:Drivers/STM32F4xx_HAL_Driver/Src/stm32f4xx_ll_usb.c **** 
 386:Drivers/STM32F4xx_HAL_Driver/Src/stm32f4xx_ll_usb.c ****     USBx_INEP(i)->DIEPTSIZ = 0U;
 387:Drivers/STM32F4xx_HAL_Driver/Src/stm32f4xx_ll_usb.c ****     USBx_INEP(i)->DIEPINT  = 0xFB7FU;
 388:Drivers/STM32F4xx_HAL_Driver/Src/stm32f4xx_ll_usb.c ****   }
 389:Drivers/STM32F4xx_HAL_Driver/Src/stm32f4xx_ll_usb.c **** 
 390:Drivers/STM32F4xx_HAL_Driver/Src/stm32f4xx_ll_usb.c ****   for (i = 0U; i < cfg.dev_endpoints; i++)
 391:Drivers/STM32F4xx_HAL_Driver/Src/stm32f4xx_ll_usb.c ****   {
 392:Drivers/STM32F4xx_HAL_Driver/Src/stm32f4xx_ll_usb.c ****     if ((USBx_OUTEP(i)->DOEPCTL & USB_OTG_DOEPCTL_EPENA) == USB_OTG_DOEPCTL_EPENA)
 393:Drivers/STM32F4xx_HAL_Driver/Src/stm32f4xx_ll_usb.c ****     {
 394:Drivers/STM32F4xx_HAL_Driver/Src/stm32f4xx_ll_usb.c ****       if (i == 0U)
 395:Drivers/STM32F4xx_HAL_Driver/Src/stm32f4xx_ll_usb.c ****       {
 396:Drivers/STM32F4xx_HAL_Driver/Src/stm32f4xx_ll_usb.c ****         USBx_OUTEP(i)->DOEPCTL = USB_OTG_DOEPCTL_SNAK;
 397:Drivers/STM32F4xx_HAL_Driver/Src/stm32f4xx_ll_usb.c ****       }
 398:Drivers/STM32F4xx_HAL_Driver/Src/stm32f4xx_ll_usb.c ****       else
 399:Drivers/STM32F4xx_HAL_Driver/Src/stm32f4xx_ll_usb.c ****       {
 400:Drivers/STM32F4xx_HAL_Driver/Src/stm32f4xx_ll_usb.c ****         USBx_OUTEP(i)->DOEPCTL = USB_OTG_DOEPCTL_EPDIS | USB_OTG_DOEPCTL_SNAK;
 401:Drivers/STM32F4xx_HAL_Driver/Src/stm32f4xx_ll_usb.c ****       }
 402:Drivers/STM32F4xx_HAL_Driver/Src/stm32f4xx_ll_usb.c ****     }
 403:Drivers/STM32F4xx_HAL_Driver/Src/stm32f4xx_ll_usb.c ****     else
 404:Drivers/STM32F4xx_HAL_Driver/Src/stm32f4xx_ll_usb.c ****     {
 405:Drivers/STM32F4xx_HAL_Driver/Src/stm32f4xx_ll_usb.c ****       USBx_OUTEP(i)->DOEPCTL = 0U;
 406:Drivers/STM32F4xx_HAL_Driver/Src/stm32f4xx_ll_usb.c ****     }
 407:Drivers/STM32F4xx_HAL_Driver/Src/stm32f4xx_ll_usb.c **** 
 408:Drivers/STM32F4xx_HAL_Driver/Src/stm32f4xx_ll_usb.c ****     USBx_OUTEP(i)->DOEPTSIZ = 0U;
 409:Drivers/STM32F4xx_HAL_Driver/Src/stm32f4xx_ll_usb.c ****     USBx_OUTEP(i)->DOEPINT  = 0xFB7FU;
 410:Drivers/STM32F4xx_HAL_Driver/Src/stm32f4xx_ll_usb.c ****   }
 411:Drivers/STM32F4xx_HAL_Driver/Src/stm32f4xx_ll_usb.c **** 
 412:Drivers/STM32F4xx_HAL_Driver/Src/stm32f4xx_ll_usb.c ****   USBx_DEVICE->DIEPMSK &= ~(USB_OTG_DIEPMSK_TXFURM);
 413:Drivers/STM32F4xx_HAL_Driver/Src/stm32f4xx_ll_usb.c **** 
 414:Drivers/STM32F4xx_HAL_Driver/Src/stm32f4xx_ll_usb.c ****   /* Disable all interrupts. */
 415:Drivers/STM32F4xx_HAL_Driver/Src/stm32f4xx_ll_usb.c ****   USBx->GINTMSK = 0U;
 416:Drivers/STM32F4xx_HAL_Driver/Src/stm32f4xx_ll_usb.c **** 
 417:Drivers/STM32F4xx_HAL_Driver/Src/stm32f4xx_ll_usb.c ****   /* Clear any pending interrupts */
 418:Drivers/STM32F4xx_HAL_Driver/Src/stm32f4xx_ll_usb.c ****   USBx->GINTSTS = 0xBFFFFFFFU;
 419:Drivers/STM32F4xx_HAL_Driver/Src/stm32f4xx_ll_usb.c **** 
 420:Drivers/STM32F4xx_HAL_Driver/Src/stm32f4xx_ll_usb.c ****   /* Enable the common interrupts */
 421:Drivers/STM32F4xx_HAL_Driver/Src/stm32f4xx_ll_usb.c ****   if (cfg.dma_enable == 0U)
 422:Drivers/STM32F4xx_HAL_Driver/Src/stm32f4xx_ll_usb.c ****   {
 423:Drivers/STM32F4xx_HAL_Driver/Src/stm32f4xx_ll_usb.c ****     USBx->GINTMSK |= USB_OTG_GINTMSK_RXFLVLM;
 424:Drivers/STM32F4xx_HAL_Driver/Src/stm32f4xx_ll_usb.c ****   }
 425:Drivers/STM32F4xx_HAL_Driver/Src/stm32f4xx_ll_usb.c **** 
 426:Drivers/STM32F4xx_HAL_Driver/Src/stm32f4xx_ll_usb.c ****   /* Enable interrupts matching to the Device mode ONLY */
 427:Drivers/STM32F4xx_HAL_Driver/Src/stm32f4xx_ll_usb.c ****   USBx->GINTMSK |= USB_OTG_GINTMSK_USBSUSPM | USB_OTG_GINTMSK_USBRST |
 428:Drivers/STM32F4xx_HAL_Driver/Src/stm32f4xx_ll_usb.c ****                    USB_OTG_GINTMSK_ENUMDNEM | USB_OTG_GINTMSK_IEPINT |
ARM GAS  /tmp/ccDzXOxq.s 			page 9


 429:Drivers/STM32F4xx_HAL_Driver/Src/stm32f4xx_ll_usb.c ****                    USB_OTG_GINTMSK_OEPINT   | USB_OTG_GINTMSK_IISOIXFRM |
 430:Drivers/STM32F4xx_HAL_Driver/Src/stm32f4xx_ll_usb.c ****                    USB_OTG_GINTMSK_PXFRM_IISOOXFRM | USB_OTG_GINTMSK_WUIM;
 431:Drivers/STM32F4xx_HAL_Driver/Src/stm32f4xx_ll_usb.c **** 
 432:Drivers/STM32F4xx_HAL_Driver/Src/stm32f4xx_ll_usb.c ****   if (cfg.Sof_enable != 0U)
 433:Drivers/STM32F4xx_HAL_Driver/Src/stm32f4xx_ll_usb.c ****   {
 434:Drivers/STM32F4xx_HAL_Driver/Src/stm32f4xx_ll_usb.c ****     USBx->GINTMSK |= USB_OTG_GINTMSK_SOFM;
 435:Drivers/STM32F4xx_HAL_Driver/Src/stm32f4xx_ll_usb.c ****   }
 436:Drivers/STM32F4xx_HAL_Driver/Src/stm32f4xx_ll_usb.c **** 
 437:Drivers/STM32F4xx_HAL_Driver/Src/stm32f4xx_ll_usb.c ****   if (cfg.vbus_sensing_enable == 1U)
 438:Drivers/STM32F4xx_HAL_Driver/Src/stm32f4xx_ll_usb.c ****   {
 439:Drivers/STM32F4xx_HAL_Driver/Src/stm32f4xx_ll_usb.c ****     USBx->GINTMSK |= (USB_OTG_GINTMSK_SRQIM | USB_OTG_GINTMSK_OTGINT);
 440:Drivers/STM32F4xx_HAL_Driver/Src/stm32f4xx_ll_usb.c ****   }
 441:Drivers/STM32F4xx_HAL_Driver/Src/stm32f4xx_ll_usb.c **** 
 442:Drivers/STM32F4xx_HAL_Driver/Src/stm32f4xx_ll_usb.c ****   return ret;
 443:Drivers/STM32F4xx_HAL_Driver/Src/stm32f4xx_ll_usb.c **** }
 444:Drivers/STM32F4xx_HAL_Driver/Src/stm32f4xx_ll_usb.c **** 
 445:Drivers/STM32F4xx_HAL_Driver/Src/stm32f4xx_ll_usb.c **** /**
 446:Drivers/STM32F4xx_HAL_Driver/Src/stm32f4xx_ll_usb.c ****   * @brief  USB_OTG_FlushTxFifo : Flush a Tx FIFO
 447:Drivers/STM32F4xx_HAL_Driver/Src/stm32f4xx_ll_usb.c ****   * @param  USBx  Selected device
 448:Drivers/STM32F4xx_HAL_Driver/Src/stm32f4xx_ll_usb.c ****   * @param  num  FIFO number
 449:Drivers/STM32F4xx_HAL_Driver/Src/stm32f4xx_ll_usb.c ****   *         This parameter can be a value from 1 to 15
 450:Drivers/STM32F4xx_HAL_Driver/Src/stm32f4xx_ll_usb.c ****             15 means Flush all Tx FIFOs
 451:Drivers/STM32F4xx_HAL_Driver/Src/stm32f4xx_ll_usb.c ****   * @retval HAL status
 452:Drivers/STM32F4xx_HAL_Driver/Src/stm32f4xx_ll_usb.c ****   */
 453:Drivers/STM32F4xx_HAL_Driver/Src/stm32f4xx_ll_usb.c **** HAL_StatusTypeDef USB_FlushTxFifo(USB_OTG_GlobalTypeDef *USBx, uint32_t num)
 454:Drivers/STM32F4xx_HAL_Driver/Src/stm32f4xx_ll_usb.c **** {
 455:Drivers/STM32F4xx_HAL_Driver/Src/stm32f4xx_ll_usb.c ****   uint32_t count = 0U;
 456:Drivers/STM32F4xx_HAL_Driver/Src/stm32f4xx_ll_usb.c **** 
 457:Drivers/STM32F4xx_HAL_Driver/Src/stm32f4xx_ll_usb.c ****   USBx->GRSTCTL = (USB_OTG_GRSTCTL_TXFFLSH | (num << 6));
 458:Drivers/STM32F4xx_HAL_Driver/Src/stm32f4xx_ll_usb.c **** 
 459:Drivers/STM32F4xx_HAL_Driver/Src/stm32f4xx_ll_usb.c ****   do
 460:Drivers/STM32F4xx_HAL_Driver/Src/stm32f4xx_ll_usb.c ****   {
 461:Drivers/STM32F4xx_HAL_Driver/Src/stm32f4xx_ll_usb.c ****     if (++count > 200000U)
 462:Drivers/STM32F4xx_HAL_Driver/Src/stm32f4xx_ll_usb.c ****     {
 463:Drivers/STM32F4xx_HAL_Driver/Src/stm32f4xx_ll_usb.c ****       return HAL_TIMEOUT;
 464:Drivers/STM32F4xx_HAL_Driver/Src/stm32f4xx_ll_usb.c ****     }
 465:Drivers/STM32F4xx_HAL_Driver/Src/stm32f4xx_ll_usb.c ****   } while ((USBx->GRSTCTL & USB_OTG_GRSTCTL_TXFFLSH) == USB_OTG_GRSTCTL_TXFFLSH);
 466:Drivers/STM32F4xx_HAL_Driver/Src/stm32f4xx_ll_usb.c **** 
 467:Drivers/STM32F4xx_HAL_Driver/Src/stm32f4xx_ll_usb.c ****   return HAL_OK;
 468:Drivers/STM32F4xx_HAL_Driver/Src/stm32f4xx_ll_usb.c **** }
 469:Drivers/STM32F4xx_HAL_Driver/Src/stm32f4xx_ll_usb.c **** 
 470:Drivers/STM32F4xx_HAL_Driver/Src/stm32f4xx_ll_usb.c **** /**
 471:Drivers/STM32F4xx_HAL_Driver/Src/stm32f4xx_ll_usb.c ****   * @brief  USB_FlushRxFifo : Flush Rx FIFO
 472:Drivers/STM32F4xx_HAL_Driver/Src/stm32f4xx_ll_usb.c ****   * @param  USBx  Selected device
 473:Drivers/STM32F4xx_HAL_Driver/Src/stm32f4xx_ll_usb.c ****   * @retval HAL status
 474:Drivers/STM32F4xx_HAL_Driver/Src/stm32f4xx_ll_usb.c ****   */
 475:Drivers/STM32F4xx_HAL_Driver/Src/stm32f4xx_ll_usb.c **** HAL_StatusTypeDef USB_FlushRxFifo(USB_OTG_GlobalTypeDef *USBx)
 476:Drivers/STM32F4xx_HAL_Driver/Src/stm32f4xx_ll_usb.c **** {
 477:Drivers/STM32F4xx_HAL_Driver/Src/stm32f4xx_ll_usb.c ****   uint32_t count = 0;
 478:Drivers/STM32F4xx_HAL_Driver/Src/stm32f4xx_ll_usb.c **** 
 479:Drivers/STM32F4xx_HAL_Driver/Src/stm32f4xx_ll_usb.c ****   USBx->GRSTCTL = USB_OTG_GRSTCTL_RXFFLSH;
 480:Drivers/STM32F4xx_HAL_Driver/Src/stm32f4xx_ll_usb.c **** 
 481:Drivers/STM32F4xx_HAL_Driver/Src/stm32f4xx_ll_usb.c ****   do
 482:Drivers/STM32F4xx_HAL_Driver/Src/stm32f4xx_ll_usb.c ****   {
 483:Drivers/STM32F4xx_HAL_Driver/Src/stm32f4xx_ll_usb.c ****     if (++count > 200000U)
 484:Drivers/STM32F4xx_HAL_Driver/Src/stm32f4xx_ll_usb.c ****     {
 485:Drivers/STM32F4xx_HAL_Driver/Src/stm32f4xx_ll_usb.c ****       return HAL_TIMEOUT;
ARM GAS  /tmp/ccDzXOxq.s 			page 10


 486:Drivers/STM32F4xx_HAL_Driver/Src/stm32f4xx_ll_usb.c ****     }
 487:Drivers/STM32F4xx_HAL_Driver/Src/stm32f4xx_ll_usb.c ****   } while ((USBx->GRSTCTL & USB_OTG_GRSTCTL_RXFFLSH) == USB_OTG_GRSTCTL_RXFFLSH);
 488:Drivers/STM32F4xx_HAL_Driver/Src/stm32f4xx_ll_usb.c **** 
 489:Drivers/STM32F4xx_HAL_Driver/Src/stm32f4xx_ll_usb.c ****   return HAL_OK;
 490:Drivers/STM32F4xx_HAL_Driver/Src/stm32f4xx_ll_usb.c **** }
 491:Drivers/STM32F4xx_HAL_Driver/Src/stm32f4xx_ll_usb.c **** 
 492:Drivers/STM32F4xx_HAL_Driver/Src/stm32f4xx_ll_usb.c **** /**
 493:Drivers/STM32F4xx_HAL_Driver/Src/stm32f4xx_ll_usb.c ****   * @brief  USB_SetDevSpeed  Initializes the DevSpd field of DCFG register
 494:Drivers/STM32F4xx_HAL_Driver/Src/stm32f4xx_ll_usb.c ****   *         depending the PHY type and the enumeration speed of the device.
 495:Drivers/STM32F4xx_HAL_Driver/Src/stm32f4xx_ll_usb.c ****   * @param  USBx  Selected device
 496:Drivers/STM32F4xx_HAL_Driver/Src/stm32f4xx_ll_usb.c ****   * @param  speed  device speed
 497:Drivers/STM32F4xx_HAL_Driver/Src/stm32f4xx_ll_usb.c ****   *          This parameter can be one of these values:
 498:Drivers/STM32F4xx_HAL_Driver/Src/stm32f4xx_ll_usb.c ****   *            @arg USB_OTG_SPEED_HIGH: High speed mode
 499:Drivers/STM32F4xx_HAL_Driver/Src/stm32f4xx_ll_usb.c ****   *            @arg USB_OTG_SPEED_HIGH_IN_FULL: High speed core in Full Speed mode
 500:Drivers/STM32F4xx_HAL_Driver/Src/stm32f4xx_ll_usb.c ****   *            @arg USB_OTG_SPEED_FULL: Full speed mode
 501:Drivers/STM32F4xx_HAL_Driver/Src/stm32f4xx_ll_usb.c ****   * @retval  Hal status
 502:Drivers/STM32F4xx_HAL_Driver/Src/stm32f4xx_ll_usb.c ****   */
 503:Drivers/STM32F4xx_HAL_Driver/Src/stm32f4xx_ll_usb.c **** HAL_StatusTypeDef USB_SetDevSpeed(USB_OTG_GlobalTypeDef *USBx, uint8_t speed)
 504:Drivers/STM32F4xx_HAL_Driver/Src/stm32f4xx_ll_usb.c **** {
 505:Drivers/STM32F4xx_HAL_Driver/Src/stm32f4xx_ll_usb.c ****   uint32_t USBx_BASE = (uint32_t)USBx;
 506:Drivers/STM32F4xx_HAL_Driver/Src/stm32f4xx_ll_usb.c **** 
 507:Drivers/STM32F4xx_HAL_Driver/Src/stm32f4xx_ll_usb.c ****   USBx_DEVICE->DCFG |= speed;
 508:Drivers/STM32F4xx_HAL_Driver/Src/stm32f4xx_ll_usb.c ****   return HAL_OK;
 509:Drivers/STM32F4xx_HAL_Driver/Src/stm32f4xx_ll_usb.c **** }
 510:Drivers/STM32F4xx_HAL_Driver/Src/stm32f4xx_ll_usb.c **** 
 511:Drivers/STM32F4xx_HAL_Driver/Src/stm32f4xx_ll_usb.c **** /**
 512:Drivers/STM32F4xx_HAL_Driver/Src/stm32f4xx_ll_usb.c ****   * @brief  USB_GetDevSpeed  Return the Dev Speed
 513:Drivers/STM32F4xx_HAL_Driver/Src/stm32f4xx_ll_usb.c ****   * @param  USBx  Selected device
 514:Drivers/STM32F4xx_HAL_Driver/Src/stm32f4xx_ll_usb.c ****   * @retval speed  device speed
 515:Drivers/STM32F4xx_HAL_Driver/Src/stm32f4xx_ll_usb.c ****   *          This parameter can be one of these values:
 516:Drivers/STM32F4xx_HAL_Driver/Src/stm32f4xx_ll_usb.c ****   *            @arg USBD_HS_SPEED: High speed mode
 517:Drivers/STM32F4xx_HAL_Driver/Src/stm32f4xx_ll_usb.c ****   *            @arg USBD_FS_SPEED: Full speed mode
 518:Drivers/STM32F4xx_HAL_Driver/Src/stm32f4xx_ll_usb.c ****   */
 519:Drivers/STM32F4xx_HAL_Driver/Src/stm32f4xx_ll_usb.c **** uint8_t USB_GetDevSpeed(USB_OTG_GlobalTypeDef *USBx)
 520:Drivers/STM32F4xx_HAL_Driver/Src/stm32f4xx_ll_usb.c **** {
 521:Drivers/STM32F4xx_HAL_Driver/Src/stm32f4xx_ll_usb.c ****   uint32_t USBx_BASE = (uint32_t)USBx;
 522:Drivers/STM32F4xx_HAL_Driver/Src/stm32f4xx_ll_usb.c ****   uint8_t speed;
 523:Drivers/STM32F4xx_HAL_Driver/Src/stm32f4xx_ll_usb.c ****   uint32_t DevEnumSpeed = USBx_DEVICE->DSTS & USB_OTG_DSTS_ENUMSPD;
 524:Drivers/STM32F4xx_HAL_Driver/Src/stm32f4xx_ll_usb.c **** 
 525:Drivers/STM32F4xx_HAL_Driver/Src/stm32f4xx_ll_usb.c ****   if (DevEnumSpeed == DSTS_ENUMSPD_HS_PHY_30MHZ_OR_60MHZ)
 526:Drivers/STM32F4xx_HAL_Driver/Src/stm32f4xx_ll_usb.c ****   {
 527:Drivers/STM32F4xx_HAL_Driver/Src/stm32f4xx_ll_usb.c ****     speed = USBD_HS_SPEED;
 528:Drivers/STM32F4xx_HAL_Driver/Src/stm32f4xx_ll_usb.c ****   }
 529:Drivers/STM32F4xx_HAL_Driver/Src/stm32f4xx_ll_usb.c ****   else if ((DevEnumSpeed == DSTS_ENUMSPD_FS_PHY_30MHZ_OR_60MHZ) ||
 530:Drivers/STM32F4xx_HAL_Driver/Src/stm32f4xx_ll_usb.c ****            (DevEnumSpeed == DSTS_ENUMSPD_FS_PHY_48MHZ))
 531:Drivers/STM32F4xx_HAL_Driver/Src/stm32f4xx_ll_usb.c ****   {
 532:Drivers/STM32F4xx_HAL_Driver/Src/stm32f4xx_ll_usb.c ****     speed = USBD_FS_SPEED;
 533:Drivers/STM32F4xx_HAL_Driver/Src/stm32f4xx_ll_usb.c ****   }
 534:Drivers/STM32F4xx_HAL_Driver/Src/stm32f4xx_ll_usb.c ****   else
 535:Drivers/STM32F4xx_HAL_Driver/Src/stm32f4xx_ll_usb.c ****   {
 536:Drivers/STM32F4xx_HAL_Driver/Src/stm32f4xx_ll_usb.c ****     speed = 0xFU;
 537:Drivers/STM32F4xx_HAL_Driver/Src/stm32f4xx_ll_usb.c ****   }
 538:Drivers/STM32F4xx_HAL_Driver/Src/stm32f4xx_ll_usb.c **** 
 539:Drivers/STM32F4xx_HAL_Driver/Src/stm32f4xx_ll_usb.c ****   return speed;
 540:Drivers/STM32F4xx_HAL_Driver/Src/stm32f4xx_ll_usb.c **** }
 541:Drivers/STM32F4xx_HAL_Driver/Src/stm32f4xx_ll_usb.c **** 
 542:Drivers/STM32F4xx_HAL_Driver/Src/stm32f4xx_ll_usb.c **** /**
ARM GAS  /tmp/ccDzXOxq.s 			page 11


 543:Drivers/STM32F4xx_HAL_Driver/Src/stm32f4xx_ll_usb.c ****   * @brief  Activate and configure an endpoint
 544:Drivers/STM32F4xx_HAL_Driver/Src/stm32f4xx_ll_usb.c ****   * @param  USBx  Selected device
 545:Drivers/STM32F4xx_HAL_Driver/Src/stm32f4xx_ll_usb.c ****   * @param  ep pointer to endpoint structure
 546:Drivers/STM32F4xx_HAL_Driver/Src/stm32f4xx_ll_usb.c ****   * @retval HAL status
 547:Drivers/STM32F4xx_HAL_Driver/Src/stm32f4xx_ll_usb.c ****   */
 548:Drivers/STM32F4xx_HAL_Driver/Src/stm32f4xx_ll_usb.c **** HAL_StatusTypeDef USB_ActivateEndpoint(USB_OTG_GlobalTypeDef *USBx, USB_OTG_EPTypeDef *ep)
 549:Drivers/STM32F4xx_HAL_Driver/Src/stm32f4xx_ll_usb.c **** {
 550:Drivers/STM32F4xx_HAL_Driver/Src/stm32f4xx_ll_usb.c ****   uint32_t USBx_BASE = (uint32_t)USBx;
 551:Drivers/STM32F4xx_HAL_Driver/Src/stm32f4xx_ll_usb.c ****   uint32_t epnum = (uint32_t)ep->num;
 552:Drivers/STM32F4xx_HAL_Driver/Src/stm32f4xx_ll_usb.c **** 
 553:Drivers/STM32F4xx_HAL_Driver/Src/stm32f4xx_ll_usb.c ****   if (ep->is_in == 1U)
 554:Drivers/STM32F4xx_HAL_Driver/Src/stm32f4xx_ll_usb.c ****   {
 555:Drivers/STM32F4xx_HAL_Driver/Src/stm32f4xx_ll_usb.c ****     USBx_DEVICE->DAINTMSK |= USB_OTG_DAINTMSK_IEPM & (uint32_t)(1UL << (ep->num & EP_ADDR_MSK));
 556:Drivers/STM32F4xx_HAL_Driver/Src/stm32f4xx_ll_usb.c **** 
 557:Drivers/STM32F4xx_HAL_Driver/Src/stm32f4xx_ll_usb.c ****     if ((USBx_INEP(epnum)->DIEPCTL & USB_OTG_DIEPCTL_USBAEP) == 0U)
 558:Drivers/STM32F4xx_HAL_Driver/Src/stm32f4xx_ll_usb.c ****     {
 559:Drivers/STM32F4xx_HAL_Driver/Src/stm32f4xx_ll_usb.c ****       USBx_INEP(epnum)->DIEPCTL |= (ep->maxpacket & USB_OTG_DIEPCTL_MPSIZ) |
 560:Drivers/STM32F4xx_HAL_Driver/Src/stm32f4xx_ll_usb.c ****                                    ((uint32_t)ep->type << 18) | (epnum << 22) |
 561:Drivers/STM32F4xx_HAL_Driver/Src/stm32f4xx_ll_usb.c ****                                    USB_OTG_DIEPCTL_SD0PID_SEVNFRM |
 562:Drivers/STM32F4xx_HAL_Driver/Src/stm32f4xx_ll_usb.c ****                                    USB_OTG_DIEPCTL_USBAEP;
 563:Drivers/STM32F4xx_HAL_Driver/Src/stm32f4xx_ll_usb.c ****     }
 564:Drivers/STM32F4xx_HAL_Driver/Src/stm32f4xx_ll_usb.c ****   }
 565:Drivers/STM32F4xx_HAL_Driver/Src/stm32f4xx_ll_usb.c ****   else
 566:Drivers/STM32F4xx_HAL_Driver/Src/stm32f4xx_ll_usb.c ****   {
 567:Drivers/STM32F4xx_HAL_Driver/Src/stm32f4xx_ll_usb.c ****     USBx_DEVICE->DAINTMSK |= USB_OTG_DAINTMSK_OEPM & ((uint32_t)(1UL << (ep->num & EP_ADDR_MSK)) <<
 568:Drivers/STM32F4xx_HAL_Driver/Src/stm32f4xx_ll_usb.c **** 
 569:Drivers/STM32F4xx_HAL_Driver/Src/stm32f4xx_ll_usb.c ****     if (((USBx_OUTEP(epnum)->DOEPCTL) & USB_OTG_DOEPCTL_USBAEP) == 0U)
 570:Drivers/STM32F4xx_HAL_Driver/Src/stm32f4xx_ll_usb.c ****     {
 571:Drivers/STM32F4xx_HAL_Driver/Src/stm32f4xx_ll_usb.c ****       USBx_OUTEP(epnum)->DOEPCTL |= (ep->maxpacket & USB_OTG_DOEPCTL_MPSIZ) |
 572:Drivers/STM32F4xx_HAL_Driver/Src/stm32f4xx_ll_usb.c ****                                     ((uint32_t)ep->type << 18) |
 573:Drivers/STM32F4xx_HAL_Driver/Src/stm32f4xx_ll_usb.c ****                                     USB_OTG_DIEPCTL_SD0PID_SEVNFRM |
 574:Drivers/STM32F4xx_HAL_Driver/Src/stm32f4xx_ll_usb.c ****                                     USB_OTG_DOEPCTL_USBAEP;
 575:Drivers/STM32F4xx_HAL_Driver/Src/stm32f4xx_ll_usb.c ****     }
 576:Drivers/STM32F4xx_HAL_Driver/Src/stm32f4xx_ll_usb.c ****   }
 577:Drivers/STM32F4xx_HAL_Driver/Src/stm32f4xx_ll_usb.c ****   return HAL_OK;
 578:Drivers/STM32F4xx_HAL_Driver/Src/stm32f4xx_ll_usb.c **** }
 579:Drivers/STM32F4xx_HAL_Driver/Src/stm32f4xx_ll_usb.c **** 
 580:Drivers/STM32F4xx_HAL_Driver/Src/stm32f4xx_ll_usb.c **** /**
 581:Drivers/STM32F4xx_HAL_Driver/Src/stm32f4xx_ll_usb.c ****   * @brief  Activate and configure a dedicated endpoint
 582:Drivers/STM32F4xx_HAL_Driver/Src/stm32f4xx_ll_usb.c ****   * @param  USBx  Selected device
 583:Drivers/STM32F4xx_HAL_Driver/Src/stm32f4xx_ll_usb.c ****   * @param  ep pointer to endpoint structure
 584:Drivers/STM32F4xx_HAL_Driver/Src/stm32f4xx_ll_usb.c ****   * @retval HAL status
 585:Drivers/STM32F4xx_HAL_Driver/Src/stm32f4xx_ll_usb.c ****   */
 586:Drivers/STM32F4xx_HAL_Driver/Src/stm32f4xx_ll_usb.c **** HAL_StatusTypeDef USB_ActivateDedicatedEndpoint(USB_OTG_GlobalTypeDef *USBx, USB_OTG_EPTypeDef *ep)
 587:Drivers/STM32F4xx_HAL_Driver/Src/stm32f4xx_ll_usb.c **** {
 588:Drivers/STM32F4xx_HAL_Driver/Src/stm32f4xx_ll_usb.c ****   uint32_t USBx_BASE = (uint32_t)USBx;
 589:Drivers/STM32F4xx_HAL_Driver/Src/stm32f4xx_ll_usb.c ****   uint32_t epnum = (uint32_t)ep->num;
 590:Drivers/STM32F4xx_HAL_Driver/Src/stm32f4xx_ll_usb.c **** 
 591:Drivers/STM32F4xx_HAL_Driver/Src/stm32f4xx_ll_usb.c ****   /* Read DEPCTLn register */
 592:Drivers/STM32F4xx_HAL_Driver/Src/stm32f4xx_ll_usb.c ****   if (ep->is_in == 1U)
 593:Drivers/STM32F4xx_HAL_Driver/Src/stm32f4xx_ll_usb.c ****   {
 594:Drivers/STM32F4xx_HAL_Driver/Src/stm32f4xx_ll_usb.c ****     if (((USBx_INEP(epnum)->DIEPCTL) & USB_OTG_DIEPCTL_USBAEP) == 0U)
 595:Drivers/STM32F4xx_HAL_Driver/Src/stm32f4xx_ll_usb.c ****     {
 596:Drivers/STM32F4xx_HAL_Driver/Src/stm32f4xx_ll_usb.c ****       USBx_INEP(epnum)->DIEPCTL |= (ep->maxpacket & USB_OTG_DIEPCTL_MPSIZ) |
 597:Drivers/STM32F4xx_HAL_Driver/Src/stm32f4xx_ll_usb.c ****                                    ((uint32_t)ep->type << 18) | (epnum << 22) |
 598:Drivers/STM32F4xx_HAL_Driver/Src/stm32f4xx_ll_usb.c ****                                    USB_OTG_DIEPCTL_SD0PID_SEVNFRM |
 599:Drivers/STM32F4xx_HAL_Driver/Src/stm32f4xx_ll_usb.c ****                                    USB_OTG_DIEPCTL_USBAEP;
ARM GAS  /tmp/ccDzXOxq.s 			page 12


 600:Drivers/STM32F4xx_HAL_Driver/Src/stm32f4xx_ll_usb.c ****     }
 601:Drivers/STM32F4xx_HAL_Driver/Src/stm32f4xx_ll_usb.c **** 
 602:Drivers/STM32F4xx_HAL_Driver/Src/stm32f4xx_ll_usb.c ****     USBx_DEVICE->DEACHMSK |= USB_OTG_DAINTMSK_IEPM & (uint32_t)(1UL << (ep->num & EP_ADDR_MSK));
 603:Drivers/STM32F4xx_HAL_Driver/Src/stm32f4xx_ll_usb.c ****   }
 604:Drivers/STM32F4xx_HAL_Driver/Src/stm32f4xx_ll_usb.c ****   else
 605:Drivers/STM32F4xx_HAL_Driver/Src/stm32f4xx_ll_usb.c ****   {
 606:Drivers/STM32F4xx_HAL_Driver/Src/stm32f4xx_ll_usb.c ****     if (((USBx_OUTEP(epnum)->DOEPCTL) & USB_OTG_DOEPCTL_USBAEP) == 0U)
 607:Drivers/STM32F4xx_HAL_Driver/Src/stm32f4xx_ll_usb.c ****     {
 608:Drivers/STM32F4xx_HAL_Driver/Src/stm32f4xx_ll_usb.c ****       USBx_OUTEP(epnum)->DOEPCTL |= (ep->maxpacket & USB_OTG_DOEPCTL_MPSIZ) |
 609:Drivers/STM32F4xx_HAL_Driver/Src/stm32f4xx_ll_usb.c ****                                     ((uint32_t)ep->type << 18) | (epnum << 22) |
 610:Drivers/STM32F4xx_HAL_Driver/Src/stm32f4xx_ll_usb.c ****                                     USB_OTG_DOEPCTL_USBAEP;
 611:Drivers/STM32F4xx_HAL_Driver/Src/stm32f4xx_ll_usb.c ****     }
 612:Drivers/STM32F4xx_HAL_Driver/Src/stm32f4xx_ll_usb.c **** 
 613:Drivers/STM32F4xx_HAL_Driver/Src/stm32f4xx_ll_usb.c ****     USBx_DEVICE->DEACHMSK |= USB_OTG_DAINTMSK_OEPM & ((uint32_t)(1UL << (ep->num & EP_ADDR_MSK)) <<
 614:Drivers/STM32F4xx_HAL_Driver/Src/stm32f4xx_ll_usb.c ****   }
 615:Drivers/STM32F4xx_HAL_Driver/Src/stm32f4xx_ll_usb.c **** 
 616:Drivers/STM32F4xx_HAL_Driver/Src/stm32f4xx_ll_usb.c ****   return HAL_OK;
 617:Drivers/STM32F4xx_HAL_Driver/Src/stm32f4xx_ll_usb.c **** }
 618:Drivers/STM32F4xx_HAL_Driver/Src/stm32f4xx_ll_usb.c **** 
 619:Drivers/STM32F4xx_HAL_Driver/Src/stm32f4xx_ll_usb.c **** /**
 620:Drivers/STM32F4xx_HAL_Driver/Src/stm32f4xx_ll_usb.c ****   * @brief  De-activate and de-initialize an endpoint
 621:Drivers/STM32F4xx_HAL_Driver/Src/stm32f4xx_ll_usb.c ****   * @param  USBx  Selected device
 622:Drivers/STM32F4xx_HAL_Driver/Src/stm32f4xx_ll_usb.c ****   * @param  ep pointer to endpoint structure
 623:Drivers/STM32F4xx_HAL_Driver/Src/stm32f4xx_ll_usb.c ****   * @retval HAL status
 624:Drivers/STM32F4xx_HAL_Driver/Src/stm32f4xx_ll_usb.c ****   */
 625:Drivers/STM32F4xx_HAL_Driver/Src/stm32f4xx_ll_usb.c **** HAL_StatusTypeDef USB_DeactivateEndpoint(USB_OTG_GlobalTypeDef *USBx, USB_OTG_EPTypeDef *ep)
 626:Drivers/STM32F4xx_HAL_Driver/Src/stm32f4xx_ll_usb.c **** {
 627:Drivers/STM32F4xx_HAL_Driver/Src/stm32f4xx_ll_usb.c ****   uint32_t USBx_BASE = (uint32_t)USBx;
 628:Drivers/STM32F4xx_HAL_Driver/Src/stm32f4xx_ll_usb.c ****   uint32_t epnum = (uint32_t)ep->num;
 629:Drivers/STM32F4xx_HAL_Driver/Src/stm32f4xx_ll_usb.c **** 
 630:Drivers/STM32F4xx_HAL_Driver/Src/stm32f4xx_ll_usb.c ****   /* Read DEPCTLn register */
 631:Drivers/STM32F4xx_HAL_Driver/Src/stm32f4xx_ll_usb.c ****   if (ep->is_in == 1U)
 632:Drivers/STM32F4xx_HAL_Driver/Src/stm32f4xx_ll_usb.c ****   {
 633:Drivers/STM32F4xx_HAL_Driver/Src/stm32f4xx_ll_usb.c ****     if ((USBx_INEP(epnum)->DIEPCTL & USB_OTG_DIEPCTL_EPENA) == USB_OTG_DIEPCTL_EPENA)
 634:Drivers/STM32F4xx_HAL_Driver/Src/stm32f4xx_ll_usb.c ****     {
 635:Drivers/STM32F4xx_HAL_Driver/Src/stm32f4xx_ll_usb.c ****       USBx_INEP(epnum)->DIEPCTL |= USB_OTG_DIEPCTL_SNAK;
 636:Drivers/STM32F4xx_HAL_Driver/Src/stm32f4xx_ll_usb.c ****       USBx_INEP(epnum)->DIEPCTL |= USB_OTG_DIEPCTL_EPDIS;
 637:Drivers/STM32F4xx_HAL_Driver/Src/stm32f4xx_ll_usb.c ****     }
 638:Drivers/STM32F4xx_HAL_Driver/Src/stm32f4xx_ll_usb.c **** 
 639:Drivers/STM32F4xx_HAL_Driver/Src/stm32f4xx_ll_usb.c ****     USBx_DEVICE->DEACHMSK &= ~(USB_OTG_DAINTMSK_IEPM & (uint32_t)(1UL << (ep->num & EP_ADDR_MSK)));
 640:Drivers/STM32F4xx_HAL_Driver/Src/stm32f4xx_ll_usb.c ****     USBx_DEVICE->DAINTMSK &= ~(USB_OTG_DAINTMSK_IEPM & (uint32_t)(1UL << (ep->num & EP_ADDR_MSK)));
 641:Drivers/STM32F4xx_HAL_Driver/Src/stm32f4xx_ll_usb.c ****     USBx_INEP(epnum)->DIEPCTL &= ~(USB_OTG_DIEPCTL_USBAEP |
 642:Drivers/STM32F4xx_HAL_Driver/Src/stm32f4xx_ll_usb.c ****                                    USB_OTG_DIEPCTL_MPSIZ |
 643:Drivers/STM32F4xx_HAL_Driver/Src/stm32f4xx_ll_usb.c ****                                    USB_OTG_DIEPCTL_TXFNUM |
 644:Drivers/STM32F4xx_HAL_Driver/Src/stm32f4xx_ll_usb.c ****                                    USB_OTG_DIEPCTL_SD0PID_SEVNFRM |
 645:Drivers/STM32F4xx_HAL_Driver/Src/stm32f4xx_ll_usb.c ****                                    USB_OTG_DIEPCTL_EPTYP);
 646:Drivers/STM32F4xx_HAL_Driver/Src/stm32f4xx_ll_usb.c ****   }
 647:Drivers/STM32F4xx_HAL_Driver/Src/stm32f4xx_ll_usb.c ****   else
 648:Drivers/STM32F4xx_HAL_Driver/Src/stm32f4xx_ll_usb.c ****   {
 649:Drivers/STM32F4xx_HAL_Driver/Src/stm32f4xx_ll_usb.c ****     if ((USBx_OUTEP(epnum)->DOEPCTL & USB_OTG_DOEPCTL_EPENA) == USB_OTG_DOEPCTL_EPENA)
 650:Drivers/STM32F4xx_HAL_Driver/Src/stm32f4xx_ll_usb.c ****     {
 651:Drivers/STM32F4xx_HAL_Driver/Src/stm32f4xx_ll_usb.c ****       USBx_OUTEP(epnum)->DOEPCTL |= USB_OTG_DOEPCTL_SNAK;
 652:Drivers/STM32F4xx_HAL_Driver/Src/stm32f4xx_ll_usb.c ****       USBx_OUTEP(epnum)->DOEPCTL |= USB_OTG_DOEPCTL_EPDIS;
 653:Drivers/STM32F4xx_HAL_Driver/Src/stm32f4xx_ll_usb.c ****     }
 654:Drivers/STM32F4xx_HAL_Driver/Src/stm32f4xx_ll_usb.c **** 
 655:Drivers/STM32F4xx_HAL_Driver/Src/stm32f4xx_ll_usb.c ****     USBx_DEVICE->DEACHMSK &= ~(USB_OTG_DAINTMSK_OEPM & ((uint32_t)(1UL << (ep->num & EP_ADDR_MSK)) 
 656:Drivers/STM32F4xx_HAL_Driver/Src/stm32f4xx_ll_usb.c ****     USBx_DEVICE->DAINTMSK &= ~(USB_OTG_DAINTMSK_OEPM & ((uint32_t)(1UL << (ep->num & EP_ADDR_MSK)) 
ARM GAS  /tmp/ccDzXOxq.s 			page 13


 657:Drivers/STM32F4xx_HAL_Driver/Src/stm32f4xx_ll_usb.c ****     USBx_OUTEP(epnum)->DOEPCTL &= ~(USB_OTG_DOEPCTL_USBAEP |
 658:Drivers/STM32F4xx_HAL_Driver/Src/stm32f4xx_ll_usb.c ****                                     USB_OTG_DOEPCTL_MPSIZ |
 659:Drivers/STM32F4xx_HAL_Driver/Src/stm32f4xx_ll_usb.c ****                                     USB_OTG_DOEPCTL_SD0PID_SEVNFRM |
 660:Drivers/STM32F4xx_HAL_Driver/Src/stm32f4xx_ll_usb.c ****                                     USB_OTG_DOEPCTL_EPTYP);
 661:Drivers/STM32F4xx_HAL_Driver/Src/stm32f4xx_ll_usb.c ****   }
 662:Drivers/STM32F4xx_HAL_Driver/Src/stm32f4xx_ll_usb.c **** 
 663:Drivers/STM32F4xx_HAL_Driver/Src/stm32f4xx_ll_usb.c ****   return HAL_OK;
 664:Drivers/STM32F4xx_HAL_Driver/Src/stm32f4xx_ll_usb.c **** }
 665:Drivers/STM32F4xx_HAL_Driver/Src/stm32f4xx_ll_usb.c **** 
 666:Drivers/STM32F4xx_HAL_Driver/Src/stm32f4xx_ll_usb.c **** /**
 667:Drivers/STM32F4xx_HAL_Driver/Src/stm32f4xx_ll_usb.c ****   * @brief  De-activate and de-initialize a dedicated endpoint
 668:Drivers/STM32F4xx_HAL_Driver/Src/stm32f4xx_ll_usb.c ****   * @param  USBx  Selected device
 669:Drivers/STM32F4xx_HAL_Driver/Src/stm32f4xx_ll_usb.c ****   * @param  ep pointer to endpoint structure
 670:Drivers/STM32F4xx_HAL_Driver/Src/stm32f4xx_ll_usb.c ****   * @retval HAL status
 671:Drivers/STM32F4xx_HAL_Driver/Src/stm32f4xx_ll_usb.c ****   */
 672:Drivers/STM32F4xx_HAL_Driver/Src/stm32f4xx_ll_usb.c **** HAL_StatusTypeDef USB_DeactivateDedicatedEndpoint(USB_OTG_GlobalTypeDef *USBx, USB_OTG_EPTypeDef *e
 673:Drivers/STM32F4xx_HAL_Driver/Src/stm32f4xx_ll_usb.c **** {
 674:Drivers/STM32F4xx_HAL_Driver/Src/stm32f4xx_ll_usb.c ****   uint32_t USBx_BASE = (uint32_t)USBx;
 675:Drivers/STM32F4xx_HAL_Driver/Src/stm32f4xx_ll_usb.c ****   uint32_t epnum = (uint32_t)ep->num;
 676:Drivers/STM32F4xx_HAL_Driver/Src/stm32f4xx_ll_usb.c **** 
 677:Drivers/STM32F4xx_HAL_Driver/Src/stm32f4xx_ll_usb.c ****   /* Read DEPCTLn register */
 678:Drivers/STM32F4xx_HAL_Driver/Src/stm32f4xx_ll_usb.c ****   if (ep->is_in == 1U)
 679:Drivers/STM32F4xx_HAL_Driver/Src/stm32f4xx_ll_usb.c ****   {
 680:Drivers/STM32F4xx_HAL_Driver/Src/stm32f4xx_ll_usb.c ****     if ((USBx_INEP(epnum)->DIEPCTL & USB_OTG_DIEPCTL_EPENA) == USB_OTG_DIEPCTL_EPENA)
 681:Drivers/STM32F4xx_HAL_Driver/Src/stm32f4xx_ll_usb.c ****     {
 682:Drivers/STM32F4xx_HAL_Driver/Src/stm32f4xx_ll_usb.c ****       USBx_INEP(epnum)->DIEPCTL  |= USB_OTG_DIEPCTL_SNAK;
 683:Drivers/STM32F4xx_HAL_Driver/Src/stm32f4xx_ll_usb.c ****       USBx_INEP(epnum)->DIEPCTL  |= USB_OTG_DIEPCTL_EPDIS;
 684:Drivers/STM32F4xx_HAL_Driver/Src/stm32f4xx_ll_usb.c ****     }
 685:Drivers/STM32F4xx_HAL_Driver/Src/stm32f4xx_ll_usb.c **** 
 686:Drivers/STM32F4xx_HAL_Driver/Src/stm32f4xx_ll_usb.c ****     USBx_INEP(epnum)->DIEPCTL &= ~ USB_OTG_DIEPCTL_USBAEP;
 687:Drivers/STM32F4xx_HAL_Driver/Src/stm32f4xx_ll_usb.c ****     USBx_DEVICE->DAINTMSK &= ~(USB_OTG_DAINTMSK_IEPM & (uint32_t)(1UL << (ep->num & EP_ADDR_MSK)));
 688:Drivers/STM32F4xx_HAL_Driver/Src/stm32f4xx_ll_usb.c ****   }
 689:Drivers/STM32F4xx_HAL_Driver/Src/stm32f4xx_ll_usb.c ****   else
 690:Drivers/STM32F4xx_HAL_Driver/Src/stm32f4xx_ll_usb.c ****   {
 691:Drivers/STM32F4xx_HAL_Driver/Src/stm32f4xx_ll_usb.c ****     if ((USBx_OUTEP(epnum)->DOEPCTL & USB_OTG_DOEPCTL_EPENA) == USB_OTG_DOEPCTL_EPENA)
 692:Drivers/STM32F4xx_HAL_Driver/Src/stm32f4xx_ll_usb.c ****     {
 693:Drivers/STM32F4xx_HAL_Driver/Src/stm32f4xx_ll_usb.c ****       USBx_OUTEP(epnum)->DOEPCTL  |= USB_OTG_DOEPCTL_SNAK;
 694:Drivers/STM32F4xx_HAL_Driver/Src/stm32f4xx_ll_usb.c ****       USBx_OUTEP(epnum)->DOEPCTL  |= USB_OTG_DOEPCTL_EPDIS;
 695:Drivers/STM32F4xx_HAL_Driver/Src/stm32f4xx_ll_usb.c ****     }
 696:Drivers/STM32F4xx_HAL_Driver/Src/stm32f4xx_ll_usb.c **** 
 697:Drivers/STM32F4xx_HAL_Driver/Src/stm32f4xx_ll_usb.c ****     USBx_OUTEP(epnum)->DOEPCTL &= ~USB_OTG_DOEPCTL_USBAEP;
 698:Drivers/STM32F4xx_HAL_Driver/Src/stm32f4xx_ll_usb.c ****     USBx_DEVICE->DAINTMSK &= ~(USB_OTG_DAINTMSK_OEPM & ((uint32_t)(1UL << (ep->num & EP_ADDR_MSK)) 
 699:Drivers/STM32F4xx_HAL_Driver/Src/stm32f4xx_ll_usb.c ****   }
 700:Drivers/STM32F4xx_HAL_Driver/Src/stm32f4xx_ll_usb.c **** 
 701:Drivers/STM32F4xx_HAL_Driver/Src/stm32f4xx_ll_usb.c ****   return HAL_OK;
 702:Drivers/STM32F4xx_HAL_Driver/Src/stm32f4xx_ll_usb.c **** }
 703:Drivers/STM32F4xx_HAL_Driver/Src/stm32f4xx_ll_usb.c **** 
 704:Drivers/STM32F4xx_HAL_Driver/Src/stm32f4xx_ll_usb.c **** /**
 705:Drivers/STM32F4xx_HAL_Driver/Src/stm32f4xx_ll_usb.c ****   * @brief  USB_EPStartXfer : setup and starts a transfer over an EP
 706:Drivers/STM32F4xx_HAL_Driver/Src/stm32f4xx_ll_usb.c ****   * @param  USBx  Selected device
 707:Drivers/STM32F4xx_HAL_Driver/Src/stm32f4xx_ll_usb.c ****   * @param  ep pointer to endpoint structure
 708:Drivers/STM32F4xx_HAL_Driver/Src/stm32f4xx_ll_usb.c ****   * @param  dma USB dma enabled or disabled
 709:Drivers/STM32F4xx_HAL_Driver/Src/stm32f4xx_ll_usb.c ****   *          This parameter can be one of these values:
 710:Drivers/STM32F4xx_HAL_Driver/Src/stm32f4xx_ll_usb.c ****   *           0 : DMA feature not used
 711:Drivers/STM32F4xx_HAL_Driver/Src/stm32f4xx_ll_usb.c ****   *           1 : DMA feature used
 712:Drivers/STM32F4xx_HAL_Driver/Src/stm32f4xx_ll_usb.c ****   * @retval HAL status
 713:Drivers/STM32F4xx_HAL_Driver/Src/stm32f4xx_ll_usb.c ****   */
ARM GAS  /tmp/ccDzXOxq.s 			page 14


 714:Drivers/STM32F4xx_HAL_Driver/Src/stm32f4xx_ll_usb.c **** HAL_StatusTypeDef USB_EPStartXfer(USB_OTG_GlobalTypeDef *USBx, USB_OTG_EPTypeDef *ep, uint8_t dma)
 715:Drivers/STM32F4xx_HAL_Driver/Src/stm32f4xx_ll_usb.c **** {
 716:Drivers/STM32F4xx_HAL_Driver/Src/stm32f4xx_ll_usb.c ****   uint32_t USBx_BASE = (uint32_t)USBx;
 717:Drivers/STM32F4xx_HAL_Driver/Src/stm32f4xx_ll_usb.c ****   uint32_t epnum = (uint32_t)ep->num;
 718:Drivers/STM32F4xx_HAL_Driver/Src/stm32f4xx_ll_usb.c ****   uint16_t pktcnt;
 719:Drivers/STM32F4xx_HAL_Driver/Src/stm32f4xx_ll_usb.c **** 
 720:Drivers/STM32F4xx_HAL_Driver/Src/stm32f4xx_ll_usb.c ****   /* IN endpoint */
 721:Drivers/STM32F4xx_HAL_Driver/Src/stm32f4xx_ll_usb.c ****   if (ep->is_in == 1U)
 722:Drivers/STM32F4xx_HAL_Driver/Src/stm32f4xx_ll_usb.c ****   {
 723:Drivers/STM32F4xx_HAL_Driver/Src/stm32f4xx_ll_usb.c ****     /* Zero Length Packet? */
 724:Drivers/STM32F4xx_HAL_Driver/Src/stm32f4xx_ll_usb.c ****     if (ep->xfer_len == 0U)
 725:Drivers/STM32F4xx_HAL_Driver/Src/stm32f4xx_ll_usb.c ****     {
 726:Drivers/STM32F4xx_HAL_Driver/Src/stm32f4xx_ll_usb.c ****       USBx_INEP(epnum)->DIEPTSIZ &= ~(USB_OTG_DIEPTSIZ_PKTCNT);
 727:Drivers/STM32F4xx_HAL_Driver/Src/stm32f4xx_ll_usb.c ****       USBx_INEP(epnum)->DIEPTSIZ |= (USB_OTG_DIEPTSIZ_PKTCNT & (1U << 19));
 728:Drivers/STM32F4xx_HAL_Driver/Src/stm32f4xx_ll_usb.c ****       USBx_INEP(epnum)->DIEPTSIZ &= ~(USB_OTG_DIEPTSIZ_XFRSIZ);
 729:Drivers/STM32F4xx_HAL_Driver/Src/stm32f4xx_ll_usb.c ****     }
 730:Drivers/STM32F4xx_HAL_Driver/Src/stm32f4xx_ll_usb.c ****     else
 731:Drivers/STM32F4xx_HAL_Driver/Src/stm32f4xx_ll_usb.c ****     {
 732:Drivers/STM32F4xx_HAL_Driver/Src/stm32f4xx_ll_usb.c ****       /* Program the transfer size and packet count
 733:Drivers/STM32F4xx_HAL_Driver/Src/stm32f4xx_ll_usb.c ****       * as follows: xfersize = N * maxpacket +
 734:Drivers/STM32F4xx_HAL_Driver/Src/stm32f4xx_ll_usb.c ****       * short_packet pktcnt = N + (short_packet
 735:Drivers/STM32F4xx_HAL_Driver/Src/stm32f4xx_ll_usb.c ****       * exist ? 1 : 0)
 736:Drivers/STM32F4xx_HAL_Driver/Src/stm32f4xx_ll_usb.c ****       */
 737:Drivers/STM32F4xx_HAL_Driver/Src/stm32f4xx_ll_usb.c ****       USBx_INEP(epnum)->DIEPTSIZ &= ~(USB_OTG_DIEPTSIZ_XFRSIZ);
 738:Drivers/STM32F4xx_HAL_Driver/Src/stm32f4xx_ll_usb.c ****       USBx_INEP(epnum)->DIEPTSIZ &= ~(USB_OTG_DIEPTSIZ_PKTCNT);
 739:Drivers/STM32F4xx_HAL_Driver/Src/stm32f4xx_ll_usb.c ****       USBx_INEP(epnum)->DIEPTSIZ |= (USB_OTG_DIEPTSIZ_PKTCNT & (((ep->xfer_len + ep->maxpacket - 1U
 740:Drivers/STM32F4xx_HAL_Driver/Src/stm32f4xx_ll_usb.c ****       USBx_INEP(epnum)->DIEPTSIZ |= (USB_OTG_DIEPTSIZ_XFRSIZ & ep->xfer_len);
 741:Drivers/STM32F4xx_HAL_Driver/Src/stm32f4xx_ll_usb.c **** 
 742:Drivers/STM32F4xx_HAL_Driver/Src/stm32f4xx_ll_usb.c ****       if (ep->type == EP_TYPE_ISOC)
 743:Drivers/STM32F4xx_HAL_Driver/Src/stm32f4xx_ll_usb.c ****       {
 744:Drivers/STM32F4xx_HAL_Driver/Src/stm32f4xx_ll_usb.c ****         USBx_INEP(epnum)->DIEPTSIZ &= ~(USB_OTG_DIEPTSIZ_MULCNT);
 745:Drivers/STM32F4xx_HAL_Driver/Src/stm32f4xx_ll_usb.c ****         USBx_INEP(epnum)->DIEPTSIZ |= (USB_OTG_DIEPTSIZ_MULCNT & (1U << 29));
 746:Drivers/STM32F4xx_HAL_Driver/Src/stm32f4xx_ll_usb.c ****       }
 747:Drivers/STM32F4xx_HAL_Driver/Src/stm32f4xx_ll_usb.c ****     }
 748:Drivers/STM32F4xx_HAL_Driver/Src/stm32f4xx_ll_usb.c **** 
 749:Drivers/STM32F4xx_HAL_Driver/Src/stm32f4xx_ll_usb.c ****     if (dma == 1U)
 750:Drivers/STM32F4xx_HAL_Driver/Src/stm32f4xx_ll_usb.c ****     {
 751:Drivers/STM32F4xx_HAL_Driver/Src/stm32f4xx_ll_usb.c ****       if ((uint32_t)ep->dma_addr != 0U)
 752:Drivers/STM32F4xx_HAL_Driver/Src/stm32f4xx_ll_usb.c ****       {
 753:Drivers/STM32F4xx_HAL_Driver/Src/stm32f4xx_ll_usb.c ****         USBx_INEP(epnum)->DIEPDMA = (uint32_t)(ep->dma_addr);
 754:Drivers/STM32F4xx_HAL_Driver/Src/stm32f4xx_ll_usb.c ****       }
 755:Drivers/STM32F4xx_HAL_Driver/Src/stm32f4xx_ll_usb.c **** 
 756:Drivers/STM32F4xx_HAL_Driver/Src/stm32f4xx_ll_usb.c ****       if (ep->type == EP_TYPE_ISOC)
 757:Drivers/STM32F4xx_HAL_Driver/Src/stm32f4xx_ll_usb.c ****       {
 758:Drivers/STM32F4xx_HAL_Driver/Src/stm32f4xx_ll_usb.c ****         if ((USBx_DEVICE->DSTS & (1U << 8)) == 0U)
 759:Drivers/STM32F4xx_HAL_Driver/Src/stm32f4xx_ll_usb.c ****         {
 760:Drivers/STM32F4xx_HAL_Driver/Src/stm32f4xx_ll_usb.c ****           USBx_INEP(epnum)->DIEPCTL |= USB_OTG_DIEPCTL_SODDFRM;
 761:Drivers/STM32F4xx_HAL_Driver/Src/stm32f4xx_ll_usb.c ****         }
 762:Drivers/STM32F4xx_HAL_Driver/Src/stm32f4xx_ll_usb.c ****         else
 763:Drivers/STM32F4xx_HAL_Driver/Src/stm32f4xx_ll_usb.c ****         {
 764:Drivers/STM32F4xx_HAL_Driver/Src/stm32f4xx_ll_usb.c ****           USBx_INEP(epnum)->DIEPCTL |= USB_OTG_DIEPCTL_SD0PID_SEVNFRM;
 765:Drivers/STM32F4xx_HAL_Driver/Src/stm32f4xx_ll_usb.c ****         }
 766:Drivers/STM32F4xx_HAL_Driver/Src/stm32f4xx_ll_usb.c ****       }
 767:Drivers/STM32F4xx_HAL_Driver/Src/stm32f4xx_ll_usb.c **** 
 768:Drivers/STM32F4xx_HAL_Driver/Src/stm32f4xx_ll_usb.c ****       /* EP enable, IN data in FIFO */
 769:Drivers/STM32F4xx_HAL_Driver/Src/stm32f4xx_ll_usb.c ****       USBx_INEP(epnum)->DIEPCTL |= (USB_OTG_DIEPCTL_CNAK | USB_OTG_DIEPCTL_EPENA);
 770:Drivers/STM32F4xx_HAL_Driver/Src/stm32f4xx_ll_usb.c ****     }
ARM GAS  /tmp/ccDzXOxq.s 			page 15


 771:Drivers/STM32F4xx_HAL_Driver/Src/stm32f4xx_ll_usb.c ****     else
 772:Drivers/STM32F4xx_HAL_Driver/Src/stm32f4xx_ll_usb.c ****     {
 773:Drivers/STM32F4xx_HAL_Driver/Src/stm32f4xx_ll_usb.c ****       /* EP enable, IN data in FIFO */
 774:Drivers/STM32F4xx_HAL_Driver/Src/stm32f4xx_ll_usb.c ****       USBx_INEP(epnum)->DIEPCTL |= (USB_OTG_DIEPCTL_CNAK | USB_OTG_DIEPCTL_EPENA);
 775:Drivers/STM32F4xx_HAL_Driver/Src/stm32f4xx_ll_usb.c **** 
 776:Drivers/STM32F4xx_HAL_Driver/Src/stm32f4xx_ll_usb.c ****       if (ep->type != EP_TYPE_ISOC)
 777:Drivers/STM32F4xx_HAL_Driver/Src/stm32f4xx_ll_usb.c ****       {
 778:Drivers/STM32F4xx_HAL_Driver/Src/stm32f4xx_ll_usb.c ****         /* Enable the Tx FIFO Empty Interrupt for this EP */
 779:Drivers/STM32F4xx_HAL_Driver/Src/stm32f4xx_ll_usb.c ****         if (ep->xfer_len > 0U)
 780:Drivers/STM32F4xx_HAL_Driver/Src/stm32f4xx_ll_usb.c ****         {
 781:Drivers/STM32F4xx_HAL_Driver/Src/stm32f4xx_ll_usb.c ****           USBx_DEVICE->DIEPEMPMSK |= 1UL << (ep->num & EP_ADDR_MSK);
 782:Drivers/STM32F4xx_HAL_Driver/Src/stm32f4xx_ll_usb.c ****         }
 783:Drivers/STM32F4xx_HAL_Driver/Src/stm32f4xx_ll_usb.c ****       }
 784:Drivers/STM32F4xx_HAL_Driver/Src/stm32f4xx_ll_usb.c ****       else
 785:Drivers/STM32F4xx_HAL_Driver/Src/stm32f4xx_ll_usb.c ****       {
 786:Drivers/STM32F4xx_HAL_Driver/Src/stm32f4xx_ll_usb.c ****         if ((USBx_DEVICE->DSTS & (1U << 8)) == 0U)
 787:Drivers/STM32F4xx_HAL_Driver/Src/stm32f4xx_ll_usb.c ****         {
 788:Drivers/STM32F4xx_HAL_Driver/Src/stm32f4xx_ll_usb.c ****           USBx_INEP(epnum)->DIEPCTL |= USB_OTG_DIEPCTL_SODDFRM;
 789:Drivers/STM32F4xx_HAL_Driver/Src/stm32f4xx_ll_usb.c ****         }
 790:Drivers/STM32F4xx_HAL_Driver/Src/stm32f4xx_ll_usb.c ****         else
 791:Drivers/STM32F4xx_HAL_Driver/Src/stm32f4xx_ll_usb.c ****         {
 792:Drivers/STM32F4xx_HAL_Driver/Src/stm32f4xx_ll_usb.c ****           USBx_INEP(epnum)->DIEPCTL |= USB_OTG_DIEPCTL_SD0PID_SEVNFRM;
 793:Drivers/STM32F4xx_HAL_Driver/Src/stm32f4xx_ll_usb.c ****         }
 794:Drivers/STM32F4xx_HAL_Driver/Src/stm32f4xx_ll_usb.c **** 
 795:Drivers/STM32F4xx_HAL_Driver/Src/stm32f4xx_ll_usb.c ****         (void)USB_WritePacket(USBx, ep->xfer_buff, ep->num, (uint16_t)ep->xfer_len, dma);
 796:Drivers/STM32F4xx_HAL_Driver/Src/stm32f4xx_ll_usb.c ****       }
 797:Drivers/STM32F4xx_HAL_Driver/Src/stm32f4xx_ll_usb.c ****     }
 798:Drivers/STM32F4xx_HAL_Driver/Src/stm32f4xx_ll_usb.c ****   }
 799:Drivers/STM32F4xx_HAL_Driver/Src/stm32f4xx_ll_usb.c ****   else /* OUT endpoint */
 800:Drivers/STM32F4xx_HAL_Driver/Src/stm32f4xx_ll_usb.c ****   {
 801:Drivers/STM32F4xx_HAL_Driver/Src/stm32f4xx_ll_usb.c ****     /* Program the transfer size and packet count as follows:
 802:Drivers/STM32F4xx_HAL_Driver/Src/stm32f4xx_ll_usb.c ****     * pktcnt = N
 803:Drivers/STM32F4xx_HAL_Driver/Src/stm32f4xx_ll_usb.c ****     * xfersize = N * maxpacket
 804:Drivers/STM32F4xx_HAL_Driver/Src/stm32f4xx_ll_usb.c ****     */
 805:Drivers/STM32F4xx_HAL_Driver/Src/stm32f4xx_ll_usb.c ****     USBx_OUTEP(epnum)->DOEPTSIZ &= ~(USB_OTG_DOEPTSIZ_XFRSIZ);
 806:Drivers/STM32F4xx_HAL_Driver/Src/stm32f4xx_ll_usb.c ****     USBx_OUTEP(epnum)->DOEPTSIZ &= ~(USB_OTG_DOEPTSIZ_PKTCNT);
 807:Drivers/STM32F4xx_HAL_Driver/Src/stm32f4xx_ll_usb.c **** 
 808:Drivers/STM32F4xx_HAL_Driver/Src/stm32f4xx_ll_usb.c ****     if (ep->xfer_len == 0U)
 809:Drivers/STM32F4xx_HAL_Driver/Src/stm32f4xx_ll_usb.c ****     {
 810:Drivers/STM32F4xx_HAL_Driver/Src/stm32f4xx_ll_usb.c ****       USBx_OUTEP(epnum)->DOEPTSIZ |= (USB_OTG_DOEPTSIZ_XFRSIZ & ep->maxpacket);
 811:Drivers/STM32F4xx_HAL_Driver/Src/stm32f4xx_ll_usb.c ****       USBx_OUTEP(epnum)->DOEPTSIZ |= (USB_OTG_DOEPTSIZ_PKTCNT & (1U << 19));
 812:Drivers/STM32F4xx_HAL_Driver/Src/stm32f4xx_ll_usb.c ****     }
 813:Drivers/STM32F4xx_HAL_Driver/Src/stm32f4xx_ll_usb.c ****     else
 814:Drivers/STM32F4xx_HAL_Driver/Src/stm32f4xx_ll_usb.c ****     {
 815:Drivers/STM32F4xx_HAL_Driver/Src/stm32f4xx_ll_usb.c ****       pktcnt = (uint16_t)((ep->xfer_len + ep->maxpacket - 1U) / ep->maxpacket);
 816:Drivers/STM32F4xx_HAL_Driver/Src/stm32f4xx_ll_usb.c ****       USBx_OUTEP(epnum)->DOEPTSIZ |= USB_OTG_DOEPTSIZ_PKTCNT & ((uint32_t)pktcnt << 19);
 817:Drivers/STM32F4xx_HAL_Driver/Src/stm32f4xx_ll_usb.c ****       USBx_OUTEP(epnum)->DOEPTSIZ |= USB_OTG_DOEPTSIZ_XFRSIZ & (ep->maxpacket * pktcnt);
 818:Drivers/STM32F4xx_HAL_Driver/Src/stm32f4xx_ll_usb.c ****     }
 819:Drivers/STM32F4xx_HAL_Driver/Src/stm32f4xx_ll_usb.c **** 
 820:Drivers/STM32F4xx_HAL_Driver/Src/stm32f4xx_ll_usb.c ****     if (dma == 1U)
 821:Drivers/STM32F4xx_HAL_Driver/Src/stm32f4xx_ll_usb.c ****     {
 822:Drivers/STM32F4xx_HAL_Driver/Src/stm32f4xx_ll_usb.c ****       if ((uint32_t)ep->xfer_buff != 0U)
 823:Drivers/STM32F4xx_HAL_Driver/Src/stm32f4xx_ll_usb.c ****       {
 824:Drivers/STM32F4xx_HAL_Driver/Src/stm32f4xx_ll_usb.c ****         USBx_OUTEP(epnum)->DOEPDMA = (uint32_t)(ep->xfer_buff);
 825:Drivers/STM32F4xx_HAL_Driver/Src/stm32f4xx_ll_usb.c ****       }
 826:Drivers/STM32F4xx_HAL_Driver/Src/stm32f4xx_ll_usb.c ****     }
 827:Drivers/STM32F4xx_HAL_Driver/Src/stm32f4xx_ll_usb.c **** 
ARM GAS  /tmp/ccDzXOxq.s 			page 16


 828:Drivers/STM32F4xx_HAL_Driver/Src/stm32f4xx_ll_usb.c ****     if (ep->type == EP_TYPE_ISOC)
 829:Drivers/STM32F4xx_HAL_Driver/Src/stm32f4xx_ll_usb.c ****     {
 830:Drivers/STM32F4xx_HAL_Driver/Src/stm32f4xx_ll_usb.c ****       if ((USBx_DEVICE->DSTS & (1U << 8)) == 0U)
 831:Drivers/STM32F4xx_HAL_Driver/Src/stm32f4xx_ll_usb.c ****       {
 832:Drivers/STM32F4xx_HAL_Driver/Src/stm32f4xx_ll_usb.c ****         USBx_OUTEP(epnum)->DOEPCTL |= USB_OTG_DOEPCTL_SODDFRM;
 833:Drivers/STM32F4xx_HAL_Driver/Src/stm32f4xx_ll_usb.c ****       }
 834:Drivers/STM32F4xx_HAL_Driver/Src/stm32f4xx_ll_usb.c ****       else
 835:Drivers/STM32F4xx_HAL_Driver/Src/stm32f4xx_ll_usb.c ****       {
 836:Drivers/STM32F4xx_HAL_Driver/Src/stm32f4xx_ll_usb.c ****         USBx_OUTEP(epnum)->DOEPCTL |= USB_OTG_DOEPCTL_SD0PID_SEVNFRM;
 837:Drivers/STM32F4xx_HAL_Driver/Src/stm32f4xx_ll_usb.c ****       }
 838:Drivers/STM32F4xx_HAL_Driver/Src/stm32f4xx_ll_usb.c ****     }
 839:Drivers/STM32F4xx_HAL_Driver/Src/stm32f4xx_ll_usb.c ****     /* EP enable */
 840:Drivers/STM32F4xx_HAL_Driver/Src/stm32f4xx_ll_usb.c ****     USBx_OUTEP(epnum)->DOEPCTL |= (USB_OTG_DOEPCTL_CNAK | USB_OTG_DOEPCTL_EPENA);
 841:Drivers/STM32F4xx_HAL_Driver/Src/stm32f4xx_ll_usb.c ****   }
 842:Drivers/STM32F4xx_HAL_Driver/Src/stm32f4xx_ll_usb.c **** 
 843:Drivers/STM32F4xx_HAL_Driver/Src/stm32f4xx_ll_usb.c ****   return HAL_OK;
 844:Drivers/STM32F4xx_HAL_Driver/Src/stm32f4xx_ll_usb.c **** }
 845:Drivers/STM32F4xx_HAL_Driver/Src/stm32f4xx_ll_usb.c **** 
 846:Drivers/STM32F4xx_HAL_Driver/Src/stm32f4xx_ll_usb.c **** /**
 847:Drivers/STM32F4xx_HAL_Driver/Src/stm32f4xx_ll_usb.c ****   * @brief  USB_EP0StartXfer : setup and starts a transfer over the EP  0
 848:Drivers/STM32F4xx_HAL_Driver/Src/stm32f4xx_ll_usb.c ****   * @param  USBx  Selected device
 849:Drivers/STM32F4xx_HAL_Driver/Src/stm32f4xx_ll_usb.c ****   * @param  ep pointer to endpoint structure
 850:Drivers/STM32F4xx_HAL_Driver/Src/stm32f4xx_ll_usb.c ****   * @param  dma USB dma enabled or disabled
 851:Drivers/STM32F4xx_HAL_Driver/Src/stm32f4xx_ll_usb.c ****   *          This parameter can be one of these values:
 852:Drivers/STM32F4xx_HAL_Driver/Src/stm32f4xx_ll_usb.c ****   *           0 : DMA feature not used
 853:Drivers/STM32F4xx_HAL_Driver/Src/stm32f4xx_ll_usb.c ****   *           1 : DMA feature used
 854:Drivers/STM32F4xx_HAL_Driver/Src/stm32f4xx_ll_usb.c ****   * @retval HAL status
 855:Drivers/STM32F4xx_HAL_Driver/Src/stm32f4xx_ll_usb.c ****   */
 856:Drivers/STM32F4xx_HAL_Driver/Src/stm32f4xx_ll_usb.c **** HAL_StatusTypeDef USB_EP0StartXfer(USB_OTG_GlobalTypeDef *USBx, USB_OTG_EPTypeDef *ep, uint8_t dma)
 857:Drivers/STM32F4xx_HAL_Driver/Src/stm32f4xx_ll_usb.c **** {
 858:Drivers/STM32F4xx_HAL_Driver/Src/stm32f4xx_ll_usb.c ****   uint32_t USBx_BASE = (uint32_t)USBx;
 859:Drivers/STM32F4xx_HAL_Driver/Src/stm32f4xx_ll_usb.c ****   uint32_t epnum = (uint32_t)ep->num;
 860:Drivers/STM32F4xx_HAL_Driver/Src/stm32f4xx_ll_usb.c **** 
 861:Drivers/STM32F4xx_HAL_Driver/Src/stm32f4xx_ll_usb.c ****   /* IN endpoint */
 862:Drivers/STM32F4xx_HAL_Driver/Src/stm32f4xx_ll_usb.c ****   if (ep->is_in == 1U)
 863:Drivers/STM32F4xx_HAL_Driver/Src/stm32f4xx_ll_usb.c ****   {
 864:Drivers/STM32F4xx_HAL_Driver/Src/stm32f4xx_ll_usb.c ****     /* Zero Length Packet? */
 865:Drivers/STM32F4xx_HAL_Driver/Src/stm32f4xx_ll_usb.c ****     if (ep->xfer_len == 0U)
 866:Drivers/STM32F4xx_HAL_Driver/Src/stm32f4xx_ll_usb.c ****     {
 867:Drivers/STM32F4xx_HAL_Driver/Src/stm32f4xx_ll_usb.c ****       USBx_INEP(epnum)->DIEPTSIZ &= ~(USB_OTG_DIEPTSIZ_PKTCNT);
 868:Drivers/STM32F4xx_HAL_Driver/Src/stm32f4xx_ll_usb.c ****       USBx_INEP(epnum)->DIEPTSIZ |= (USB_OTG_DIEPTSIZ_PKTCNT & (1U << 19));
 869:Drivers/STM32F4xx_HAL_Driver/Src/stm32f4xx_ll_usb.c ****       USBx_INEP(epnum)->DIEPTSIZ &= ~(USB_OTG_DIEPTSIZ_XFRSIZ);
 870:Drivers/STM32F4xx_HAL_Driver/Src/stm32f4xx_ll_usb.c ****     }
 871:Drivers/STM32F4xx_HAL_Driver/Src/stm32f4xx_ll_usb.c ****     else
 872:Drivers/STM32F4xx_HAL_Driver/Src/stm32f4xx_ll_usb.c ****     {
 873:Drivers/STM32F4xx_HAL_Driver/Src/stm32f4xx_ll_usb.c ****       /* Program the transfer size and packet count
 874:Drivers/STM32F4xx_HAL_Driver/Src/stm32f4xx_ll_usb.c ****       * as follows: xfersize = N * maxpacket +
 875:Drivers/STM32F4xx_HAL_Driver/Src/stm32f4xx_ll_usb.c ****       * short_packet pktcnt = N + (short_packet
 876:Drivers/STM32F4xx_HAL_Driver/Src/stm32f4xx_ll_usb.c ****       * exist ? 1 : 0)
 877:Drivers/STM32F4xx_HAL_Driver/Src/stm32f4xx_ll_usb.c ****       */
 878:Drivers/STM32F4xx_HAL_Driver/Src/stm32f4xx_ll_usb.c ****       USBx_INEP(epnum)->DIEPTSIZ &= ~(USB_OTG_DIEPTSIZ_XFRSIZ);
 879:Drivers/STM32F4xx_HAL_Driver/Src/stm32f4xx_ll_usb.c ****       USBx_INEP(epnum)->DIEPTSIZ &= ~(USB_OTG_DIEPTSIZ_PKTCNT);
 880:Drivers/STM32F4xx_HAL_Driver/Src/stm32f4xx_ll_usb.c **** 
 881:Drivers/STM32F4xx_HAL_Driver/Src/stm32f4xx_ll_usb.c ****       if (ep->xfer_len > ep->maxpacket)
 882:Drivers/STM32F4xx_HAL_Driver/Src/stm32f4xx_ll_usb.c ****       {
 883:Drivers/STM32F4xx_HAL_Driver/Src/stm32f4xx_ll_usb.c ****         ep->xfer_len = ep->maxpacket;
 884:Drivers/STM32F4xx_HAL_Driver/Src/stm32f4xx_ll_usb.c ****       }
ARM GAS  /tmp/ccDzXOxq.s 			page 17


 885:Drivers/STM32F4xx_HAL_Driver/Src/stm32f4xx_ll_usb.c ****       USBx_INEP(epnum)->DIEPTSIZ |= (USB_OTG_DIEPTSIZ_PKTCNT & (1U << 19));
 886:Drivers/STM32F4xx_HAL_Driver/Src/stm32f4xx_ll_usb.c ****       USBx_INEP(epnum)->DIEPTSIZ |= (USB_OTG_DIEPTSIZ_XFRSIZ & ep->xfer_len);
 887:Drivers/STM32F4xx_HAL_Driver/Src/stm32f4xx_ll_usb.c ****     }
 888:Drivers/STM32F4xx_HAL_Driver/Src/stm32f4xx_ll_usb.c **** 
 889:Drivers/STM32F4xx_HAL_Driver/Src/stm32f4xx_ll_usb.c ****     if (dma == 1U)
 890:Drivers/STM32F4xx_HAL_Driver/Src/stm32f4xx_ll_usb.c ****     {
 891:Drivers/STM32F4xx_HAL_Driver/Src/stm32f4xx_ll_usb.c ****       if ((uint32_t)ep->dma_addr != 0U)
 892:Drivers/STM32F4xx_HAL_Driver/Src/stm32f4xx_ll_usb.c ****       {
 893:Drivers/STM32F4xx_HAL_Driver/Src/stm32f4xx_ll_usb.c ****         USBx_INEP(epnum)->DIEPDMA = (uint32_t)(ep->dma_addr);
 894:Drivers/STM32F4xx_HAL_Driver/Src/stm32f4xx_ll_usb.c ****       }
 895:Drivers/STM32F4xx_HAL_Driver/Src/stm32f4xx_ll_usb.c **** 
 896:Drivers/STM32F4xx_HAL_Driver/Src/stm32f4xx_ll_usb.c ****       /* EP enable, IN data in FIFO */
 897:Drivers/STM32F4xx_HAL_Driver/Src/stm32f4xx_ll_usb.c ****       USBx_INEP(epnum)->DIEPCTL |= (USB_OTG_DIEPCTL_CNAK | USB_OTG_DIEPCTL_EPENA);
 898:Drivers/STM32F4xx_HAL_Driver/Src/stm32f4xx_ll_usb.c ****     }
 899:Drivers/STM32F4xx_HAL_Driver/Src/stm32f4xx_ll_usb.c ****     else
 900:Drivers/STM32F4xx_HAL_Driver/Src/stm32f4xx_ll_usb.c ****     {
 901:Drivers/STM32F4xx_HAL_Driver/Src/stm32f4xx_ll_usb.c ****       /* EP enable, IN data in FIFO */
 902:Drivers/STM32F4xx_HAL_Driver/Src/stm32f4xx_ll_usb.c ****       USBx_INEP(epnum)->DIEPCTL |= (USB_OTG_DIEPCTL_CNAK | USB_OTG_DIEPCTL_EPENA);
 903:Drivers/STM32F4xx_HAL_Driver/Src/stm32f4xx_ll_usb.c **** 
 904:Drivers/STM32F4xx_HAL_Driver/Src/stm32f4xx_ll_usb.c ****       /* Enable the Tx FIFO Empty Interrupt for this EP */
 905:Drivers/STM32F4xx_HAL_Driver/Src/stm32f4xx_ll_usb.c ****       if (ep->xfer_len > 0U)
 906:Drivers/STM32F4xx_HAL_Driver/Src/stm32f4xx_ll_usb.c ****       {
 907:Drivers/STM32F4xx_HAL_Driver/Src/stm32f4xx_ll_usb.c ****         USBx_DEVICE->DIEPEMPMSK |= 1UL << (ep->num & EP_ADDR_MSK);
 908:Drivers/STM32F4xx_HAL_Driver/Src/stm32f4xx_ll_usb.c ****       }
 909:Drivers/STM32F4xx_HAL_Driver/Src/stm32f4xx_ll_usb.c ****     }
 910:Drivers/STM32F4xx_HAL_Driver/Src/stm32f4xx_ll_usb.c ****   }
 911:Drivers/STM32F4xx_HAL_Driver/Src/stm32f4xx_ll_usb.c ****   else /* OUT endpoint */
 912:Drivers/STM32F4xx_HAL_Driver/Src/stm32f4xx_ll_usb.c ****   {
 913:Drivers/STM32F4xx_HAL_Driver/Src/stm32f4xx_ll_usb.c ****     /* Program the transfer size and packet count as follows:
 914:Drivers/STM32F4xx_HAL_Driver/Src/stm32f4xx_ll_usb.c ****     * pktcnt = N
 915:Drivers/STM32F4xx_HAL_Driver/Src/stm32f4xx_ll_usb.c ****     * xfersize = N * maxpacket
 916:Drivers/STM32F4xx_HAL_Driver/Src/stm32f4xx_ll_usb.c ****     */
 917:Drivers/STM32F4xx_HAL_Driver/Src/stm32f4xx_ll_usb.c ****     USBx_OUTEP(epnum)->DOEPTSIZ &= ~(USB_OTG_DOEPTSIZ_XFRSIZ);
 918:Drivers/STM32F4xx_HAL_Driver/Src/stm32f4xx_ll_usb.c ****     USBx_OUTEP(epnum)->DOEPTSIZ &= ~(USB_OTG_DOEPTSIZ_PKTCNT);
 919:Drivers/STM32F4xx_HAL_Driver/Src/stm32f4xx_ll_usb.c **** 
 920:Drivers/STM32F4xx_HAL_Driver/Src/stm32f4xx_ll_usb.c ****     if (ep->xfer_len > 0U)
 921:Drivers/STM32F4xx_HAL_Driver/Src/stm32f4xx_ll_usb.c ****     {
 922:Drivers/STM32F4xx_HAL_Driver/Src/stm32f4xx_ll_usb.c ****       ep->xfer_len = ep->maxpacket;
 923:Drivers/STM32F4xx_HAL_Driver/Src/stm32f4xx_ll_usb.c ****     }
 924:Drivers/STM32F4xx_HAL_Driver/Src/stm32f4xx_ll_usb.c **** 
 925:Drivers/STM32F4xx_HAL_Driver/Src/stm32f4xx_ll_usb.c ****     USBx_OUTEP(epnum)->DOEPTSIZ |= (USB_OTG_DOEPTSIZ_PKTCNT & (1U << 19));
 926:Drivers/STM32F4xx_HAL_Driver/Src/stm32f4xx_ll_usb.c ****     USBx_OUTEP(epnum)->DOEPTSIZ |= (USB_OTG_DOEPTSIZ_XFRSIZ & (ep->maxpacket));
 927:Drivers/STM32F4xx_HAL_Driver/Src/stm32f4xx_ll_usb.c **** 
 928:Drivers/STM32F4xx_HAL_Driver/Src/stm32f4xx_ll_usb.c ****     if (dma == 1U)
 929:Drivers/STM32F4xx_HAL_Driver/Src/stm32f4xx_ll_usb.c ****     {
 930:Drivers/STM32F4xx_HAL_Driver/Src/stm32f4xx_ll_usb.c ****       if ((uint32_t)ep->xfer_buff != 0U)
 931:Drivers/STM32F4xx_HAL_Driver/Src/stm32f4xx_ll_usb.c ****       {
 932:Drivers/STM32F4xx_HAL_Driver/Src/stm32f4xx_ll_usb.c ****         USBx_OUTEP(epnum)->DOEPDMA = (uint32_t)(ep->xfer_buff);
 933:Drivers/STM32F4xx_HAL_Driver/Src/stm32f4xx_ll_usb.c ****       }
 934:Drivers/STM32F4xx_HAL_Driver/Src/stm32f4xx_ll_usb.c ****     }
 935:Drivers/STM32F4xx_HAL_Driver/Src/stm32f4xx_ll_usb.c **** 
 936:Drivers/STM32F4xx_HAL_Driver/Src/stm32f4xx_ll_usb.c ****     /* EP enable */
 937:Drivers/STM32F4xx_HAL_Driver/Src/stm32f4xx_ll_usb.c ****     USBx_OUTEP(epnum)->DOEPCTL |= (USB_OTG_DOEPCTL_CNAK | USB_OTG_DOEPCTL_EPENA);
 938:Drivers/STM32F4xx_HAL_Driver/Src/stm32f4xx_ll_usb.c ****   }
 939:Drivers/STM32F4xx_HAL_Driver/Src/stm32f4xx_ll_usb.c **** 
 940:Drivers/STM32F4xx_HAL_Driver/Src/stm32f4xx_ll_usb.c ****   return HAL_OK;
 941:Drivers/STM32F4xx_HAL_Driver/Src/stm32f4xx_ll_usb.c **** }
ARM GAS  /tmp/ccDzXOxq.s 			page 18


 942:Drivers/STM32F4xx_HAL_Driver/Src/stm32f4xx_ll_usb.c **** 
 943:Drivers/STM32F4xx_HAL_Driver/Src/stm32f4xx_ll_usb.c **** /**
 944:Drivers/STM32F4xx_HAL_Driver/Src/stm32f4xx_ll_usb.c ****   * @brief  USB_WritePacket : Writes a packet into the Tx FIFO associated
 945:Drivers/STM32F4xx_HAL_Driver/Src/stm32f4xx_ll_usb.c ****   *         with the EP/channel
 946:Drivers/STM32F4xx_HAL_Driver/Src/stm32f4xx_ll_usb.c ****   * @param  USBx  Selected device
 947:Drivers/STM32F4xx_HAL_Driver/Src/stm32f4xx_ll_usb.c ****   * @param  src   pointer to source buffer
 948:Drivers/STM32F4xx_HAL_Driver/Src/stm32f4xx_ll_usb.c ****   * @param  ch_ep_num  endpoint or host channel number
 949:Drivers/STM32F4xx_HAL_Driver/Src/stm32f4xx_ll_usb.c ****   * @param  len  Number of bytes to write
 950:Drivers/STM32F4xx_HAL_Driver/Src/stm32f4xx_ll_usb.c ****   * @param  dma USB dma enabled or disabled
 951:Drivers/STM32F4xx_HAL_Driver/Src/stm32f4xx_ll_usb.c ****   *          This parameter can be one of these values:
 952:Drivers/STM32F4xx_HAL_Driver/Src/stm32f4xx_ll_usb.c ****   *           0 : DMA feature not used
 953:Drivers/STM32F4xx_HAL_Driver/Src/stm32f4xx_ll_usb.c ****   *           1 : DMA feature used
 954:Drivers/STM32F4xx_HAL_Driver/Src/stm32f4xx_ll_usb.c ****   * @retval HAL status
 955:Drivers/STM32F4xx_HAL_Driver/Src/stm32f4xx_ll_usb.c ****   */
 956:Drivers/STM32F4xx_HAL_Driver/Src/stm32f4xx_ll_usb.c **** HAL_StatusTypeDef USB_WritePacket(USB_OTG_GlobalTypeDef *USBx, uint8_t *src,
 957:Drivers/STM32F4xx_HAL_Driver/Src/stm32f4xx_ll_usb.c ****                                   uint8_t ch_ep_num, uint16_t len, uint8_t dma)
 958:Drivers/STM32F4xx_HAL_Driver/Src/stm32f4xx_ll_usb.c **** {
 959:Drivers/STM32F4xx_HAL_Driver/Src/stm32f4xx_ll_usb.c ****   uint32_t USBx_BASE = (uint32_t)USBx;
 960:Drivers/STM32F4xx_HAL_Driver/Src/stm32f4xx_ll_usb.c ****   uint32_t *pSrc = (uint32_t *)src;
 961:Drivers/STM32F4xx_HAL_Driver/Src/stm32f4xx_ll_usb.c ****   uint32_t count32b, i;
 962:Drivers/STM32F4xx_HAL_Driver/Src/stm32f4xx_ll_usb.c **** 
 963:Drivers/STM32F4xx_HAL_Driver/Src/stm32f4xx_ll_usb.c ****   if (dma == 0U)
 964:Drivers/STM32F4xx_HAL_Driver/Src/stm32f4xx_ll_usb.c ****   {
 965:Drivers/STM32F4xx_HAL_Driver/Src/stm32f4xx_ll_usb.c ****     count32b = ((uint32_t)len + 3U) / 4U;
 966:Drivers/STM32F4xx_HAL_Driver/Src/stm32f4xx_ll_usb.c ****     for (i = 0U; i < count32b; i++)
 967:Drivers/STM32F4xx_HAL_Driver/Src/stm32f4xx_ll_usb.c ****     {
 968:Drivers/STM32F4xx_HAL_Driver/Src/stm32f4xx_ll_usb.c ****       USBx_DFIFO((uint32_t)ch_ep_num) = __UNALIGNED_UINT32_READ(pSrc);
 969:Drivers/STM32F4xx_HAL_Driver/Src/stm32f4xx_ll_usb.c ****       pSrc++;
 970:Drivers/STM32F4xx_HAL_Driver/Src/stm32f4xx_ll_usb.c ****     }
 971:Drivers/STM32F4xx_HAL_Driver/Src/stm32f4xx_ll_usb.c ****   }
 972:Drivers/STM32F4xx_HAL_Driver/Src/stm32f4xx_ll_usb.c **** 
 973:Drivers/STM32F4xx_HAL_Driver/Src/stm32f4xx_ll_usb.c ****   return HAL_OK;
 974:Drivers/STM32F4xx_HAL_Driver/Src/stm32f4xx_ll_usb.c **** }
 975:Drivers/STM32F4xx_HAL_Driver/Src/stm32f4xx_ll_usb.c **** 
 976:Drivers/STM32F4xx_HAL_Driver/Src/stm32f4xx_ll_usb.c **** /**
 977:Drivers/STM32F4xx_HAL_Driver/Src/stm32f4xx_ll_usb.c ****   * @brief  USB_ReadPacket : read a packet from the RX FIFO
 978:Drivers/STM32F4xx_HAL_Driver/Src/stm32f4xx_ll_usb.c ****   * @param  USBx  Selected device
 979:Drivers/STM32F4xx_HAL_Driver/Src/stm32f4xx_ll_usb.c ****   * @param  dest  source pointer
 980:Drivers/STM32F4xx_HAL_Driver/Src/stm32f4xx_ll_usb.c ****   * @param  len  Number of bytes to read
 981:Drivers/STM32F4xx_HAL_Driver/Src/stm32f4xx_ll_usb.c ****   * @retval pointer to destination buffer
 982:Drivers/STM32F4xx_HAL_Driver/Src/stm32f4xx_ll_usb.c ****   */
 983:Drivers/STM32F4xx_HAL_Driver/Src/stm32f4xx_ll_usb.c **** void *USB_ReadPacket(USB_OTG_GlobalTypeDef *USBx, uint8_t *dest, uint16_t len)
 984:Drivers/STM32F4xx_HAL_Driver/Src/stm32f4xx_ll_usb.c **** {
 985:Drivers/STM32F4xx_HAL_Driver/Src/stm32f4xx_ll_usb.c ****   uint32_t USBx_BASE = (uint32_t)USBx;
 986:Drivers/STM32F4xx_HAL_Driver/Src/stm32f4xx_ll_usb.c ****   uint32_t *pDest = (uint32_t *)dest;
 987:Drivers/STM32F4xx_HAL_Driver/Src/stm32f4xx_ll_usb.c ****   uint32_t i;
 988:Drivers/STM32F4xx_HAL_Driver/Src/stm32f4xx_ll_usb.c ****   uint32_t count32b = ((uint32_t)len + 3U) / 4U;
 989:Drivers/STM32F4xx_HAL_Driver/Src/stm32f4xx_ll_usb.c **** 
 990:Drivers/STM32F4xx_HAL_Driver/Src/stm32f4xx_ll_usb.c ****   for (i = 0U; i < count32b; i++)
 991:Drivers/STM32F4xx_HAL_Driver/Src/stm32f4xx_ll_usb.c ****   {
 992:Drivers/STM32F4xx_HAL_Driver/Src/stm32f4xx_ll_usb.c ****     __UNALIGNED_UINT32_WRITE(pDest, USBx_DFIFO(0U));
 993:Drivers/STM32F4xx_HAL_Driver/Src/stm32f4xx_ll_usb.c ****     pDest++;
 994:Drivers/STM32F4xx_HAL_Driver/Src/stm32f4xx_ll_usb.c ****   }
 995:Drivers/STM32F4xx_HAL_Driver/Src/stm32f4xx_ll_usb.c **** 
 996:Drivers/STM32F4xx_HAL_Driver/Src/stm32f4xx_ll_usb.c ****   return ((void *)pDest);
 997:Drivers/STM32F4xx_HAL_Driver/Src/stm32f4xx_ll_usb.c **** }
 998:Drivers/STM32F4xx_HAL_Driver/Src/stm32f4xx_ll_usb.c **** 
ARM GAS  /tmp/ccDzXOxq.s 			page 19


 999:Drivers/STM32F4xx_HAL_Driver/Src/stm32f4xx_ll_usb.c **** /**
1000:Drivers/STM32F4xx_HAL_Driver/Src/stm32f4xx_ll_usb.c ****   * @brief  USB_EPSetStall : set a stall condition over an EP
1001:Drivers/STM32F4xx_HAL_Driver/Src/stm32f4xx_ll_usb.c ****   * @param  USBx  Selected device
1002:Drivers/STM32F4xx_HAL_Driver/Src/stm32f4xx_ll_usb.c ****   * @param  ep pointer to endpoint structure
1003:Drivers/STM32F4xx_HAL_Driver/Src/stm32f4xx_ll_usb.c ****   * @retval HAL status
1004:Drivers/STM32F4xx_HAL_Driver/Src/stm32f4xx_ll_usb.c ****   */
1005:Drivers/STM32F4xx_HAL_Driver/Src/stm32f4xx_ll_usb.c **** HAL_StatusTypeDef USB_EPSetStall(USB_OTG_GlobalTypeDef *USBx, USB_OTG_EPTypeDef *ep)
1006:Drivers/STM32F4xx_HAL_Driver/Src/stm32f4xx_ll_usb.c **** {
1007:Drivers/STM32F4xx_HAL_Driver/Src/stm32f4xx_ll_usb.c ****   uint32_t USBx_BASE = (uint32_t)USBx;
1008:Drivers/STM32F4xx_HAL_Driver/Src/stm32f4xx_ll_usb.c ****   uint32_t epnum = (uint32_t)ep->num;
1009:Drivers/STM32F4xx_HAL_Driver/Src/stm32f4xx_ll_usb.c **** 
1010:Drivers/STM32F4xx_HAL_Driver/Src/stm32f4xx_ll_usb.c ****   if (ep->is_in == 1U)
1011:Drivers/STM32F4xx_HAL_Driver/Src/stm32f4xx_ll_usb.c ****   {
1012:Drivers/STM32F4xx_HAL_Driver/Src/stm32f4xx_ll_usb.c ****     if (((USBx_INEP(epnum)->DIEPCTL & USB_OTG_DIEPCTL_EPENA) == 0U) && (epnum != 0U))
1013:Drivers/STM32F4xx_HAL_Driver/Src/stm32f4xx_ll_usb.c ****     {
1014:Drivers/STM32F4xx_HAL_Driver/Src/stm32f4xx_ll_usb.c ****       USBx_INEP(epnum)->DIEPCTL &= ~(USB_OTG_DIEPCTL_EPDIS);
1015:Drivers/STM32F4xx_HAL_Driver/Src/stm32f4xx_ll_usb.c ****     }
1016:Drivers/STM32F4xx_HAL_Driver/Src/stm32f4xx_ll_usb.c ****     USBx_INEP(epnum)->DIEPCTL |= USB_OTG_DIEPCTL_STALL;
1017:Drivers/STM32F4xx_HAL_Driver/Src/stm32f4xx_ll_usb.c ****   }
1018:Drivers/STM32F4xx_HAL_Driver/Src/stm32f4xx_ll_usb.c ****   else
1019:Drivers/STM32F4xx_HAL_Driver/Src/stm32f4xx_ll_usb.c ****   {
1020:Drivers/STM32F4xx_HAL_Driver/Src/stm32f4xx_ll_usb.c ****     if (((USBx_OUTEP(epnum)->DOEPCTL & USB_OTG_DOEPCTL_EPENA) == 0U) && (epnum != 0U))
1021:Drivers/STM32F4xx_HAL_Driver/Src/stm32f4xx_ll_usb.c ****     {
1022:Drivers/STM32F4xx_HAL_Driver/Src/stm32f4xx_ll_usb.c ****       USBx_OUTEP(epnum)->DOEPCTL &= ~(USB_OTG_DOEPCTL_EPDIS);
1023:Drivers/STM32F4xx_HAL_Driver/Src/stm32f4xx_ll_usb.c ****     }
1024:Drivers/STM32F4xx_HAL_Driver/Src/stm32f4xx_ll_usb.c ****     USBx_OUTEP(epnum)->DOEPCTL |= USB_OTG_DOEPCTL_STALL;
1025:Drivers/STM32F4xx_HAL_Driver/Src/stm32f4xx_ll_usb.c ****   }
1026:Drivers/STM32F4xx_HAL_Driver/Src/stm32f4xx_ll_usb.c **** 
1027:Drivers/STM32F4xx_HAL_Driver/Src/stm32f4xx_ll_usb.c ****   return HAL_OK;
1028:Drivers/STM32F4xx_HAL_Driver/Src/stm32f4xx_ll_usb.c **** }
1029:Drivers/STM32F4xx_HAL_Driver/Src/stm32f4xx_ll_usb.c **** 
1030:Drivers/STM32F4xx_HAL_Driver/Src/stm32f4xx_ll_usb.c **** /**
1031:Drivers/STM32F4xx_HAL_Driver/Src/stm32f4xx_ll_usb.c ****   * @brief  USB_EPClearStall : Clear a stall condition over an EP
1032:Drivers/STM32F4xx_HAL_Driver/Src/stm32f4xx_ll_usb.c ****   * @param  USBx  Selected device
1033:Drivers/STM32F4xx_HAL_Driver/Src/stm32f4xx_ll_usb.c ****   * @param  ep pointer to endpoint structure
1034:Drivers/STM32F4xx_HAL_Driver/Src/stm32f4xx_ll_usb.c ****   * @retval HAL status
1035:Drivers/STM32F4xx_HAL_Driver/Src/stm32f4xx_ll_usb.c ****   */
1036:Drivers/STM32F4xx_HAL_Driver/Src/stm32f4xx_ll_usb.c **** HAL_StatusTypeDef USB_EPClearStall(USB_OTG_GlobalTypeDef *USBx, USB_OTG_EPTypeDef *ep)
1037:Drivers/STM32F4xx_HAL_Driver/Src/stm32f4xx_ll_usb.c **** {
1038:Drivers/STM32F4xx_HAL_Driver/Src/stm32f4xx_ll_usb.c ****   uint32_t USBx_BASE = (uint32_t)USBx;
1039:Drivers/STM32F4xx_HAL_Driver/Src/stm32f4xx_ll_usb.c ****   uint32_t epnum = (uint32_t)ep->num;
1040:Drivers/STM32F4xx_HAL_Driver/Src/stm32f4xx_ll_usb.c **** 
1041:Drivers/STM32F4xx_HAL_Driver/Src/stm32f4xx_ll_usb.c ****   if (ep->is_in == 1U)
1042:Drivers/STM32F4xx_HAL_Driver/Src/stm32f4xx_ll_usb.c ****   {
1043:Drivers/STM32F4xx_HAL_Driver/Src/stm32f4xx_ll_usb.c ****     USBx_INEP(epnum)->DIEPCTL &= ~USB_OTG_DIEPCTL_STALL;
1044:Drivers/STM32F4xx_HAL_Driver/Src/stm32f4xx_ll_usb.c ****     if ((ep->type == EP_TYPE_INTR) || (ep->type == EP_TYPE_BULK))
1045:Drivers/STM32F4xx_HAL_Driver/Src/stm32f4xx_ll_usb.c ****     {
1046:Drivers/STM32F4xx_HAL_Driver/Src/stm32f4xx_ll_usb.c ****       USBx_INEP(epnum)->DIEPCTL |= USB_OTG_DIEPCTL_SD0PID_SEVNFRM; /* DATA0 */
1047:Drivers/STM32F4xx_HAL_Driver/Src/stm32f4xx_ll_usb.c ****     }
1048:Drivers/STM32F4xx_HAL_Driver/Src/stm32f4xx_ll_usb.c ****   }
1049:Drivers/STM32F4xx_HAL_Driver/Src/stm32f4xx_ll_usb.c ****   else
1050:Drivers/STM32F4xx_HAL_Driver/Src/stm32f4xx_ll_usb.c ****   {
1051:Drivers/STM32F4xx_HAL_Driver/Src/stm32f4xx_ll_usb.c ****     USBx_OUTEP(epnum)->DOEPCTL &= ~USB_OTG_DOEPCTL_STALL;
1052:Drivers/STM32F4xx_HAL_Driver/Src/stm32f4xx_ll_usb.c ****     if ((ep->type == EP_TYPE_INTR) || (ep->type == EP_TYPE_BULK))
1053:Drivers/STM32F4xx_HAL_Driver/Src/stm32f4xx_ll_usb.c ****     {
1054:Drivers/STM32F4xx_HAL_Driver/Src/stm32f4xx_ll_usb.c ****       USBx_OUTEP(epnum)->DOEPCTL |= USB_OTG_DOEPCTL_SD0PID_SEVNFRM; /* DATA0 */
1055:Drivers/STM32F4xx_HAL_Driver/Src/stm32f4xx_ll_usb.c ****     }
ARM GAS  /tmp/ccDzXOxq.s 			page 20


1056:Drivers/STM32F4xx_HAL_Driver/Src/stm32f4xx_ll_usb.c ****   }
1057:Drivers/STM32F4xx_HAL_Driver/Src/stm32f4xx_ll_usb.c ****   return HAL_OK;
1058:Drivers/STM32F4xx_HAL_Driver/Src/stm32f4xx_ll_usb.c **** }
1059:Drivers/STM32F4xx_HAL_Driver/Src/stm32f4xx_ll_usb.c **** 
1060:Drivers/STM32F4xx_HAL_Driver/Src/stm32f4xx_ll_usb.c **** /**
1061:Drivers/STM32F4xx_HAL_Driver/Src/stm32f4xx_ll_usb.c ****   * @brief  USB_StopDevice : Stop the usb device mode
1062:Drivers/STM32F4xx_HAL_Driver/Src/stm32f4xx_ll_usb.c ****   * @param  USBx  Selected device
1063:Drivers/STM32F4xx_HAL_Driver/Src/stm32f4xx_ll_usb.c ****   * @retval HAL status
1064:Drivers/STM32F4xx_HAL_Driver/Src/stm32f4xx_ll_usb.c ****   */
1065:Drivers/STM32F4xx_HAL_Driver/Src/stm32f4xx_ll_usb.c **** HAL_StatusTypeDef USB_StopDevice(USB_OTG_GlobalTypeDef *USBx)
1066:Drivers/STM32F4xx_HAL_Driver/Src/stm32f4xx_ll_usb.c **** {
1067:Drivers/STM32F4xx_HAL_Driver/Src/stm32f4xx_ll_usb.c ****   HAL_StatusTypeDef ret;
1068:Drivers/STM32F4xx_HAL_Driver/Src/stm32f4xx_ll_usb.c ****   uint32_t USBx_BASE = (uint32_t)USBx;
1069:Drivers/STM32F4xx_HAL_Driver/Src/stm32f4xx_ll_usb.c ****   uint32_t i;
1070:Drivers/STM32F4xx_HAL_Driver/Src/stm32f4xx_ll_usb.c **** 
1071:Drivers/STM32F4xx_HAL_Driver/Src/stm32f4xx_ll_usb.c ****   /* Clear Pending interrupt */
1072:Drivers/STM32F4xx_HAL_Driver/Src/stm32f4xx_ll_usb.c ****   for (i = 0U; i < 15U; i++)
1073:Drivers/STM32F4xx_HAL_Driver/Src/stm32f4xx_ll_usb.c ****   {
1074:Drivers/STM32F4xx_HAL_Driver/Src/stm32f4xx_ll_usb.c ****     USBx_INEP(i)->DIEPINT = 0xFB7FU;
1075:Drivers/STM32F4xx_HAL_Driver/Src/stm32f4xx_ll_usb.c ****     USBx_OUTEP(i)->DOEPINT = 0xFB7FU;
1076:Drivers/STM32F4xx_HAL_Driver/Src/stm32f4xx_ll_usb.c ****   }
1077:Drivers/STM32F4xx_HAL_Driver/Src/stm32f4xx_ll_usb.c **** 
1078:Drivers/STM32F4xx_HAL_Driver/Src/stm32f4xx_ll_usb.c ****   /* Clear interrupt masks */
1079:Drivers/STM32F4xx_HAL_Driver/Src/stm32f4xx_ll_usb.c ****   USBx_DEVICE->DIEPMSK  = 0U;
1080:Drivers/STM32F4xx_HAL_Driver/Src/stm32f4xx_ll_usb.c ****   USBx_DEVICE->DOEPMSK  = 0U;
1081:Drivers/STM32F4xx_HAL_Driver/Src/stm32f4xx_ll_usb.c ****   USBx_DEVICE->DAINTMSK = 0U;
1082:Drivers/STM32F4xx_HAL_Driver/Src/stm32f4xx_ll_usb.c **** 
1083:Drivers/STM32F4xx_HAL_Driver/Src/stm32f4xx_ll_usb.c ****   /* Flush the FIFO */
1084:Drivers/STM32F4xx_HAL_Driver/Src/stm32f4xx_ll_usb.c ****   ret = USB_FlushRxFifo(USBx);
1085:Drivers/STM32F4xx_HAL_Driver/Src/stm32f4xx_ll_usb.c ****   if (ret != HAL_OK)
1086:Drivers/STM32F4xx_HAL_Driver/Src/stm32f4xx_ll_usb.c ****   {
1087:Drivers/STM32F4xx_HAL_Driver/Src/stm32f4xx_ll_usb.c ****     return ret;
1088:Drivers/STM32F4xx_HAL_Driver/Src/stm32f4xx_ll_usb.c ****   }
1089:Drivers/STM32F4xx_HAL_Driver/Src/stm32f4xx_ll_usb.c **** 
1090:Drivers/STM32F4xx_HAL_Driver/Src/stm32f4xx_ll_usb.c ****   ret = USB_FlushTxFifo(USBx,  0x10U);
1091:Drivers/STM32F4xx_HAL_Driver/Src/stm32f4xx_ll_usb.c ****   if (ret != HAL_OK)
1092:Drivers/STM32F4xx_HAL_Driver/Src/stm32f4xx_ll_usb.c ****   {
1093:Drivers/STM32F4xx_HAL_Driver/Src/stm32f4xx_ll_usb.c ****     return ret;
1094:Drivers/STM32F4xx_HAL_Driver/Src/stm32f4xx_ll_usb.c ****   }
1095:Drivers/STM32F4xx_HAL_Driver/Src/stm32f4xx_ll_usb.c **** 
1096:Drivers/STM32F4xx_HAL_Driver/Src/stm32f4xx_ll_usb.c ****   return ret;
1097:Drivers/STM32F4xx_HAL_Driver/Src/stm32f4xx_ll_usb.c **** }
1098:Drivers/STM32F4xx_HAL_Driver/Src/stm32f4xx_ll_usb.c **** 
1099:Drivers/STM32F4xx_HAL_Driver/Src/stm32f4xx_ll_usb.c **** /**
1100:Drivers/STM32F4xx_HAL_Driver/Src/stm32f4xx_ll_usb.c ****   * @brief  USB_SetDevAddress : Stop the usb device mode
1101:Drivers/STM32F4xx_HAL_Driver/Src/stm32f4xx_ll_usb.c ****   * @param  USBx  Selected device
1102:Drivers/STM32F4xx_HAL_Driver/Src/stm32f4xx_ll_usb.c ****   * @param  address  new device address to be assigned
1103:Drivers/STM32F4xx_HAL_Driver/Src/stm32f4xx_ll_usb.c ****   *          This parameter can be a value from 0 to 255
1104:Drivers/STM32F4xx_HAL_Driver/Src/stm32f4xx_ll_usb.c ****   * @retval HAL status
1105:Drivers/STM32F4xx_HAL_Driver/Src/stm32f4xx_ll_usb.c ****   */
1106:Drivers/STM32F4xx_HAL_Driver/Src/stm32f4xx_ll_usb.c **** HAL_StatusTypeDef  USB_SetDevAddress(USB_OTG_GlobalTypeDef *USBx, uint8_t address)
1107:Drivers/STM32F4xx_HAL_Driver/Src/stm32f4xx_ll_usb.c **** {
1108:Drivers/STM32F4xx_HAL_Driver/Src/stm32f4xx_ll_usb.c ****   uint32_t USBx_BASE = (uint32_t)USBx;
1109:Drivers/STM32F4xx_HAL_Driver/Src/stm32f4xx_ll_usb.c **** 
1110:Drivers/STM32F4xx_HAL_Driver/Src/stm32f4xx_ll_usb.c ****   USBx_DEVICE->DCFG &= ~(USB_OTG_DCFG_DAD);
1111:Drivers/STM32F4xx_HAL_Driver/Src/stm32f4xx_ll_usb.c ****   USBx_DEVICE->DCFG |= ((uint32_t)address << 4) & USB_OTG_DCFG_DAD;
1112:Drivers/STM32F4xx_HAL_Driver/Src/stm32f4xx_ll_usb.c **** 
ARM GAS  /tmp/ccDzXOxq.s 			page 21


1113:Drivers/STM32F4xx_HAL_Driver/Src/stm32f4xx_ll_usb.c ****   return HAL_OK;
1114:Drivers/STM32F4xx_HAL_Driver/Src/stm32f4xx_ll_usb.c **** }
1115:Drivers/STM32F4xx_HAL_Driver/Src/stm32f4xx_ll_usb.c **** 
1116:Drivers/STM32F4xx_HAL_Driver/Src/stm32f4xx_ll_usb.c **** /**
1117:Drivers/STM32F4xx_HAL_Driver/Src/stm32f4xx_ll_usb.c ****   * @brief  USB_DevConnect : Connect the USB device by enabling Rpu
1118:Drivers/STM32F4xx_HAL_Driver/Src/stm32f4xx_ll_usb.c ****   * @param  USBx  Selected device
1119:Drivers/STM32F4xx_HAL_Driver/Src/stm32f4xx_ll_usb.c ****   * @retval HAL status
1120:Drivers/STM32F4xx_HAL_Driver/Src/stm32f4xx_ll_usb.c ****   */
1121:Drivers/STM32F4xx_HAL_Driver/Src/stm32f4xx_ll_usb.c **** HAL_StatusTypeDef  USB_DevConnect(USB_OTG_GlobalTypeDef *USBx)
1122:Drivers/STM32F4xx_HAL_Driver/Src/stm32f4xx_ll_usb.c **** {
1123:Drivers/STM32F4xx_HAL_Driver/Src/stm32f4xx_ll_usb.c ****   uint32_t USBx_BASE = (uint32_t)USBx;
1124:Drivers/STM32F4xx_HAL_Driver/Src/stm32f4xx_ll_usb.c **** 
1125:Drivers/STM32F4xx_HAL_Driver/Src/stm32f4xx_ll_usb.c ****   /* In case phy is stopped, ensure to ungate and restore the phy CLK */
1126:Drivers/STM32F4xx_HAL_Driver/Src/stm32f4xx_ll_usb.c ****   USBx_PCGCCTL &= ~(USB_OTG_PCGCCTL_STOPCLK | USB_OTG_PCGCCTL_GATECLK);
1127:Drivers/STM32F4xx_HAL_Driver/Src/stm32f4xx_ll_usb.c **** 
1128:Drivers/STM32F4xx_HAL_Driver/Src/stm32f4xx_ll_usb.c ****   USBx_DEVICE->DCTL &= ~USB_OTG_DCTL_SDIS;
1129:Drivers/STM32F4xx_HAL_Driver/Src/stm32f4xx_ll_usb.c **** 
1130:Drivers/STM32F4xx_HAL_Driver/Src/stm32f4xx_ll_usb.c ****   return HAL_OK;
1131:Drivers/STM32F4xx_HAL_Driver/Src/stm32f4xx_ll_usb.c **** }
1132:Drivers/STM32F4xx_HAL_Driver/Src/stm32f4xx_ll_usb.c **** 
1133:Drivers/STM32F4xx_HAL_Driver/Src/stm32f4xx_ll_usb.c **** /**
1134:Drivers/STM32F4xx_HAL_Driver/Src/stm32f4xx_ll_usb.c ****   * @brief  USB_DevDisconnect : Disconnect the USB device by disabling Rpu
1135:Drivers/STM32F4xx_HAL_Driver/Src/stm32f4xx_ll_usb.c ****   * @param  USBx  Selected device
1136:Drivers/STM32F4xx_HAL_Driver/Src/stm32f4xx_ll_usb.c ****   * @retval HAL status
1137:Drivers/STM32F4xx_HAL_Driver/Src/stm32f4xx_ll_usb.c ****   */
1138:Drivers/STM32F4xx_HAL_Driver/Src/stm32f4xx_ll_usb.c **** HAL_StatusTypeDef  USB_DevDisconnect(USB_OTG_GlobalTypeDef *USBx)
1139:Drivers/STM32F4xx_HAL_Driver/Src/stm32f4xx_ll_usb.c **** {
1140:Drivers/STM32F4xx_HAL_Driver/Src/stm32f4xx_ll_usb.c ****   uint32_t USBx_BASE = (uint32_t)USBx;
1141:Drivers/STM32F4xx_HAL_Driver/Src/stm32f4xx_ll_usb.c **** 
1142:Drivers/STM32F4xx_HAL_Driver/Src/stm32f4xx_ll_usb.c ****   /* In case phy is stopped, ensure to ungate and restore the phy CLK */
1143:Drivers/STM32F4xx_HAL_Driver/Src/stm32f4xx_ll_usb.c ****   USBx_PCGCCTL &= ~(USB_OTG_PCGCCTL_STOPCLK | USB_OTG_PCGCCTL_GATECLK);
1144:Drivers/STM32F4xx_HAL_Driver/Src/stm32f4xx_ll_usb.c **** 
1145:Drivers/STM32F4xx_HAL_Driver/Src/stm32f4xx_ll_usb.c ****   USBx_DEVICE->DCTL |= USB_OTG_DCTL_SDIS;
1146:Drivers/STM32F4xx_HAL_Driver/Src/stm32f4xx_ll_usb.c **** 
1147:Drivers/STM32F4xx_HAL_Driver/Src/stm32f4xx_ll_usb.c ****   return HAL_OK;
1148:Drivers/STM32F4xx_HAL_Driver/Src/stm32f4xx_ll_usb.c **** }
1149:Drivers/STM32F4xx_HAL_Driver/Src/stm32f4xx_ll_usb.c **** 
1150:Drivers/STM32F4xx_HAL_Driver/Src/stm32f4xx_ll_usb.c **** /**
1151:Drivers/STM32F4xx_HAL_Driver/Src/stm32f4xx_ll_usb.c ****   * @brief  USB_ReadInterrupts: return the global USB interrupt status
1152:Drivers/STM32F4xx_HAL_Driver/Src/stm32f4xx_ll_usb.c ****   * @param  USBx  Selected device
1153:Drivers/STM32F4xx_HAL_Driver/Src/stm32f4xx_ll_usb.c ****   * @retval HAL status
1154:Drivers/STM32F4xx_HAL_Driver/Src/stm32f4xx_ll_usb.c ****   */
1155:Drivers/STM32F4xx_HAL_Driver/Src/stm32f4xx_ll_usb.c **** uint32_t  USB_ReadInterrupts(USB_OTG_GlobalTypeDef *USBx)
1156:Drivers/STM32F4xx_HAL_Driver/Src/stm32f4xx_ll_usb.c **** {
1157:Drivers/STM32F4xx_HAL_Driver/Src/stm32f4xx_ll_usb.c ****   uint32_t tmpreg;
1158:Drivers/STM32F4xx_HAL_Driver/Src/stm32f4xx_ll_usb.c **** 
1159:Drivers/STM32F4xx_HAL_Driver/Src/stm32f4xx_ll_usb.c ****   tmpreg = USBx->GINTSTS;
1160:Drivers/STM32F4xx_HAL_Driver/Src/stm32f4xx_ll_usb.c ****   tmpreg &= USBx->GINTMSK;
1161:Drivers/STM32F4xx_HAL_Driver/Src/stm32f4xx_ll_usb.c **** 
1162:Drivers/STM32F4xx_HAL_Driver/Src/stm32f4xx_ll_usb.c ****   return tmpreg;
1163:Drivers/STM32F4xx_HAL_Driver/Src/stm32f4xx_ll_usb.c **** }
1164:Drivers/STM32F4xx_HAL_Driver/Src/stm32f4xx_ll_usb.c **** 
1165:Drivers/STM32F4xx_HAL_Driver/Src/stm32f4xx_ll_usb.c **** /**
1166:Drivers/STM32F4xx_HAL_Driver/Src/stm32f4xx_ll_usb.c ****   * @brief  USB_ReadDevAllOutEpInterrupt: return the USB device OUT endpoints interrupt status
1167:Drivers/STM32F4xx_HAL_Driver/Src/stm32f4xx_ll_usb.c ****   * @param  USBx  Selected device
1168:Drivers/STM32F4xx_HAL_Driver/Src/stm32f4xx_ll_usb.c ****   * @retval HAL status
1169:Drivers/STM32F4xx_HAL_Driver/Src/stm32f4xx_ll_usb.c ****   */
ARM GAS  /tmp/ccDzXOxq.s 			page 22


1170:Drivers/STM32F4xx_HAL_Driver/Src/stm32f4xx_ll_usb.c **** uint32_t USB_ReadDevAllOutEpInterrupt(USB_OTG_GlobalTypeDef *USBx)
1171:Drivers/STM32F4xx_HAL_Driver/Src/stm32f4xx_ll_usb.c **** {
1172:Drivers/STM32F4xx_HAL_Driver/Src/stm32f4xx_ll_usb.c ****   uint32_t USBx_BASE = (uint32_t)USBx;
1173:Drivers/STM32F4xx_HAL_Driver/Src/stm32f4xx_ll_usb.c ****   uint32_t tmpreg;
1174:Drivers/STM32F4xx_HAL_Driver/Src/stm32f4xx_ll_usb.c **** 
1175:Drivers/STM32F4xx_HAL_Driver/Src/stm32f4xx_ll_usb.c ****   tmpreg  = USBx_DEVICE->DAINT;
1176:Drivers/STM32F4xx_HAL_Driver/Src/stm32f4xx_ll_usb.c ****   tmpreg &= USBx_DEVICE->DAINTMSK;
1177:Drivers/STM32F4xx_HAL_Driver/Src/stm32f4xx_ll_usb.c **** 
1178:Drivers/STM32F4xx_HAL_Driver/Src/stm32f4xx_ll_usb.c ****   return ((tmpreg & 0xffff0000U) >> 16);
1179:Drivers/STM32F4xx_HAL_Driver/Src/stm32f4xx_ll_usb.c **** }
1180:Drivers/STM32F4xx_HAL_Driver/Src/stm32f4xx_ll_usb.c **** 
1181:Drivers/STM32F4xx_HAL_Driver/Src/stm32f4xx_ll_usb.c **** /**
1182:Drivers/STM32F4xx_HAL_Driver/Src/stm32f4xx_ll_usb.c ****   * @brief  USB_ReadDevAllInEpInterrupt: return the USB device IN endpoints interrupt status
1183:Drivers/STM32F4xx_HAL_Driver/Src/stm32f4xx_ll_usb.c ****   * @param  USBx  Selected device
1184:Drivers/STM32F4xx_HAL_Driver/Src/stm32f4xx_ll_usb.c ****   * @retval HAL status
1185:Drivers/STM32F4xx_HAL_Driver/Src/stm32f4xx_ll_usb.c ****   */
1186:Drivers/STM32F4xx_HAL_Driver/Src/stm32f4xx_ll_usb.c **** uint32_t USB_ReadDevAllInEpInterrupt(USB_OTG_GlobalTypeDef *USBx)
1187:Drivers/STM32F4xx_HAL_Driver/Src/stm32f4xx_ll_usb.c **** {
1188:Drivers/STM32F4xx_HAL_Driver/Src/stm32f4xx_ll_usb.c ****   uint32_t USBx_BASE = (uint32_t)USBx;
1189:Drivers/STM32F4xx_HAL_Driver/Src/stm32f4xx_ll_usb.c ****   uint32_t tmpreg;
1190:Drivers/STM32F4xx_HAL_Driver/Src/stm32f4xx_ll_usb.c **** 
1191:Drivers/STM32F4xx_HAL_Driver/Src/stm32f4xx_ll_usb.c ****   tmpreg  = USBx_DEVICE->DAINT;
1192:Drivers/STM32F4xx_HAL_Driver/Src/stm32f4xx_ll_usb.c ****   tmpreg &= USBx_DEVICE->DAINTMSK;
1193:Drivers/STM32F4xx_HAL_Driver/Src/stm32f4xx_ll_usb.c **** 
1194:Drivers/STM32F4xx_HAL_Driver/Src/stm32f4xx_ll_usb.c ****   return ((tmpreg & 0xFFFFU));
1195:Drivers/STM32F4xx_HAL_Driver/Src/stm32f4xx_ll_usb.c **** }
1196:Drivers/STM32F4xx_HAL_Driver/Src/stm32f4xx_ll_usb.c **** 
1197:Drivers/STM32F4xx_HAL_Driver/Src/stm32f4xx_ll_usb.c **** /**
1198:Drivers/STM32F4xx_HAL_Driver/Src/stm32f4xx_ll_usb.c ****   * @brief  Returns Device OUT EP Interrupt register
1199:Drivers/STM32F4xx_HAL_Driver/Src/stm32f4xx_ll_usb.c ****   * @param  USBx  Selected device
1200:Drivers/STM32F4xx_HAL_Driver/Src/stm32f4xx_ll_usb.c ****   * @param  epnum  endpoint number
1201:Drivers/STM32F4xx_HAL_Driver/Src/stm32f4xx_ll_usb.c ****   *          This parameter can be a value from 0 to 15
1202:Drivers/STM32F4xx_HAL_Driver/Src/stm32f4xx_ll_usb.c ****   * @retval Device OUT EP Interrupt register
1203:Drivers/STM32F4xx_HAL_Driver/Src/stm32f4xx_ll_usb.c ****   */
1204:Drivers/STM32F4xx_HAL_Driver/Src/stm32f4xx_ll_usb.c **** uint32_t USB_ReadDevOutEPInterrupt(USB_OTG_GlobalTypeDef *USBx, uint8_t epnum)
1205:Drivers/STM32F4xx_HAL_Driver/Src/stm32f4xx_ll_usb.c **** {
1206:Drivers/STM32F4xx_HAL_Driver/Src/stm32f4xx_ll_usb.c ****   uint32_t USBx_BASE = (uint32_t)USBx;
1207:Drivers/STM32F4xx_HAL_Driver/Src/stm32f4xx_ll_usb.c ****   uint32_t tmpreg;
1208:Drivers/STM32F4xx_HAL_Driver/Src/stm32f4xx_ll_usb.c **** 
1209:Drivers/STM32F4xx_HAL_Driver/Src/stm32f4xx_ll_usb.c ****   tmpreg  = USBx_OUTEP((uint32_t)epnum)->DOEPINT;
1210:Drivers/STM32F4xx_HAL_Driver/Src/stm32f4xx_ll_usb.c ****   tmpreg &= USBx_DEVICE->DOEPMSK;
1211:Drivers/STM32F4xx_HAL_Driver/Src/stm32f4xx_ll_usb.c **** 
1212:Drivers/STM32F4xx_HAL_Driver/Src/stm32f4xx_ll_usb.c ****   return tmpreg;
1213:Drivers/STM32F4xx_HAL_Driver/Src/stm32f4xx_ll_usb.c **** }
1214:Drivers/STM32F4xx_HAL_Driver/Src/stm32f4xx_ll_usb.c **** 
1215:Drivers/STM32F4xx_HAL_Driver/Src/stm32f4xx_ll_usb.c **** /**
1216:Drivers/STM32F4xx_HAL_Driver/Src/stm32f4xx_ll_usb.c ****   * @brief  Returns Device IN EP Interrupt register
1217:Drivers/STM32F4xx_HAL_Driver/Src/stm32f4xx_ll_usb.c ****   * @param  USBx  Selected device
1218:Drivers/STM32F4xx_HAL_Driver/Src/stm32f4xx_ll_usb.c ****   * @param  epnum  endpoint number
1219:Drivers/STM32F4xx_HAL_Driver/Src/stm32f4xx_ll_usb.c ****   *          This parameter can be a value from 0 to 15
1220:Drivers/STM32F4xx_HAL_Driver/Src/stm32f4xx_ll_usb.c ****   * @retval Device IN EP Interrupt register
1221:Drivers/STM32F4xx_HAL_Driver/Src/stm32f4xx_ll_usb.c ****   */
1222:Drivers/STM32F4xx_HAL_Driver/Src/stm32f4xx_ll_usb.c **** uint32_t USB_ReadDevInEPInterrupt(USB_OTG_GlobalTypeDef *USBx, uint8_t epnum)
1223:Drivers/STM32F4xx_HAL_Driver/Src/stm32f4xx_ll_usb.c **** {
1224:Drivers/STM32F4xx_HAL_Driver/Src/stm32f4xx_ll_usb.c ****   uint32_t USBx_BASE = (uint32_t)USBx;
1225:Drivers/STM32F4xx_HAL_Driver/Src/stm32f4xx_ll_usb.c ****   uint32_t tmpreg, msk, emp;
1226:Drivers/STM32F4xx_HAL_Driver/Src/stm32f4xx_ll_usb.c **** 
ARM GAS  /tmp/ccDzXOxq.s 			page 23


1227:Drivers/STM32F4xx_HAL_Driver/Src/stm32f4xx_ll_usb.c ****   msk = USBx_DEVICE->DIEPMSK;
1228:Drivers/STM32F4xx_HAL_Driver/Src/stm32f4xx_ll_usb.c ****   emp = USBx_DEVICE->DIEPEMPMSK;
1229:Drivers/STM32F4xx_HAL_Driver/Src/stm32f4xx_ll_usb.c ****   msk |= ((emp >> (epnum & EP_ADDR_MSK)) & 0x1U) << 7;
1230:Drivers/STM32F4xx_HAL_Driver/Src/stm32f4xx_ll_usb.c ****   tmpreg = USBx_INEP((uint32_t)epnum)->DIEPINT & msk;
1231:Drivers/STM32F4xx_HAL_Driver/Src/stm32f4xx_ll_usb.c **** 
1232:Drivers/STM32F4xx_HAL_Driver/Src/stm32f4xx_ll_usb.c ****   return tmpreg;
1233:Drivers/STM32F4xx_HAL_Driver/Src/stm32f4xx_ll_usb.c **** }
1234:Drivers/STM32F4xx_HAL_Driver/Src/stm32f4xx_ll_usb.c **** 
1235:Drivers/STM32F4xx_HAL_Driver/Src/stm32f4xx_ll_usb.c **** /**
1236:Drivers/STM32F4xx_HAL_Driver/Src/stm32f4xx_ll_usb.c ****   * @brief  USB_ClearInterrupts: clear a USB interrupt
1237:Drivers/STM32F4xx_HAL_Driver/Src/stm32f4xx_ll_usb.c ****   * @param  USBx  Selected device
1238:Drivers/STM32F4xx_HAL_Driver/Src/stm32f4xx_ll_usb.c ****   * @param  interrupt  flag
1239:Drivers/STM32F4xx_HAL_Driver/Src/stm32f4xx_ll_usb.c ****   * @retval None
1240:Drivers/STM32F4xx_HAL_Driver/Src/stm32f4xx_ll_usb.c ****   */
1241:Drivers/STM32F4xx_HAL_Driver/Src/stm32f4xx_ll_usb.c **** void  USB_ClearInterrupts(USB_OTG_GlobalTypeDef *USBx, uint32_t interrupt)
1242:Drivers/STM32F4xx_HAL_Driver/Src/stm32f4xx_ll_usb.c **** {
1243:Drivers/STM32F4xx_HAL_Driver/Src/stm32f4xx_ll_usb.c ****   USBx->GINTSTS |= interrupt;
1244:Drivers/STM32F4xx_HAL_Driver/Src/stm32f4xx_ll_usb.c **** }
1245:Drivers/STM32F4xx_HAL_Driver/Src/stm32f4xx_ll_usb.c **** 
1246:Drivers/STM32F4xx_HAL_Driver/Src/stm32f4xx_ll_usb.c **** /**
1247:Drivers/STM32F4xx_HAL_Driver/Src/stm32f4xx_ll_usb.c ****   * @brief  Returns USB core mode
1248:Drivers/STM32F4xx_HAL_Driver/Src/stm32f4xx_ll_usb.c ****   * @param  USBx  Selected device
1249:Drivers/STM32F4xx_HAL_Driver/Src/stm32f4xx_ll_usb.c ****   * @retval return core mode : Host or Device
1250:Drivers/STM32F4xx_HAL_Driver/Src/stm32f4xx_ll_usb.c ****   *          This parameter can be one of these values:
1251:Drivers/STM32F4xx_HAL_Driver/Src/stm32f4xx_ll_usb.c ****   *           0 : Host
1252:Drivers/STM32F4xx_HAL_Driver/Src/stm32f4xx_ll_usb.c ****   *           1 : Device
1253:Drivers/STM32F4xx_HAL_Driver/Src/stm32f4xx_ll_usb.c ****   */
1254:Drivers/STM32F4xx_HAL_Driver/Src/stm32f4xx_ll_usb.c **** uint32_t USB_GetMode(USB_OTG_GlobalTypeDef *USBx)
1255:Drivers/STM32F4xx_HAL_Driver/Src/stm32f4xx_ll_usb.c **** {
1256:Drivers/STM32F4xx_HAL_Driver/Src/stm32f4xx_ll_usb.c ****   return ((USBx->GINTSTS) & 0x1U);
1257:Drivers/STM32F4xx_HAL_Driver/Src/stm32f4xx_ll_usb.c **** }
1258:Drivers/STM32F4xx_HAL_Driver/Src/stm32f4xx_ll_usb.c **** 
1259:Drivers/STM32F4xx_HAL_Driver/Src/stm32f4xx_ll_usb.c **** /**
1260:Drivers/STM32F4xx_HAL_Driver/Src/stm32f4xx_ll_usb.c ****   * @brief  Activate EP0 for Setup transactions
1261:Drivers/STM32F4xx_HAL_Driver/Src/stm32f4xx_ll_usb.c ****   * @param  USBx  Selected device
1262:Drivers/STM32F4xx_HAL_Driver/Src/stm32f4xx_ll_usb.c ****   * @retval HAL status
1263:Drivers/STM32F4xx_HAL_Driver/Src/stm32f4xx_ll_usb.c ****   */
1264:Drivers/STM32F4xx_HAL_Driver/Src/stm32f4xx_ll_usb.c **** HAL_StatusTypeDef  USB_ActivateSetup(USB_OTG_GlobalTypeDef *USBx)
1265:Drivers/STM32F4xx_HAL_Driver/Src/stm32f4xx_ll_usb.c **** {
1266:Drivers/STM32F4xx_HAL_Driver/Src/stm32f4xx_ll_usb.c ****   uint32_t USBx_BASE = (uint32_t)USBx;
1267:Drivers/STM32F4xx_HAL_Driver/Src/stm32f4xx_ll_usb.c **** 
1268:Drivers/STM32F4xx_HAL_Driver/Src/stm32f4xx_ll_usb.c ****   /* Set the MPS of the IN EP0 to 64 bytes */
1269:Drivers/STM32F4xx_HAL_Driver/Src/stm32f4xx_ll_usb.c ****   USBx_INEP(0U)->DIEPCTL &= ~USB_OTG_DIEPCTL_MPSIZ;
1270:Drivers/STM32F4xx_HAL_Driver/Src/stm32f4xx_ll_usb.c **** 
1271:Drivers/STM32F4xx_HAL_Driver/Src/stm32f4xx_ll_usb.c ****   USBx_DEVICE->DCTL |= USB_OTG_DCTL_CGINAK;
1272:Drivers/STM32F4xx_HAL_Driver/Src/stm32f4xx_ll_usb.c **** 
1273:Drivers/STM32F4xx_HAL_Driver/Src/stm32f4xx_ll_usb.c ****   return HAL_OK;
1274:Drivers/STM32F4xx_HAL_Driver/Src/stm32f4xx_ll_usb.c **** }
1275:Drivers/STM32F4xx_HAL_Driver/Src/stm32f4xx_ll_usb.c **** 
1276:Drivers/STM32F4xx_HAL_Driver/Src/stm32f4xx_ll_usb.c **** /**
1277:Drivers/STM32F4xx_HAL_Driver/Src/stm32f4xx_ll_usb.c ****   * @brief  Prepare the EP0 to start the first control setup
1278:Drivers/STM32F4xx_HAL_Driver/Src/stm32f4xx_ll_usb.c ****   * @param  USBx  Selected device
1279:Drivers/STM32F4xx_HAL_Driver/Src/stm32f4xx_ll_usb.c ****   * @param  dma USB dma enabled or disabled
1280:Drivers/STM32F4xx_HAL_Driver/Src/stm32f4xx_ll_usb.c ****   *          This parameter can be one of these values:
1281:Drivers/STM32F4xx_HAL_Driver/Src/stm32f4xx_ll_usb.c ****   *           0 : DMA feature not used
1282:Drivers/STM32F4xx_HAL_Driver/Src/stm32f4xx_ll_usb.c ****   *           1 : DMA feature used
1283:Drivers/STM32F4xx_HAL_Driver/Src/stm32f4xx_ll_usb.c ****   * @param  psetup  pointer to setup packet
ARM GAS  /tmp/ccDzXOxq.s 			page 24


1284:Drivers/STM32F4xx_HAL_Driver/Src/stm32f4xx_ll_usb.c ****   * @retval HAL status
1285:Drivers/STM32F4xx_HAL_Driver/Src/stm32f4xx_ll_usb.c ****   */
1286:Drivers/STM32F4xx_HAL_Driver/Src/stm32f4xx_ll_usb.c **** HAL_StatusTypeDef USB_EP0_OutStart(USB_OTG_GlobalTypeDef *USBx, uint8_t dma, uint8_t *psetup)
1287:Drivers/STM32F4xx_HAL_Driver/Src/stm32f4xx_ll_usb.c **** {
1288:Drivers/STM32F4xx_HAL_Driver/Src/stm32f4xx_ll_usb.c ****   uint32_t USBx_BASE = (uint32_t)USBx;
1289:Drivers/STM32F4xx_HAL_Driver/Src/stm32f4xx_ll_usb.c ****   uint32_t gSNPSiD = *(__IO uint32_t *)(&USBx->CID + 0x1U);
1290:Drivers/STM32F4xx_HAL_Driver/Src/stm32f4xx_ll_usb.c **** 
1291:Drivers/STM32F4xx_HAL_Driver/Src/stm32f4xx_ll_usb.c ****   if (gSNPSiD > USB_OTG_CORE_ID_300A)
1292:Drivers/STM32F4xx_HAL_Driver/Src/stm32f4xx_ll_usb.c ****   {
1293:Drivers/STM32F4xx_HAL_Driver/Src/stm32f4xx_ll_usb.c ****     if ((USBx_OUTEP(0U)->DOEPCTL & USB_OTG_DOEPCTL_EPENA) == USB_OTG_DOEPCTL_EPENA)
1294:Drivers/STM32F4xx_HAL_Driver/Src/stm32f4xx_ll_usb.c ****     {
1295:Drivers/STM32F4xx_HAL_Driver/Src/stm32f4xx_ll_usb.c ****       return HAL_OK;
1296:Drivers/STM32F4xx_HAL_Driver/Src/stm32f4xx_ll_usb.c ****     }
1297:Drivers/STM32F4xx_HAL_Driver/Src/stm32f4xx_ll_usb.c ****   }
1298:Drivers/STM32F4xx_HAL_Driver/Src/stm32f4xx_ll_usb.c **** 
1299:Drivers/STM32F4xx_HAL_Driver/Src/stm32f4xx_ll_usb.c ****   USBx_OUTEP(0U)->DOEPTSIZ = 0U;
1300:Drivers/STM32F4xx_HAL_Driver/Src/stm32f4xx_ll_usb.c ****   USBx_OUTEP(0U)->DOEPTSIZ |= (USB_OTG_DOEPTSIZ_PKTCNT & (1U << 19));
1301:Drivers/STM32F4xx_HAL_Driver/Src/stm32f4xx_ll_usb.c ****   USBx_OUTEP(0U)->DOEPTSIZ |= (3U * 8U);
1302:Drivers/STM32F4xx_HAL_Driver/Src/stm32f4xx_ll_usb.c ****   USBx_OUTEP(0U)->DOEPTSIZ |=  USB_OTG_DOEPTSIZ_STUPCNT;
1303:Drivers/STM32F4xx_HAL_Driver/Src/stm32f4xx_ll_usb.c **** 
1304:Drivers/STM32F4xx_HAL_Driver/Src/stm32f4xx_ll_usb.c ****   if (dma == 1U)
1305:Drivers/STM32F4xx_HAL_Driver/Src/stm32f4xx_ll_usb.c ****   {
1306:Drivers/STM32F4xx_HAL_Driver/Src/stm32f4xx_ll_usb.c ****     USBx_OUTEP(0U)->DOEPDMA = (uint32_t)psetup;
1307:Drivers/STM32F4xx_HAL_Driver/Src/stm32f4xx_ll_usb.c ****     /* EP enable */
1308:Drivers/STM32F4xx_HAL_Driver/Src/stm32f4xx_ll_usb.c ****     USBx_OUTEP(0U)->DOEPCTL |= USB_OTG_DOEPCTL_EPENA | USB_OTG_DOEPCTL_USBAEP;
1309:Drivers/STM32F4xx_HAL_Driver/Src/stm32f4xx_ll_usb.c ****   }
1310:Drivers/STM32F4xx_HAL_Driver/Src/stm32f4xx_ll_usb.c **** 
1311:Drivers/STM32F4xx_HAL_Driver/Src/stm32f4xx_ll_usb.c ****   return HAL_OK;
1312:Drivers/STM32F4xx_HAL_Driver/Src/stm32f4xx_ll_usb.c **** }
1313:Drivers/STM32F4xx_HAL_Driver/Src/stm32f4xx_ll_usb.c **** 
1314:Drivers/STM32F4xx_HAL_Driver/Src/stm32f4xx_ll_usb.c **** /**
1315:Drivers/STM32F4xx_HAL_Driver/Src/stm32f4xx_ll_usb.c ****   * @brief  Reset the USB Core (needed after USB clock settings change)
1316:Drivers/STM32F4xx_HAL_Driver/Src/stm32f4xx_ll_usb.c ****   * @param  USBx  Selected device
1317:Drivers/STM32F4xx_HAL_Driver/Src/stm32f4xx_ll_usb.c ****   * @retval HAL status
1318:Drivers/STM32F4xx_HAL_Driver/Src/stm32f4xx_ll_usb.c ****   */
1319:Drivers/STM32F4xx_HAL_Driver/Src/stm32f4xx_ll_usb.c **** static HAL_StatusTypeDef USB_CoreReset(USB_OTG_GlobalTypeDef *USBx)
1320:Drivers/STM32F4xx_HAL_Driver/Src/stm32f4xx_ll_usb.c **** {
  30              		.loc 1 1320 1 view -0
  31              		.cfi_startproc
  32              		@ args = 0, pretend = 0, frame = 0
  33              		@ frame_needed = 0, uses_anonymous_args = 0
  34              		@ link register save eliminated.
1321:Drivers/STM32F4xx_HAL_Driver/Src/stm32f4xx_ll_usb.c ****   uint32_t count = 0U;
  35              		.loc 1 1321 3 view .LVU1
1322:Drivers/STM32F4xx_HAL_Driver/Src/stm32f4xx_ll_usb.c **** 
1323:Drivers/STM32F4xx_HAL_Driver/Src/stm32f4xx_ll_usb.c ****   /* Wait for AHB master IDLE state. */
1324:Drivers/STM32F4xx_HAL_Driver/Src/stm32f4xx_ll_usb.c ****   do
  36              		.loc 1 1324 3 view .LVU2
1325:Drivers/STM32F4xx_HAL_Driver/Src/stm32f4xx_ll_usb.c ****   {
1326:Drivers/STM32F4xx_HAL_Driver/Src/stm32f4xx_ll_usb.c ****     if (++count > 200000U)
  37              		.loc 1 1326 5 view .LVU3
1320:Drivers/STM32F4xx_HAL_Driver/Src/stm32f4xx_ll_usb.c ****   uint32_t count = 0U;
  38              		.loc 1 1320 1 is_stmt 0 view .LVU4
  39 0000 0B4B     		ldr	r3, .L14
  40 0002 01E0     		b	.L2
  41              	.LVL1:
  42              	.L4:
ARM GAS  /tmp/ccDzXOxq.s 			page 25


  43              		.loc 1 1326 8 view .LVU5
  44 0004 013B     		subs	r3, r3, #1
  45              	.LVL2:
  46              		.loc 1 1326 8 view .LVU6
  47 0006 10D0     		beq	.L6
  48              	.LVL3:
  49              	.L2:
1324:Drivers/STM32F4xx_HAL_Driver/Src/stm32f4xx_ll_usb.c ****   {
  50              		.loc 1 1324 3 is_stmt 1 view .LVU7
  51              		.loc 1 1326 5 view .LVU8
1327:Drivers/STM32F4xx_HAL_Driver/Src/stm32f4xx_ll_usb.c ****     {
1328:Drivers/STM32F4xx_HAL_Driver/Src/stm32f4xx_ll_usb.c ****       return HAL_TIMEOUT;
1329:Drivers/STM32F4xx_HAL_Driver/Src/stm32f4xx_ll_usb.c ****     }
1330:Drivers/STM32F4xx_HAL_Driver/Src/stm32f4xx_ll_usb.c ****   } while ((USBx->GRSTCTL & USB_OTG_GRSTCTL_AHBIDL) == 0U);
  52              		.loc 1 1330 11 view .LVU9
  53              		.loc 1 1330 17 is_stmt 0 view .LVU10
  54 0008 0269     		ldr	r2, [r0, #16]
  55              		.loc 1 1330 3 view .LVU11
  56 000a 002A     		cmp	r2, #0
  57 000c FADA     		bge	.L4
1331:Drivers/STM32F4xx_HAL_Driver/Src/stm32f4xx_ll_usb.c **** 
1332:Drivers/STM32F4xx_HAL_Driver/Src/stm32f4xx_ll_usb.c ****   /* Core Soft Reset */
1333:Drivers/STM32F4xx_HAL_Driver/Src/stm32f4xx_ll_usb.c ****   count = 0U;
  58              		.loc 1 1333 3 is_stmt 1 view .LVU12
  59              	.LVL4:
1334:Drivers/STM32F4xx_HAL_Driver/Src/stm32f4xx_ll_usb.c ****   USBx->GRSTCTL |= USB_OTG_GRSTCTL_CSRST;
  60              		.loc 1 1334 3 view .LVU13
  61              		.loc 1 1334 17 is_stmt 0 view .LVU14
  62 000e 0369     		ldr	r3, [r0, #16]
  63 0010 074A     		ldr	r2, .L14
  64 0012 43F00103 		orr	r3, r3, #1
  65 0016 0361     		str	r3, [r0, #16]
  66              	.LVL5:
  67              	.LBB38:
  68              	.LBI38:
1319:Drivers/STM32F4xx_HAL_Driver/Src/stm32f4xx_ll_usb.c **** {
  69              		.loc 1 1319 26 is_stmt 1 view .LVU15
  70              	.LBB39:
1335:Drivers/STM32F4xx_HAL_Driver/Src/stm32f4xx_ll_usb.c **** 
1336:Drivers/STM32F4xx_HAL_Driver/Src/stm32f4xx_ll_usb.c ****   do
  71              		.loc 1 1336 3 view .LVU16
1337:Drivers/STM32F4xx_HAL_Driver/Src/stm32f4xx_ll_usb.c ****   {
1338:Drivers/STM32F4xx_HAL_Driver/Src/stm32f4xx_ll_usb.c ****     if (++count > 200000U)
  72              		.loc 1 1338 5 view .LVU17
  73              		.loc 1 1338 5 is_stmt 0 view .LVU18
  74 0018 01E0     		b	.L5
  75              	.LVL6:
  76              	.L7:
  77              		.loc 1 1338 8 view .LVU19
  78 001a 013A     		subs	r2, r2, #1
  79              	.LVL7:
  80              		.loc 1 1338 8 view .LVU20
  81 001c 05D0     		beq	.L6
  82              	.LVL8:
  83              	.L5:
1336:Drivers/STM32F4xx_HAL_Driver/Src/stm32f4xx_ll_usb.c ****   {
  84              		.loc 1 1336 3 is_stmt 1 view .LVU21
ARM GAS  /tmp/ccDzXOxq.s 			page 26


  85              		.loc 1 1338 5 view .LVU22
1339:Drivers/STM32F4xx_HAL_Driver/Src/stm32f4xx_ll_usb.c ****     {
1340:Drivers/STM32F4xx_HAL_Driver/Src/stm32f4xx_ll_usb.c ****       return HAL_TIMEOUT;
1341:Drivers/STM32F4xx_HAL_Driver/Src/stm32f4xx_ll_usb.c ****     }
1342:Drivers/STM32F4xx_HAL_Driver/Src/stm32f4xx_ll_usb.c ****   } while ((USBx->GRSTCTL & USB_OTG_GRSTCTL_CSRST) == USB_OTG_GRSTCTL_CSRST);
  86              		.loc 1 1342 11 view .LVU23
  87              		.loc 1 1342 17 is_stmt 0 view .LVU24
  88 001e 0369     		ldr	r3, [r0, #16]
  89              		.loc 1 1342 3 view .LVU25
  90 0020 13F00103 		ands	r3, r3, #1
  91 0024 F9D1     		bne	.L7
1343:Drivers/STM32F4xx_HAL_Driver/Src/stm32f4xx_ll_usb.c **** 
1344:Drivers/STM32F4xx_HAL_Driver/Src/stm32f4xx_ll_usb.c ****   return HAL_OK;
  92              		.loc 1 1344 10 view .LVU26
  93 0026 1846     		mov	r0, r3
  94              	.LVL9:
  95              		.loc 1 1344 10 view .LVU27
  96              	.LBE39:
  97              	.LBE38:
1345:Drivers/STM32F4xx_HAL_Driver/Src/stm32f4xx_ll_usb.c **** }
  98              		.loc 1 1345 1 view .LVU28
  99 0028 7047     		bx	lr
 100              	.LVL10:
 101              	.L6:
1328:Drivers/STM32F4xx_HAL_Driver/Src/stm32f4xx_ll_usb.c ****     }
 102              		.loc 1 1328 14 view .LVU29
 103 002a 0320     		movs	r0, #3
 104              	.LVL11:
1328:Drivers/STM32F4xx_HAL_Driver/Src/stm32f4xx_ll_usb.c ****     }
 105              		.loc 1 1328 14 view .LVU30
 106 002c 7047     		bx	lr
 107              	.L15:
 108 002e 00BF     		.align	2
 109              	.L14:
 110 0030 400D0300 		.word	200000
 111              		.cfi_endproc
 112              	.LFE163:
 114              		.section	.text.USB_CoreInit,"ax",%progbits
 115              		.align	1
 116              		.p2align 2,,3
 117              		.global	USB_CoreInit
 118              		.syntax unified
 119              		.thumb
 120              		.thumb_func
 121              		.fpu fpv4-sp-d16
 123              	USB_CoreInit:
 124              	.LVL12:
 125              	.LFB130:
  83:Drivers/STM32F4xx_HAL_Driver/Src/stm32f4xx_ll_usb.c ****   HAL_StatusTypeDef ret;
 126              		.loc 1 83 1 is_stmt 1 view -0
 127              		.cfi_startproc
 128              		@ args = 56, pretend = 16, frame = 0
 129              		@ frame_needed = 0, uses_anonymous_args = 0
  84:Drivers/STM32F4xx_HAL_Driver/Src/stm32f4xx_ll_usb.c **** 
 130              		.loc 1 84 3 view .LVU32
  86:Drivers/STM32F4xx_HAL_Driver/Src/stm32f4xx_ll_usb.c ****   {
 131              		.loc 1 86 3 view .LVU33
ARM GAS  /tmp/ccDzXOxq.s 			page 27


  83:Drivers/STM32F4xx_HAL_Driver/Src/stm32f4xx_ll_usb.c ****   HAL_StatusTypeDef ret;
 132              		.loc 1 83 1 is_stmt 0 view .LVU34
 133 0000 84B0     		sub	sp, sp, #16
 134              	.LCFI0:
 135              		.cfi_def_cfa_offset 16
 136 0002 70B5     		push	{r4, r5, r6, lr}
 137              	.LCFI1:
 138              		.cfi_def_cfa_offset 32
 139              		.cfi_offset 4, -32
 140              		.cfi_offset 5, -28
 141              		.cfi_offset 6, -24
 142              		.cfi_offset 14, -20
  86:Drivers/STM32F4xx_HAL_Driver/Src/stm32f4xx_ll_usb.c ****   {
 143              		.loc 1 86 6 view .LVU35
 144 0004 0A9E     		ldr	r6, [sp, #40]
  83:Drivers/STM32F4xx_HAL_Driver/Src/stm32f4xx_ll_usb.c ****   HAL_StatusTypeDef ret;
 145              		.loc 1 83 1 view .LVU36
 146 0006 05AD     		add	r5, sp, #20
  86:Drivers/STM32F4xx_HAL_Driver/Src/stm32f4xx_ll_usb.c ****   {
 147              		.loc 1 86 6 view .LVU37
 148 0008 012E     		cmp	r6, #1
  83:Drivers/STM32F4xx_HAL_Driver/Src/stm32f4xx_ll_usb.c ****   HAL_StatusTypeDef ret;
 149              		.loc 1 83 1 view .LVU38
 150 000a 85E80E00 		stm	r5, {r1, r2, r3}
 151 000e 0446     		mov	r4, r0
  86:Drivers/STM32F4xx_HAL_Driver/Src/stm32f4xx_ll_usb.c ****   {
 152              		.loc 1 86 6 view .LVU39
 153 0010 22D1     		bne	.L17
  88:Drivers/STM32F4xx_HAL_Driver/Src/stm32f4xx_ll_usb.c **** 
 154              		.loc 1 88 5 is_stmt 1 view .LVU40
  88:Drivers/STM32F4xx_HAL_Driver/Src/stm32f4xx_ll_usb.c **** 
 155              		.loc 1 88 17 is_stmt 0 view .LVU41
 156 0012 836B     		ldr	r3, [r0, #56]
  95:Drivers/STM32F4xx_HAL_Driver/Src/stm32f4xx_ll_usb.c ****     {
 157              		.loc 1 95 8 view .LVU42
 158 0014 119A     		ldr	r2, [sp, #68]
  88:Drivers/STM32F4xx_HAL_Driver/Src/stm32f4xx_ll_usb.c **** 
 159              		.loc 1 88 17 view .LVU43
 160 0016 23F48033 		bic	r3, r3, #65536
 161 001a 8363     		str	r3, [r0, #56]
  91:Drivers/STM32F4xx_HAL_Driver/Src/stm32f4xx_ll_usb.c **** 
 162              		.loc 1 91 5 is_stmt 1 view .LVU44
  91:Drivers/STM32F4xx_HAL_Driver/Src/stm32f4xx_ll_usb.c **** 
 163              		.loc 1 91 19 is_stmt 0 view .LVU45
 164 001c C368     		ldr	r3, [r0, #12]
 165 001e 23F48403 		bic	r3, r3, #4325376
 166 0022 23F04003 		bic	r3, r3, #64
 167 0026 C360     		str	r3, [r0, #12]
  94:Drivers/STM32F4xx_HAL_Driver/Src/stm32f4xx_ll_usb.c ****     if (cfg.use_external_vbus == 1U)
 168              		.loc 1 94 5 is_stmt 1 view .LVU46
  94:Drivers/STM32F4xx_HAL_Driver/Src/stm32f4xx_ll_usb.c ****     if (cfg.use_external_vbus == 1U)
 169              		.loc 1 94 19 is_stmt 0 view .LVU47
 170 0028 C368     		ldr	r3, [r0, #12]
  95:Drivers/STM32F4xx_HAL_Driver/Src/stm32f4xx_ll_usb.c ****     {
 171              		.loc 1 95 8 view .LVU48
 172 002a 012A     		cmp	r2, #1
  94:Drivers/STM32F4xx_HAL_Driver/Src/stm32f4xx_ll_usb.c ****     if (cfg.use_external_vbus == 1U)
ARM GAS  /tmp/ccDzXOxq.s 			page 28


 173              		.loc 1 94 19 view .LVU49
 174 002c 23F44013 		bic	r3, r3, #3145728
 175 0030 C360     		str	r3, [r0, #12]
  95:Drivers/STM32F4xx_HAL_Driver/Src/stm32f4xx_ll_usb.c ****     {
 176              		.loc 1 95 5 is_stmt 1 view .LVU50
  95:Drivers/STM32F4xx_HAL_Driver/Src/stm32f4xx_ll_usb.c ****     {
 177              		.loc 1 95 8 is_stmt 0 view .LVU51
 178 0032 23D0     		beq	.L23
 179              	.L18:
 100:Drivers/STM32F4xx_HAL_Driver/Src/stm32f4xx_ll_usb.c ****   }
 180              		.loc 1 100 5 is_stmt 1 view .LVU52
 100:Drivers/STM32F4xx_HAL_Driver/Src/stm32f4xx_ll_usb.c ****   }
 181              		.loc 1 100 11 is_stmt 0 view .LVU53
 182 0034 2046     		mov	r0, r4
 183              	.LVL13:
 100:Drivers/STM32F4xx_HAL_Driver/Src/stm32f4xx_ll_usb.c ****   }
 184              		.loc 1 100 11 view .LVU54
 185 0036 FFF7FEFF 		bl	USB_CoreReset
 186              	.LVL14:
 187              	.L19:
 122:Drivers/STM32F4xx_HAL_Driver/Src/stm32f4xx_ll_usb.c ****   {
 188              		.loc 1 122 3 is_stmt 1 view .LVU55
 122:Drivers/STM32F4xx_HAL_Driver/Src/stm32f4xx_ll_usb.c ****   {
 189              		.loc 1 122 6 is_stmt 0 view .LVU56
 190 003a 089B     		ldr	r3, [sp, #32]
 191 003c 012B     		cmp	r3, #1
 192 003e 07D1     		bne	.L21
 124:Drivers/STM32F4xx_HAL_Driver/Src/stm32f4xx_ll_usb.c ****     USBx->GAHBCFG |= USB_OTG_GAHBCFG_DMAEN;
 193              		.loc 1 124 5 is_stmt 1 view .LVU57
 124:Drivers/STM32F4xx_HAL_Driver/Src/stm32f4xx_ll_usb.c ****     USBx->GAHBCFG |= USB_OTG_GAHBCFG_DMAEN;
 194              		.loc 1 124 19 is_stmt 0 view .LVU58
 195 0040 A368     		ldr	r3, [r4, #8]
 196 0042 43F00603 		orr	r3, r3, #6
 197 0046 A360     		str	r3, [r4, #8]
 125:Drivers/STM32F4xx_HAL_Driver/Src/stm32f4xx_ll_usb.c ****   }
 198              		.loc 1 125 5 is_stmt 1 view .LVU59
 125:Drivers/STM32F4xx_HAL_Driver/Src/stm32f4xx_ll_usb.c ****   }
 199              		.loc 1 125 19 is_stmt 0 view .LVU60
 200 0048 A368     		ldr	r3, [r4, #8]
 201 004a 43F02003 		orr	r3, r3, #32
 202 004e A360     		str	r3, [r4, #8]
 203              	.L21:
 128:Drivers/STM32F4xx_HAL_Driver/Src/stm32f4xx_ll_usb.c **** }
 204              		.loc 1 128 3 is_stmt 1 view .LVU61
 129:Drivers/STM32F4xx_HAL_Driver/Src/stm32f4xx_ll_usb.c **** 
 205              		.loc 1 129 1 is_stmt 0 view .LVU62
 206 0050 BDE87040 		pop	{r4, r5, r6, lr}
 207              	.LCFI2:
 208              		.cfi_remember_state
 209              		.cfi_restore 14
 210              		.cfi_restore 6
 211              		.cfi_restore 5
 212              		.cfi_restore 4
 213              		.cfi_def_cfa_offset 16
 214              	.LVL15:
 129:Drivers/STM32F4xx_HAL_Driver/Src/stm32f4xx_ll_usb.c **** 
 215              		.loc 1 129 1 view .LVU63
ARM GAS  /tmp/ccDzXOxq.s 			page 29


 216 0054 04B0     		add	sp, sp, #16
 217              	.LCFI3:
 218              		.cfi_def_cfa_offset 0
 219 0056 7047     		bx	lr
 220              	.LVL16:
 221              	.L17:
 222              	.LCFI4:
 223              		.cfi_restore_state
 105:Drivers/STM32F4xx_HAL_Driver/Src/stm32f4xx_ll_usb.c **** 
 224              		.loc 1 105 5 is_stmt 1 view .LVU64
 105:Drivers/STM32F4xx_HAL_Driver/Src/stm32f4xx_ll_usb.c **** 
 225              		.loc 1 105 19 is_stmt 0 view .LVU65
 226 0058 C368     		ldr	r3, [r0, #12]
 227 005a 43F04003 		orr	r3, r3, #64
 228 005e C360     		str	r3, [r0, #12]
 108:Drivers/STM32F4xx_HAL_Driver/Src/stm32f4xx_ll_usb.c **** 
 229              		.loc 1 108 5 is_stmt 1 view .LVU66
 108:Drivers/STM32F4xx_HAL_Driver/Src/stm32f4xx_ll_usb.c **** 
 230              		.loc 1 108 11 is_stmt 0 view .LVU67
 231 0060 FFF7FEFF 		bl	USB_CoreReset
 232              	.LVL17:
 110:Drivers/STM32F4xx_HAL_Driver/Src/stm32f4xx_ll_usb.c ****     {
 233              		.loc 1 110 8 view .LVU68
 234 0064 0E9B     		ldr	r3, [sp, #56]
 235              	.LVL18:
 110:Drivers/STM32F4xx_HAL_Driver/Src/stm32f4xx_ll_usb.c ****     {
 236              		.loc 1 110 5 is_stmt 1 view .LVU69
 110:Drivers/STM32F4xx_HAL_Driver/Src/stm32f4xx_ll_usb.c ****     {
 237              		.loc 1 110 8 is_stmt 0 view .LVU70
 238 0066 23B9     		cbnz	r3, .L20
 113:Drivers/STM32F4xx_HAL_Driver/Src/stm32f4xx_ll_usb.c ****     }
 239              		.loc 1 113 7 is_stmt 1 view .LVU71
 113:Drivers/STM32F4xx_HAL_Driver/Src/stm32f4xx_ll_usb.c ****     }
 240              		.loc 1 113 19 is_stmt 0 view .LVU72
 241 0068 A36B     		ldr	r3, [r4, #56]
 242 006a 43F48033 		orr	r3, r3, #65536
 243 006e A363     		str	r3, [r4, #56]
 244 0070 E3E7     		b	.L19
 245              	.L20:
 118:Drivers/STM32F4xx_HAL_Driver/Src/stm32f4xx_ll_usb.c ****     }
 246              		.loc 1 118 7 is_stmt 1 view .LVU73
 118:Drivers/STM32F4xx_HAL_Driver/Src/stm32f4xx_ll_usb.c ****     }
 247              		.loc 1 118 19 is_stmt 0 view .LVU74
 248 0072 A36B     		ldr	r3, [r4, #56]
 249 0074 23F48033 		bic	r3, r3, #65536
 250 0078 A363     		str	r3, [r4, #56]
 251 007a DEE7     		b	.L19
 252              	.LVL19:
 253              	.L23:
  97:Drivers/STM32F4xx_HAL_Driver/Src/stm32f4xx_ll_usb.c ****     }
 254              		.loc 1 97 7 is_stmt 1 view .LVU75
  97:Drivers/STM32F4xx_HAL_Driver/Src/stm32f4xx_ll_usb.c ****     }
 255              		.loc 1 97 21 is_stmt 0 view .LVU76
 256 007c C368     		ldr	r3, [r0, #12]
 257 007e 43F48013 		orr	r3, r3, #1048576
 258 0082 C360     		str	r3, [r0, #12]
 259 0084 D6E7     		b	.L18
ARM GAS  /tmp/ccDzXOxq.s 			page 30


 260              		.cfi_endproc
 261              	.LFE130:
 263 0086 00BF     		.section	.text.USB_SetTurnaroundTime,"ax",%progbits
 264              		.align	1
 265              		.p2align 2,,3
 266              		.global	USB_SetTurnaroundTime
 267              		.syntax unified
 268              		.thumb
 269              		.thumb_func
 270              		.fpu fpv4-sp-d16
 272              	USB_SetTurnaroundTime:
 273              	.LVL20:
 274              	.LFB131:
 140:Drivers/STM32F4xx_HAL_Driver/Src/stm32f4xx_ll_usb.c ****   uint32_t UsbTrd;
 275              		.loc 1 140 1 is_stmt 1 view -0
 276              		.cfi_startproc
 277              		@ args = 0, pretend = 0, frame = 0
 278              		@ frame_needed = 0, uses_anonymous_args = 0
 279              		@ link register save eliminated.
 141:Drivers/STM32F4xx_HAL_Driver/Src/stm32f4xx_ll_usb.c **** 
 280              		.loc 1 141 3 view .LVU78
 147:Drivers/STM32F4xx_HAL_Driver/Src/stm32f4xx_ll_usb.c ****   {
 281              		.loc 1 147 3 view .LVU79
 147:Drivers/STM32F4xx_HAL_Driver/Src/stm32f4xx_ll_usb.c ****   {
 282              		.loc 1 147 6 is_stmt 0 view .LVU80
 283 0000 022A     		cmp	r2, #2
 284 0002 0AD0     		beq	.L36
 285              	.LVL21:
 286              	.L33:
 147:Drivers/STM32F4xx_HAL_Driver/Src/stm32f4xx_ll_usb.c ****   {
 287              		.loc 1 147 6 view .LVU81
 288 0004 4FF41051 		mov	r1, #9216
 289              	.LVL22:
 290              	.L25:
 209:Drivers/STM32F4xx_HAL_Driver/Src/stm32f4xx_ll_usb.c ****   USBx->GUSBCFG |= (uint32_t)((UsbTrd << 10) & USB_OTG_GUSBCFG_TRDT);
 291              		.loc 1 209 3 is_stmt 1 view .LVU82
 209:Drivers/STM32F4xx_HAL_Driver/Src/stm32f4xx_ll_usb.c ****   USBx->GUSBCFG |= (uint32_t)((UsbTrd << 10) & USB_OTG_GUSBCFG_TRDT);
 292              		.loc 1 209 17 is_stmt 0 view .LVU83
 293 0008 C268     		ldr	r2, [r0, #12]
 294 000a 22F47052 		bic	r2, r2, #15360
 295 000e C260     		str	r2, [r0, #12]
 210:Drivers/STM32F4xx_HAL_Driver/Src/stm32f4xx_ll_usb.c **** 
 296              		.loc 1 210 3 is_stmt 1 view .LVU84
 210:Drivers/STM32F4xx_HAL_Driver/Src/stm32f4xx_ll_usb.c **** 
 297              		.loc 1 210 17 is_stmt 0 view .LVU85
 298 0010 C368     		ldr	r3, [r0, #12]
 299 0012 0B43     		orrs	r3, r3, r1
 300 0014 C360     		str	r3, [r0, #12]
 212:Drivers/STM32F4xx_HAL_Driver/Src/stm32f4xx_ll_usb.c **** }
 301              		.loc 1 212 3 is_stmt 1 view .LVU86
 213:Drivers/STM32F4xx_HAL_Driver/Src/stm32f4xx_ll_usb.c **** 
 302              		.loc 1 213 1 is_stmt 0 view .LVU87
 303 0016 0020     		movs	r0, #0
 304              	.LVL23:
 213:Drivers/STM32F4xx_HAL_Driver/Src/stm32f4xx_ll_usb.c **** 
 305              		.loc 1 213 1 view .LVU88
 306 0018 7047     		bx	lr
ARM GAS  /tmp/ccDzXOxq.s 			page 31


 307              	.LVL24:
 308              	.L36:
 149:Drivers/STM32F4xx_HAL_Driver/Src/stm32f4xx_ll_usb.c ****     {
 309              		.loc 1 149 5 is_stmt 1 view .LVU89
 149:Drivers/STM32F4xx_HAL_Driver/Src/stm32f4xx_ll_usb.c ****     {
 310              		.loc 1 149 29 is_stmt 0 view .LVU90
 311 001a 264B     		ldr	r3, .L37
 149:Drivers/STM32F4xx_HAL_Driver/Src/stm32f4xx_ll_usb.c ****     {
 312              		.loc 1 149 8 view .LVU91
 313 001c 264A     		ldr	r2, .L37+4
 314              	.LVL25:
 149:Drivers/STM32F4xx_HAL_Driver/Src/stm32f4xx_ll_usb.c ****     {
 315              		.loc 1 149 29 view .LVU92
 316 001e 0B44     		add	r3, r3, r1
 149:Drivers/STM32F4xx_HAL_Driver/Src/stm32f4xx_ll_usb.c ****     {
 317              		.loc 1 149 8 view .LVU93
 318 0020 9342     		cmp	r3, r2
 319 0022 32D9     		bls	.L27
 154:Drivers/STM32F4xx_HAL_Driver/Src/stm32f4xx_ll_usb.c ****     {
 320              		.loc 1 154 10 is_stmt 1 view .LVU94
 154:Drivers/STM32F4xx_HAL_Driver/Src/stm32f4xx_ll_usb.c ****     {
 321              		.loc 1 154 34 is_stmt 0 view .LVU95
 322 0024 254B     		ldr	r3, .L37+8
 154:Drivers/STM32F4xx_HAL_Driver/Src/stm32f4xx_ll_usb.c ****     {
 323              		.loc 1 154 13 view .LVU96
 324 0026 264A     		ldr	r2, .L37+12
 154:Drivers/STM32F4xx_HAL_Driver/Src/stm32f4xx_ll_usb.c ****     {
 325              		.loc 1 154 34 view .LVU97
 326 0028 0B44     		add	r3, r3, r1
 154:Drivers/STM32F4xx_HAL_Driver/Src/stm32f4xx_ll_usb.c ****     {
 327              		.loc 1 154 13 view .LVU98
 328 002a 9342     		cmp	r3, r2
 329 002c 30D9     		bls	.L28
 159:Drivers/STM32F4xx_HAL_Driver/Src/stm32f4xx_ll_usb.c ****     {
 330              		.loc 1 159 10 is_stmt 1 view .LVU99
 159:Drivers/STM32F4xx_HAL_Driver/Src/stm32f4xx_ll_usb.c ****     {
 331              		.loc 1 159 13 is_stmt 0 view .LVU100
 332 002e 254A     		ldr	r2, .L37+16
 159:Drivers/STM32F4xx_HAL_Driver/Src/stm32f4xx_ll_usb.c ****     {
 333              		.loc 1 159 34 view .LVU101
 334 0030 A1F57403 		sub	r3, r1, #15990784
 335 0034 A3F51053 		sub	r3, r3, #9216
 159:Drivers/STM32F4xx_HAL_Driver/Src/stm32f4xx_ll_usb.c ****     {
 336              		.loc 1 159 13 view .LVU102
 337 0038 9342     		cmp	r3, r2
 338 003a 2CD9     		bls	.L29
 164:Drivers/STM32F4xx_HAL_Driver/Src/stm32f4xx_ll_usb.c ****     {
 339              		.loc 1 164 10 is_stmt 1 view .LVU103
 164:Drivers/STM32F4xx_HAL_Driver/Src/stm32f4xx_ll_usb.c ****     {
 340              		.loc 1 164 13 is_stmt 0 view .LVU104
 341 003c 224A     		ldr	r2, .L37+20
 164:Drivers/STM32F4xx_HAL_Driver/Src/stm32f4xx_ll_usb.c ****     {
 342              		.loc 1 164 34 view .LVU105
 343 003e A1F18373 		sub	r3, r1, #17170432
 344 0042 A3F5E743 		sub	r3, r3, #29568
 164:Drivers/STM32F4xx_HAL_Driver/Src/stm32f4xx_ll_usb.c ****     {
 345              		.loc 1 164 13 view .LVU106
ARM GAS  /tmp/ccDzXOxq.s 			page 32


 346 0046 9342     		cmp	r3, r2
 347 0048 28D3     		bcc	.L30
 169:Drivers/STM32F4xx_HAL_Driver/Src/stm32f4xx_ll_usb.c ****     {
 348              		.loc 1 169 10 is_stmt 1 view .LVU107
 169:Drivers/STM32F4xx_HAL_Driver/Src/stm32f4xx_ll_usb.c ****     {
 349              		.loc 1 169 34 is_stmt 0 view .LVU108
 350 004a 204B     		ldr	r3, .L37+24
 169:Drivers/STM32F4xx_HAL_Driver/Src/stm32f4xx_ll_usb.c ****     {
 351              		.loc 1 169 13 view .LVU109
 352 004c 204A     		ldr	r2, .L37+28
 169:Drivers/STM32F4xx_HAL_Driver/Src/stm32f4xx_ll_usb.c ****     {
 353              		.loc 1 169 34 view .LVU110
 354 004e 0B44     		add	r3, r3, r1
 169:Drivers/STM32F4xx_HAL_Driver/Src/stm32f4xx_ll_usb.c ****     {
 355              		.loc 1 169 13 view .LVU111
 356 0050 9342     		cmp	r3, r2
 357 0052 26D9     		bls	.L31
 174:Drivers/STM32F4xx_HAL_Driver/Src/stm32f4xx_ll_usb.c ****     {
 358              		.loc 1 174 10 is_stmt 1 view .LVU112
 174:Drivers/STM32F4xx_HAL_Driver/Src/stm32f4xx_ll_usb.c ****     {
 359              		.loc 1 174 34 is_stmt 0 view .LVU113
 360 0054 1F4B     		ldr	r3, .L37+32
 174:Drivers/STM32F4xx_HAL_Driver/Src/stm32f4xx_ll_usb.c ****     {
 361              		.loc 1 174 13 view .LVU114
 362 0056 204A     		ldr	r2, .L37+36
 174:Drivers/STM32F4xx_HAL_Driver/Src/stm32f4xx_ll_usb.c ****     {
 363              		.loc 1 174 34 view .LVU115
 364 0058 0B44     		add	r3, r3, r1
 174:Drivers/STM32F4xx_HAL_Driver/Src/stm32f4xx_ll_usb.c ****     {
 365              		.loc 1 174 13 view .LVU116
 366 005a 9342     		cmp	r3, r2
 367 005c 24D3     		bcc	.L32
 179:Drivers/STM32F4xx_HAL_Driver/Src/stm32f4xx_ll_usb.c ****     {
 368              		.loc 1 179 10 is_stmt 1 view .LVU117
 179:Drivers/STM32F4xx_HAL_Driver/Src/stm32f4xx_ll_usb.c ****     {
 369              		.loc 1 179 34 is_stmt 0 view .LVU118
 370 005e 1F4B     		ldr	r3, .L37+40
 179:Drivers/STM32F4xx_HAL_Driver/Src/stm32f4xx_ll_usb.c ****     {
 371              		.loc 1 179 13 view .LVU119
 372 0060 1F4A     		ldr	r2, .L37+44
 179:Drivers/STM32F4xx_HAL_Driver/Src/stm32f4xx_ll_usb.c ****     {
 373              		.loc 1 179 34 view .LVU120
 374 0062 0B44     		add	r3, r3, r1
 179:Drivers/STM32F4xx_HAL_Driver/Src/stm32f4xx_ll_usb.c ****     {
 375              		.loc 1 179 13 view .LVU121
 376 0064 9342     		cmp	r3, r2
 377 0066 CDD3     		bcc	.L33
 184:Drivers/STM32F4xx_HAL_Driver/Src/stm32f4xx_ll_usb.c ****     {
 378              		.loc 1 184 10 is_stmt 1 view .LVU122
 184:Drivers/STM32F4xx_HAL_Driver/Src/stm32f4xx_ll_usb.c ****     {
 379              		.loc 1 184 13 is_stmt 0 view .LVU123
 380 0068 1E4A     		ldr	r2, .L37+48
 184:Drivers/STM32F4xx_HAL_Driver/Src/stm32f4xx_ll_usb.c ****     {
 381              		.loc 1 184 34 view .LVU124
 382 006a A1F1B773 		sub	r3, r1, #23986176
 383 006e A3F55853 		sub	r3, r3, #13824
 184:Drivers/STM32F4xx_HAL_Driver/Src/stm32f4xx_ll_usb.c ****     {
ARM GAS  /tmp/ccDzXOxq.s 			page 33


 384              		.loc 1 184 13 view .LVU125
 385 0072 9342     		cmp	r3, r2
 386 0074 1BD3     		bcc	.L34
 189:Drivers/STM32F4xx_HAL_Driver/Src/stm32f4xx_ll_usb.c ****     {
 387              		.loc 1 189 10 is_stmt 1 view .LVU126
 189:Drivers/STM32F4xx_HAL_Driver/Src/stm32f4xx_ll_usb.c ****     {
 388              		.loc 1 189 34 is_stmt 0 view .LVU127
 389 0076 1C4B     		ldr	r3, .L37+52
 189:Drivers/STM32F4xx_HAL_Driver/Src/stm32f4xx_ll_usb.c ****     {
 390              		.loc 1 189 13 view .LVU128
 391 0078 1C4A     		ldr	r2, .L37+56
 189:Drivers/STM32F4xx_HAL_Driver/Src/stm32f4xx_ll_usb.c ****     {
 392              		.loc 1 189 34 view .LVU129
 393 007a 0B44     		add	r3, r3, r1
 189:Drivers/STM32F4xx_HAL_Driver/Src/stm32f4xx_ll_usb.c ****     {
 394              		.loc 1 189 13 view .LVU130
 395 007c 9342     		cmp	r3, r2
 396 007e 34BF     		ite	cc
 397 0080 4FF4E051 		movcc	r1, #7168
 398 0084 4FF4C051 		movcs	r1, #6144
 399              	.LVL26:
 189:Drivers/STM32F4xx_HAL_Driver/Src/stm32f4xx_ll_usb.c ****     {
 400              		.loc 1 189 13 view .LVU131
 401 0088 BEE7     		b	.L25
 402              	.LVL27:
 403              	.L27:
 189:Drivers/STM32F4xx_HAL_Driver/Src/stm32f4xx_ll_usb.c ****     {
 404              		.loc 1 189 13 view .LVU132
 405 008a 4FF47051 		mov	r1, #15360
 406              	.LVL28:
 189:Drivers/STM32F4xx_HAL_Driver/Src/stm32f4xx_ll_usb.c ****     {
 407              		.loc 1 189 13 view .LVU133
 408 008e BBE7     		b	.L25
 409              	.LVL29:
 410              	.L28:
 189:Drivers/STM32F4xx_HAL_Driver/Src/stm32f4xx_ll_usb.c ****     {
 411              		.loc 1 189 13 view .LVU134
 412 0090 4FF46051 		mov	r1, #14336
 413              	.LVL30:
 189:Drivers/STM32F4xx_HAL_Driver/Src/stm32f4xx_ll_usb.c ****     {
 414              		.loc 1 189 13 view .LVU135
 415 0094 B8E7     		b	.L25
 416              	.LVL31:
 417              	.L29:
 189:Drivers/STM32F4xx_HAL_Driver/Src/stm32f4xx_ll_usb.c ****     {
 418              		.loc 1 189 13 view .LVU136
 419 0096 4FF45051 		mov	r1, #13312
 420              	.LVL32:
 189:Drivers/STM32F4xx_HAL_Driver/Src/stm32f4xx_ll_usb.c ****     {
 421              		.loc 1 189 13 view .LVU137
 422 009a B5E7     		b	.L25
 423              	.LVL33:
 424              	.L30:
 189:Drivers/STM32F4xx_HAL_Driver/Src/stm32f4xx_ll_usb.c ****     {
 425              		.loc 1 189 13 view .LVU138
 426 009c 4FF44051 		mov	r1, #12288
 427              	.LVL34:
ARM GAS  /tmp/ccDzXOxq.s 			page 34


 189:Drivers/STM32F4xx_HAL_Driver/Src/stm32f4xx_ll_usb.c ****     {
 428              		.loc 1 189 13 view .LVU139
 429 00a0 B2E7     		b	.L25
 430              	.LVL35:
 431              	.L31:
 189:Drivers/STM32F4xx_HAL_Driver/Src/stm32f4xx_ll_usb.c ****     {
 432              		.loc 1 189 13 view .LVU140
 433 00a2 4FF43051 		mov	r1, #11264
 434              	.LVL36:
 189:Drivers/STM32F4xx_HAL_Driver/Src/stm32f4xx_ll_usb.c ****     {
 435              		.loc 1 189 13 view .LVU141
 436 00a6 AFE7     		b	.L25
 437              	.LVL37:
 438              	.L32:
 189:Drivers/STM32F4xx_HAL_Driver/Src/stm32f4xx_ll_usb.c ****     {
 439              		.loc 1 189 13 view .LVU142
 440 00a8 4FF42051 		mov	r1, #10240
 441              	.LVL38:
 189:Drivers/STM32F4xx_HAL_Driver/Src/stm32f4xx_ll_usb.c ****     {
 442              		.loc 1 189 13 view .LVU143
 443 00ac ACE7     		b	.L25
 444              	.LVL39:
 445              	.L34:
 189:Drivers/STM32F4xx_HAL_Driver/Src/stm32f4xx_ll_usb.c ****     {
 446              		.loc 1 189 13 view .LVU144
 447 00ae 4FF40051 		mov	r1, #8192
 448              	.LVL40:
 189:Drivers/STM32F4xx_HAL_Driver/Src/stm32f4xx_ll_usb.c ****     {
 449              		.loc 1 189 13 view .LVU145
 450 00b2 A9E7     		b	.L25
 451              	.L38:
 452              		.align	2
 453              	.L37:
 454 00b4 405327FF 		.word	-14200000
 455 00b8 FF340C00 		.word	799999
 456 00bc 401E1BFF 		.word	-15000000
 457 00c0 3F420F00 		.word	999999
 458 00c4 7F4F1200 		.word	1199999
 459 00c8 20D61300 		.word	1300000
 460 00cc 60B6E5FE 		.word	-18500000
 461 00d0 5FE31600 		.word	1499999
 462 00d4 00D3CEFE 		.word	-20000000
 463 00d8 40771B00 		.word	1800000
 464 00dc C05BB3FE 		.word	-21800000
 465 00e0 C0912100 		.word	2200000
 466 00e4 20753800 		.word	3700000
 467 00e8 E05459FE 		.word	-27700000
 468 00ec E09C4100 		.word	4300000
 469              		.cfi_endproc
 470              	.LFE131:
 472              		.section	.text.USB_EnableGlobalInt,"ax",%progbits
 473              		.align	1
 474              		.p2align 2,,3
 475              		.global	USB_EnableGlobalInt
 476              		.syntax unified
 477              		.thumb
 478              		.thumb_func
ARM GAS  /tmp/ccDzXOxq.s 			page 35


 479              		.fpu fpv4-sp-d16
 481              	USB_EnableGlobalInt:
 482              	.LVL41:
 483              	.LFB132:
 222:Drivers/STM32F4xx_HAL_Driver/Src/stm32f4xx_ll_usb.c ****   USBx->GAHBCFG |= USB_OTG_GAHBCFG_GINT;
 484              		.loc 1 222 1 is_stmt 1 view -0
 485              		.cfi_startproc
 486              		@ args = 0, pretend = 0, frame = 0
 487              		@ frame_needed = 0, uses_anonymous_args = 0
 488              		@ link register save eliminated.
 223:Drivers/STM32F4xx_HAL_Driver/Src/stm32f4xx_ll_usb.c ****   return HAL_OK;
 489              		.loc 1 223 3 view .LVU147
 222:Drivers/STM32F4xx_HAL_Driver/Src/stm32f4xx_ll_usb.c ****   USBx->GAHBCFG |= USB_OTG_GAHBCFG_GINT;
 490              		.loc 1 222 1 is_stmt 0 view .LVU148
 491 0000 0346     		mov	r3, r0
 225:Drivers/STM32F4xx_HAL_Driver/Src/stm32f4xx_ll_usb.c **** 
 492              		.loc 1 225 1 view .LVU149
 493 0002 0020     		movs	r0, #0
 494              	.LVL42:
 223:Drivers/STM32F4xx_HAL_Driver/Src/stm32f4xx_ll_usb.c ****   return HAL_OK;
 495              		.loc 1 223 17 view .LVU150
 496 0004 9A68     		ldr	r2, [r3, #8]
 497 0006 42F00102 		orr	r2, r2, #1
 498 000a 9A60     		str	r2, [r3, #8]
 224:Drivers/STM32F4xx_HAL_Driver/Src/stm32f4xx_ll_usb.c **** }
 499              		.loc 1 224 3 is_stmt 1 view .LVU151
 225:Drivers/STM32F4xx_HAL_Driver/Src/stm32f4xx_ll_usb.c **** 
 500              		.loc 1 225 1 is_stmt 0 view .LVU152
 501 000c 7047     		bx	lr
 502              		.cfi_endproc
 503              	.LFE132:
 505 000e 00BF     		.section	.text.USB_DisableGlobalInt,"ax",%progbits
 506              		.align	1
 507              		.p2align 2,,3
 508              		.global	USB_DisableGlobalInt
 509              		.syntax unified
 510              		.thumb
 511              		.thumb_func
 512              		.fpu fpv4-sp-d16
 514              	USB_DisableGlobalInt:
 515              	.LVL43:
 516              	.LFB133:
 234:Drivers/STM32F4xx_HAL_Driver/Src/stm32f4xx_ll_usb.c ****   USBx->GAHBCFG &= ~USB_OTG_GAHBCFG_GINT;
 517              		.loc 1 234 1 is_stmt 1 view -0
 518              		.cfi_startproc
 519              		@ args = 0, pretend = 0, frame = 0
 520              		@ frame_needed = 0, uses_anonymous_args = 0
 521              		@ link register save eliminated.
 235:Drivers/STM32F4xx_HAL_Driver/Src/stm32f4xx_ll_usb.c ****   return HAL_OK;
 522              		.loc 1 235 3 view .LVU154
 234:Drivers/STM32F4xx_HAL_Driver/Src/stm32f4xx_ll_usb.c ****   USBx->GAHBCFG &= ~USB_OTG_GAHBCFG_GINT;
 523              		.loc 1 234 1 is_stmt 0 view .LVU155
 524 0000 0346     		mov	r3, r0
 237:Drivers/STM32F4xx_HAL_Driver/Src/stm32f4xx_ll_usb.c **** 
 525              		.loc 1 237 1 view .LVU156
 526 0002 0020     		movs	r0, #0
 527              	.LVL44:
ARM GAS  /tmp/ccDzXOxq.s 			page 36


 235:Drivers/STM32F4xx_HAL_Driver/Src/stm32f4xx_ll_usb.c ****   return HAL_OK;
 528              		.loc 1 235 17 view .LVU157
 529 0004 9A68     		ldr	r2, [r3, #8]
 530 0006 22F00102 		bic	r2, r2, #1
 531 000a 9A60     		str	r2, [r3, #8]
 236:Drivers/STM32F4xx_HAL_Driver/Src/stm32f4xx_ll_usb.c **** }
 532              		.loc 1 236 3 is_stmt 1 view .LVU158
 237:Drivers/STM32F4xx_HAL_Driver/Src/stm32f4xx_ll_usb.c **** 
 533              		.loc 1 237 1 is_stmt 0 view .LVU159
 534 000c 7047     		bx	lr
 535              		.cfi_endproc
 536              	.LFE133:
 538 000e 00BF     		.section	.text.USB_SetCurrentMode,"ax",%progbits
 539              		.align	1
 540              		.p2align 2,,3
 541              		.global	USB_SetCurrentMode
 542              		.syntax unified
 543              		.thumb
 544              		.thumb_func
 545              		.fpu fpv4-sp-d16
 547              	USB_SetCurrentMode:
 548              	.LVL45:
 549              	.LFB134:
 249:Drivers/STM32F4xx_HAL_Driver/Src/stm32f4xx_ll_usb.c ****   USBx->GUSBCFG &= ~(USB_OTG_GUSBCFG_FHMOD | USB_OTG_GUSBCFG_FDMOD);
 550              		.loc 1 249 1 is_stmt 1 view -0
 551              		.cfi_startproc
 552              		@ args = 0, pretend = 0, frame = 0
 553              		@ frame_needed = 0, uses_anonymous_args = 0
 250:Drivers/STM32F4xx_HAL_Driver/Src/stm32f4xx_ll_usb.c **** 
 554              		.loc 1 250 3 view .LVU161
 249:Drivers/STM32F4xx_HAL_Driver/Src/stm32f4xx_ll_usb.c ****   USBx->GUSBCFG &= ~(USB_OTG_GUSBCFG_FHMOD | USB_OTG_GUSBCFG_FDMOD);
 555              		.loc 1 249 1 is_stmt 0 view .LVU162
 556 0000 08B5     		push	{r3, lr}
 557              	.LCFI5:
 558              		.cfi_def_cfa_offset 8
 559              		.cfi_offset 3, -8
 560              		.cfi_offset 14, -4
 250:Drivers/STM32F4xx_HAL_Driver/Src/stm32f4xx_ll_usb.c **** 
 561              		.loc 1 250 17 view .LVU163
 562 0002 C368     		ldr	r3, [r0, #12]
 252:Drivers/STM32F4xx_HAL_Driver/Src/stm32f4xx_ll_usb.c ****   {
 563              		.loc 1 252 6 view .LVU164
 564 0004 0129     		cmp	r1, #1
 250:Drivers/STM32F4xx_HAL_Driver/Src/stm32f4xx_ll_usb.c **** 
 565              		.loc 1 250 17 view .LVU165
 566 0006 23F0C043 		bic	r3, r3, #1610612736
 567 000a C360     		str	r3, [r0, #12]
 252:Drivers/STM32F4xx_HAL_Driver/Src/stm32f4xx_ll_usb.c ****   {
 568              		.loc 1 252 3 is_stmt 1 view .LVU166
 252:Drivers/STM32F4xx_HAL_Driver/Src/stm32f4xx_ll_usb.c ****   {
 569              		.loc 1 252 6 is_stmt 0 view .LVU167
 570 000c 0BD0     		beq	.L47
 256:Drivers/STM32F4xx_HAL_Driver/Src/stm32f4xx_ll_usb.c ****   {
 571              		.loc 1 256 8 is_stmt 1 view .LVU168
 256:Drivers/STM32F4xx_HAL_Driver/Src/stm32f4xx_ll_usb.c ****   {
 572              		.loc 1 256 11 is_stmt 0 view .LVU169
 573 000e 41B9     		cbnz	r1, .L45
ARM GAS  /tmp/ccDzXOxq.s 			page 37


 258:Drivers/STM32F4xx_HAL_Driver/Src/stm32f4xx_ll_usb.c ****   }
 574              		.loc 1 258 5 is_stmt 1 view .LVU170
 258:Drivers/STM32F4xx_HAL_Driver/Src/stm32f4xx_ll_usb.c ****   }
 575              		.loc 1 258 19 is_stmt 0 view .LVU171
 576 0010 C368     		ldr	r3, [r0, #12]
 577 0012 43F08043 		orr	r3, r3, #1073741824
 578 0016 C360     		str	r3, [r0, #12]
 579              	.L43:
 264:Drivers/STM32F4xx_HAL_Driver/Src/stm32f4xx_ll_usb.c **** 
 580              		.loc 1 264 3 is_stmt 1 view .LVU172
 581 0018 3220     		movs	r0, #50
 582              	.LVL46:
 264:Drivers/STM32F4xx_HAL_Driver/Src/stm32f4xx_ll_usb.c **** 
 583              		.loc 1 264 3 is_stmt 0 view .LVU173
 584 001a FFF7FEFF 		bl	HAL_Delay
 585              	.LVL47:
 266:Drivers/STM32F4xx_HAL_Driver/Src/stm32f4xx_ll_usb.c **** }
 586              		.loc 1 266 3 is_stmt 1 view .LVU174
 266:Drivers/STM32F4xx_HAL_Driver/Src/stm32f4xx_ll_usb.c **** }
 587              		.loc 1 266 10 is_stmt 0 view .LVU175
 588 001e 0020     		movs	r0, #0
 267:Drivers/STM32F4xx_HAL_Driver/Src/stm32f4xx_ll_usb.c **** 
 589              		.loc 1 267 1 view .LVU176
 590 0020 08BD     		pop	{r3, pc}
 591              	.LVL48:
 592              	.L45:
 262:Drivers/STM32F4xx_HAL_Driver/Src/stm32f4xx_ll_usb.c ****   }
 593              		.loc 1 262 12 view .LVU177
 594 0022 0120     		movs	r0, #1
 595              	.LVL49:
 267:Drivers/STM32F4xx_HAL_Driver/Src/stm32f4xx_ll_usb.c **** 
 596              		.loc 1 267 1 view .LVU178
 597 0024 08BD     		pop	{r3, pc}
 598              	.LVL50:
 599              	.L47:
 254:Drivers/STM32F4xx_HAL_Driver/Src/stm32f4xx_ll_usb.c ****   }
 600              		.loc 1 254 5 is_stmt 1 view .LVU179
 254:Drivers/STM32F4xx_HAL_Driver/Src/stm32f4xx_ll_usb.c ****   }
 601              		.loc 1 254 19 is_stmt 0 view .LVU180
 602 0026 C368     		ldr	r3, [r0, #12]
 603 0028 43F00053 		orr	r3, r3, #536870912
 604 002c C360     		str	r3, [r0, #12]
 605 002e F3E7     		b	.L43
 606              		.cfi_endproc
 607              	.LFE134:
 609              		.section	.text.USB_DevInit,"ax",%progbits
 610              		.align	1
 611              		.p2align 2,,3
 612              		.global	USB_DevInit
 613              		.syntax unified
 614              		.thumb
 615              		.thumb_func
 616              		.fpu fpv4-sp-d16
 618              	USB_DevInit:
 619              	.LVL51:
 620              	.LFB135:
 278:Drivers/STM32F4xx_HAL_Driver/Src/stm32f4xx_ll_usb.c ****   HAL_StatusTypeDef ret = HAL_OK;
ARM GAS  /tmp/ccDzXOxq.s 			page 38


 621              		.loc 1 278 1 is_stmt 1 view -0
 622              		.cfi_startproc
 623              		@ args = 56, pretend = 16, frame = 0
 624              		@ frame_needed = 0, uses_anonymous_args = 0
 278:Drivers/STM32F4xx_HAL_Driver/Src/stm32f4xx_ll_usb.c ****   HAL_StatusTypeDef ret = HAL_OK;
 625              		.loc 1 278 1 is_stmt 0 view .LVU182
 626 0000 84B0     		sub	sp, sp, #16
 627              	.LCFI6:
 628              		.cfi_def_cfa_offset 16
 629 0002 2DE9F043 		push	{r4, r5, r6, r7, r8, r9, lr}
 630              	.LCFI7:
 631              		.cfi_def_cfa_offset 44
 632              		.cfi_offset 4, -44
 633              		.cfi_offset 5, -40
 634              		.cfi_offset 6, -36
 635              		.cfi_offset 7, -32
 636              		.cfi_offset 8, -28
 637              		.cfi_offset 9, -24
 638              		.cfi_offset 14, -20
 278:Drivers/STM32F4xx_HAL_Driver/Src/stm32f4xx_ll_usb.c ****   HAL_StatusTypeDef ret = HAL_OK;
 639              		.loc 1 278 1 view .LVU183
 640 0006 08AC     		add	r4, sp, #32
 641 0008 84E80E00 		stm	r4, {r1, r2, r3}
 283:Drivers/STM32F4xx_HAL_Driver/Src/stm32f4xx_ll_usb.c ****   {
 642              		.loc 1 283 10 view .LVU184
 643 000c 0022     		movs	r2, #0
 644 000e 129D     		ldr	r5, [sp, #72]
 278:Drivers/STM32F4xx_HAL_Driver/Src/stm32f4xx_ll_usb.c ****   HAL_StatusTypeDef ret = HAL_OK;
 645              		.loc 1 278 1 view .LVU185
 646 0010 0346     		mov	r3, r0
 647 0012 0C46     		mov	r4, r1
 648              	.LVL52:
 279:Drivers/STM32F4xx_HAL_Driver/Src/stm32f4xx_ll_usb.c ****   uint32_t USBx_BASE = (uint32_t)USBx;
 649              		.loc 1 279 3 is_stmt 1 view .LVU186
 280:Drivers/STM32F4xx_HAL_Driver/Src/stm32f4xx_ll_usb.c ****   uint32_t i;
 650              		.loc 1 280 3 view .LVU187
 281:Drivers/STM32F4xx_HAL_Driver/Src/stm32f4xx_ll_usb.c **** 
 651              		.loc 1 281 3 view .LVU188
 283:Drivers/STM32F4xx_HAL_Driver/Src/stm32f4xx_ll_usb.c ****   {
 652              		.loc 1 283 3 view .LVU189
 283:Drivers/STM32F4xx_HAL_Driver/Src/stm32f4xx_ll_usb.c ****   {
 653              		.loc 1 283 16 view .LVU190
 285:Drivers/STM32F4xx_HAL_Driver/Src/stm32f4xx_ll_usb.c ****   }
 654              		.loc 1 285 22 is_stmt 0 view .LVU191
 655 0014 1046     		mov	r0, r2
 656              	.LVL53:
 657              	.L49:
 285:Drivers/STM32F4xx_HAL_Driver/Src/stm32f4xx_ll_usb.c ****   }
 658              		.loc 1 285 5 is_stmt 1 discriminator 3 view .LVU192
 285:Drivers/STM32F4xx_HAL_Driver/Src/stm32f4xx_ll_usb.c ****   }
 659              		.loc 1 285 22 is_stmt 0 discriminator 3 view .LVU193
 660 0016 02F14001 		add	r1, r2, #64
 661 001a 03EB8101 		add	r1, r3, r1, lsl #2
 283:Drivers/STM32F4xx_HAL_Driver/Src/stm32f4xx_ll_usb.c ****   {
 662              		.loc 1 283 26 discriminator 3 view .LVU194
 663 001e 0132     		adds	r2, r2, #1
 664              	.LVL54:
ARM GAS  /tmp/ccDzXOxq.s 			page 39


 283:Drivers/STM32F4xx_HAL_Driver/Src/stm32f4xx_ll_usb.c ****   {
 665              		.loc 1 283 3 discriminator 3 view .LVU195
 666 0020 0F2A     		cmp	r2, #15
 285:Drivers/STM32F4xx_HAL_Driver/Src/stm32f4xx_ll_usb.c ****   }
 667              		.loc 1 285 22 discriminator 3 view .LVU196
 668 0022 4860     		str	r0, [r1, #4]
 283:Drivers/STM32F4xx_HAL_Driver/Src/stm32f4xx_ll_usb.c ****   {
 669              		.loc 1 283 25 is_stmt 1 discriminator 3 view .LVU197
 670              	.LVL55:
 283:Drivers/STM32F4xx_HAL_Driver/Src/stm32f4xx_ll_usb.c ****   {
 671              		.loc 1 283 16 discriminator 3 view .LVU198
 283:Drivers/STM32F4xx_HAL_Driver/Src/stm32f4xx_ll_usb.c ****   {
 672              		.loc 1 283 3 is_stmt 0 discriminator 3 view .LVU199
 673 0024 F7D1     		bne	.L49
 308:Drivers/STM32F4xx_HAL_Driver/Src/stm32f4xx_ll_usb.c ****   {
 674              		.loc 1 308 3 is_stmt 1 view .LVU200
 308:Drivers/STM32F4xx_HAL_Driver/Src/stm32f4xx_ll_usb.c ****   {
 675              		.loc 1 308 6 is_stmt 0 view .LVU201
 676 0026 002D     		cmp	r5, #0
 677 0028 40F0A080 		bne	.L50
 314:Drivers/STM32F4xx_HAL_Driver/Src/stm32f4xx_ll_usb.c ****     USBx->GCCFG |= USB_OTG_GCCFG_NOVBUSSENS;
 678              		.loc 1 314 5 is_stmt 1 view .LVU202
 314:Drivers/STM32F4xx_HAL_Driver/Src/stm32f4xx_ll_usb.c ****     USBx->GCCFG |= USB_OTG_GCCFG_NOVBUSSENS;
 679              		.loc 1 314 23 is_stmt 0 view .LVU203
 680 002c D3F80428 		ldr	r2, [r3, #2052]
 681              	.LVL56:
 314:Drivers/STM32F4xx_HAL_Driver/Src/stm32f4xx_ll_usb.c ****     USBx->GCCFG |= USB_OTG_GCCFG_NOVBUSSENS;
 682              		.loc 1 314 23 view .LVU204
 683 0030 42F00202 		orr	r2, r2, #2
 684 0034 C3F80428 		str	r2, [r3, #2052]
 315:Drivers/STM32F4xx_HAL_Driver/Src/stm32f4xx_ll_usb.c ****     USBx->GCCFG &= ~USB_OTG_GCCFG_VBUSBSEN;
 685              		.loc 1 315 5 is_stmt 1 view .LVU205
 315:Drivers/STM32F4xx_HAL_Driver/Src/stm32f4xx_ll_usb.c ****     USBx->GCCFG &= ~USB_OTG_GCCFG_VBUSBSEN;
 686              		.loc 1 315 17 is_stmt 0 view .LVU206
 687 0038 9A6B     		ldr	r2, [r3, #56]
 688 003a 42F40012 		orr	r2, r2, #2097152
 689 003e 9A63     		str	r2, [r3, #56]
 316:Drivers/STM32F4xx_HAL_Driver/Src/stm32f4xx_ll_usb.c ****     USBx->GCCFG &= ~USB_OTG_GCCFG_VBUSASEN;
 690              		.loc 1 316 5 is_stmt 1 view .LVU207
 316:Drivers/STM32F4xx_HAL_Driver/Src/stm32f4xx_ll_usb.c ****     USBx->GCCFG &= ~USB_OTG_GCCFG_VBUSASEN;
 691              		.loc 1 316 17 is_stmt 0 view .LVU208
 692 0040 9A6B     		ldr	r2, [r3, #56]
 693 0042 22F40022 		bic	r2, r2, #524288
 694 0046 9A63     		str	r2, [r3, #56]
 317:Drivers/STM32F4xx_HAL_Driver/Src/stm32f4xx_ll_usb.c ****   }
 695              		.loc 1 317 5 is_stmt 1 view .LVU209
 317:Drivers/STM32F4xx_HAL_Driver/Src/stm32f4xx_ll_usb.c ****   }
 696              		.loc 1 317 17 is_stmt 0 view .LVU210
 697 0048 9A6B     		ldr	r2, [r3, #56]
 698 004a 22F48022 		bic	r2, r2, #262144
 314:Drivers/STM32F4xx_HAL_Driver/Src/stm32f4xx_ll_usb.c ****     USBx->GCCFG |= USB_OTG_GCCFG_NOVBUSSENS;
 699              		.loc 1 314 23 view .LVU211
 700 004e 03F50066 		add	r6, r3, #2048
 317:Drivers/STM32F4xx_HAL_Driver/Src/stm32f4xx_ll_usb.c ****   }
 701              		.loc 1 317 17 view .LVU212
 702 0052 9A63     		str	r2, [r3, #56]
 703              	.L51:
ARM GAS  /tmp/ccDzXOxq.s 			page 40


 328:Drivers/STM32F4xx_HAL_Driver/Src/stm32f4xx_ll_usb.c **** 
 704              		.loc 1 328 3 is_stmt 1 view .LVU213
 328:Drivers/STM32F4xx_HAL_Driver/Src/stm32f4xx_ll_usb.c **** 
 705              		.loc 1 328 16 is_stmt 0 view .LVU214
 706 0054 0022     		movs	r2, #0
 707 0056 C3F8002E 		str	r2, [r3, #3584]
 331:Drivers/STM32F4xx_HAL_Driver/Src/stm32f4xx_ll_usb.c **** 
 708              		.loc 1 331 3 is_stmt 1 view .LVU215
 333:Drivers/STM32F4xx_HAL_Driver/Src/stm32f4xx_ll_usb.c ****   {
 709              		.loc 1 333 6 is_stmt 0 view .LVU216
 710 005a 0D9A     		ldr	r2, [sp, #52]
 331:Drivers/STM32F4xx_HAL_Driver/Src/stm32f4xx_ll_usb.c **** 
 711              		.loc 1 331 21 view .LVU217
 712 005c 3168     		ldr	r1, [r6]
 713 005e 3160     		str	r1, [r6]
 333:Drivers/STM32F4xx_HAL_Driver/Src/stm32f4xx_ll_usb.c ****   {
 714              		.loc 1 333 3 is_stmt 1 view .LVU218
 333:Drivers/STM32F4xx_HAL_Driver/Src/stm32f4xx_ll_usb.c ****   {
 715              		.loc 1 333 6 is_stmt 0 view .LVU219
 716 0060 012A     		cmp	r2, #1
 717 0062 00F08E80 		beq	.L86
 349:Drivers/STM32F4xx_HAL_Driver/Src/stm32f4xx_ll_usb.c ****   }
 718              		.loc 1 349 5 is_stmt 1 view .LVU220
 719              	.LVL57:
 720              	.LBB40:
 721              	.LBI40:
 503:Drivers/STM32F4xx_HAL_Driver/Src/stm32f4xx_ll_usb.c **** {
 722              		.loc 1 503 19 view .LVU221
 723              	.LBB41:
 505:Drivers/STM32F4xx_HAL_Driver/Src/stm32f4xx_ll_usb.c **** 
 724              		.loc 1 505 3 view .LVU222
 507:Drivers/STM32F4xx_HAL_Driver/Src/stm32f4xx_ll_usb.c ****   return HAL_OK;
 725              		.loc 1 507 3 view .LVU223
 507:Drivers/STM32F4xx_HAL_Driver/Src/stm32f4xx_ll_usb.c ****   return HAL_OK;
 726              		.loc 1 507 21 is_stmt 0 view .LVU224
 727 0066 3268     		ldr	r2, [r6]
 728 0068 42F00302 		orr	r2, r2, #3
 729 006c 3260     		str	r2, [r6]
 508:Drivers/STM32F4xx_HAL_Driver/Src/stm32f4xx_ll_usb.c **** }
 730              		.loc 1 508 3 is_stmt 1 view .LVU225
 731              	.LVL58:
 732              	.L54:
 508:Drivers/STM32F4xx_HAL_Driver/Src/stm32f4xx_ll_usb.c **** }
 733              		.loc 1 508 3 is_stmt 0 view .LVU226
 734              	.LBE41:
 735              	.LBE40:
 353:Drivers/STM32F4xx_HAL_Driver/Src/stm32f4xx_ll_usb.c ****   {
 736              		.loc 1 353 3 is_stmt 1 view .LVU227
 737              	.LBB42:
 738              	.LBI42:
 453:Drivers/STM32F4xx_HAL_Driver/Src/stm32f4xx_ll_usb.c **** {
 739              		.loc 1 453 19 view .LVU228
 740              	.LBB43:
 455:Drivers/STM32F4xx_HAL_Driver/Src/stm32f4xx_ll_usb.c **** 
 741              		.loc 1 455 3 view .LVU229
 457:Drivers/STM32F4xx_HAL_Driver/Src/stm32f4xx_ll_usb.c **** 
 742              		.loc 1 457 3 view .LVU230
ARM GAS  /tmp/ccDzXOxq.s 			page 41


 457:Drivers/STM32F4xx_HAL_Driver/Src/stm32f4xx_ll_usb.c **** 
 743              		.loc 1 457 17 is_stmt 0 view .LVU231
 744 006e 4FF48462 		mov	r2, #1056
 745 0072 1A61     		str	r2, [r3, #16]
 459:Drivers/STM32F4xx_HAL_Driver/Src/stm32f4xx_ll_usb.c ****   {
 746              		.loc 1 459 3 is_stmt 1 view .LVU232
 461:Drivers/STM32F4xx_HAL_Driver/Src/stm32f4xx_ll_usb.c ****     {
 747              		.loc 1 461 5 view .LVU233
 748              	.LVL59:
 457:Drivers/STM32F4xx_HAL_Driver/Src/stm32f4xx_ll_usb.c **** 
 749              		.loc 1 457 17 is_stmt 0 view .LVU234
 750 0074 4A4A     		ldr	r2, .L90
 751 0076 02E0     		b	.L55
 752              	.LVL60:
 753              	.L57:
 461:Drivers/STM32F4xx_HAL_Driver/Src/stm32f4xx_ll_usb.c ****     {
 754              		.loc 1 461 8 view .LVU235
 755 0078 013A     		subs	r2, r2, #1
 756              	.LVL61:
 461:Drivers/STM32F4xx_HAL_Driver/Src/stm32f4xx_ll_usb.c ****     {
 757              		.loc 1 461 8 view .LVU236
 758 007a 00F08C80 		beq	.L75
 759              	.LVL62:
 760              	.L55:
 459:Drivers/STM32F4xx_HAL_Driver/Src/stm32f4xx_ll_usb.c ****   {
 761              		.loc 1 459 3 is_stmt 1 view .LVU237
 461:Drivers/STM32F4xx_HAL_Driver/Src/stm32f4xx_ll_usb.c ****     {
 762              		.loc 1 461 5 view .LVU238
 465:Drivers/STM32F4xx_HAL_Driver/Src/stm32f4xx_ll_usb.c **** 
 763              		.loc 1 465 11 view .LVU239
 465:Drivers/STM32F4xx_HAL_Driver/Src/stm32f4xx_ll_usb.c **** 
 764              		.loc 1 465 17 is_stmt 0 view .LVU240
 765 007e 1869     		ldr	r0, [r3, #16]
 465:Drivers/STM32F4xx_HAL_Driver/Src/stm32f4xx_ll_usb.c **** 
 766              		.loc 1 465 3 view .LVU241
 767 0080 10F02000 		ands	r0, r0, #32
 768 0084 F8D1     		bne	.L57
 769              	.LVL63:
 770              	.L56:
 465:Drivers/STM32F4xx_HAL_Driver/Src/stm32f4xx_ll_usb.c **** 
 771              		.loc 1 465 3 view .LVU242
 772              	.LBE43:
 773              	.LBE42:
 358:Drivers/STM32F4xx_HAL_Driver/Src/stm32f4xx_ll_usb.c ****   {
 774              		.loc 1 358 3 is_stmt 1 view .LVU243
 775              	.LBB44:
 776              	.LBI44:
 475:Drivers/STM32F4xx_HAL_Driver/Src/stm32f4xx_ll_usb.c **** {
 777              		.loc 1 475 19 view .LVU244
 778              	.LBB45:
 477:Drivers/STM32F4xx_HAL_Driver/Src/stm32f4xx_ll_usb.c **** 
 779              		.loc 1 477 3 view .LVU245
 479:Drivers/STM32F4xx_HAL_Driver/Src/stm32f4xx_ll_usb.c **** 
 780              		.loc 1 479 3 view .LVU246
 479:Drivers/STM32F4xx_HAL_Driver/Src/stm32f4xx_ll_usb.c **** 
 781              		.loc 1 479 17 is_stmt 0 view .LVU247
 782 0086 1022     		movs	r2, #16
ARM GAS  /tmp/ccDzXOxq.s 			page 42


 783 0088 1A61     		str	r2, [r3, #16]
 481:Drivers/STM32F4xx_HAL_Driver/Src/stm32f4xx_ll_usb.c ****   {
 784              		.loc 1 481 3 is_stmt 1 view .LVU248
 483:Drivers/STM32F4xx_HAL_Driver/Src/stm32f4xx_ll_usb.c ****     {
 785              		.loc 1 483 5 view .LVU249
 786              	.LVL64:
 479:Drivers/STM32F4xx_HAL_Driver/Src/stm32f4xx_ll_usb.c **** 
 787              		.loc 1 479 17 is_stmt 0 view .LVU250
 788 008a 454A     		ldr	r2, .L90
 789 008c 02E0     		b	.L58
 790              	.LVL65:
 791              	.L60:
 483:Drivers/STM32F4xx_HAL_Driver/Src/stm32f4xx_ll_usb.c ****     {
 792              		.loc 1 483 8 view .LVU251
 793 008e 013A     		subs	r2, r2, #1
 794              	.LVL66:
 483:Drivers/STM32F4xx_HAL_Driver/Src/stm32f4xx_ll_usb.c ****     {
 795              		.loc 1 483 8 view .LVU252
 796 0090 00F08380 		beq	.L76
 797              	.LVL67:
 798              	.L58:
 481:Drivers/STM32F4xx_HAL_Driver/Src/stm32f4xx_ll_usb.c ****   {
 799              		.loc 1 481 3 is_stmt 1 view .LVU253
 483:Drivers/STM32F4xx_HAL_Driver/Src/stm32f4xx_ll_usb.c ****     {
 800              		.loc 1 483 5 view .LVU254
 487:Drivers/STM32F4xx_HAL_Driver/Src/stm32f4xx_ll_usb.c **** 
 801              		.loc 1 487 11 view .LVU255
 487:Drivers/STM32F4xx_HAL_Driver/Src/stm32f4xx_ll_usb.c **** 
 802              		.loc 1 487 17 is_stmt 0 view .LVU256
 803 0094 1969     		ldr	r1, [r3, #16]
 487:Drivers/STM32F4xx_HAL_Driver/Src/stm32f4xx_ll_usb.c **** 
 804              		.loc 1 487 3 view .LVU257
 805 0096 C906     		lsls	r1, r1, #27
 806 0098 F9D4     		bmi	.L60
 807              	.LVL68:
 808              	.L59:
 487:Drivers/STM32F4xx_HAL_Driver/Src/stm32f4xx_ll_usb.c **** 
 809              		.loc 1 487 3 view .LVU258
 810              	.LBE45:
 811              	.LBE44:
 364:Drivers/STM32F4xx_HAL_Driver/Src/stm32f4xx_ll_usb.c ****   USBx_DEVICE->DOEPMSK = 0U;
 812              		.loc 1 364 3 is_stmt 1 view .LVU259
 364:Drivers/STM32F4xx_HAL_Driver/Src/stm32f4xx_ll_usb.c ****   USBx_DEVICE->DOEPMSK = 0U;
 813              		.loc 1 364 24 is_stmt 0 view .LVU260
 814 009a 0021     		movs	r1, #0
 815 009c 3161     		str	r1, [r6, #16]
 365:Drivers/STM32F4xx_HAL_Driver/Src/stm32f4xx_ll_usb.c ****   USBx_DEVICE->DAINTMSK = 0U;
 816              		.loc 1 365 3 is_stmt 1 view .LVU261
 365:Drivers/STM32F4xx_HAL_Driver/Src/stm32f4xx_ll_usb.c ****   USBx_DEVICE->DAINTMSK = 0U;
 817              		.loc 1 365 24 is_stmt 0 view .LVU262
 818 009e 7161     		str	r1, [r6, #20]
 366:Drivers/STM32F4xx_HAL_Driver/Src/stm32f4xx_ll_usb.c **** 
 819              		.loc 1 366 3 is_stmt 1 view .LVU263
 366:Drivers/STM32F4xx_HAL_Driver/Src/stm32f4xx_ll_usb.c **** 
 820              		.loc 1 366 25 is_stmt 0 view .LVU264
 821 00a0 F161     		str	r1, [r6, #28]
 368:Drivers/STM32F4xx_HAL_Driver/Src/stm32f4xx_ll_usb.c ****   {
ARM GAS  /tmp/ccDzXOxq.s 			page 43


 822              		.loc 1 368 3 is_stmt 1 view .LVU265
 823              	.LVL69:
 368:Drivers/STM32F4xx_HAL_Driver/Src/stm32f4xx_ll_usb.c ****   {
 824              		.loc 1 368 16 view .LVU266
 368:Drivers/STM32F4xx_HAL_Driver/Src/stm32f4xx_ll_usb.c ****   {
 825              		.loc 1 368 3 is_stmt 0 view .LVU267
 826 00a2 F4B1     		cbz	r4, .L72
 383:Drivers/STM32F4xx_HAL_Driver/Src/stm32f4xx_ll_usb.c ****     }
 827              		.loc 1 383 29 view .LVU268
 828 00a4 8C46     		mov	ip, r1
 829 00a6 03F51062 		add	r2, r3, #2304
 378:Drivers/STM32F4xx_HAL_Driver/Src/stm32f4xx_ll_usb.c ****       }
 830              		.loc 1 378 31 view .LVU269
 831 00aa 4FF09048 		mov	r8, #1207959552
 374:Drivers/STM32F4xx_HAL_Driver/Src/stm32f4xx_ll_usb.c ****       }
 832              		.loc 1 374 31 view .LVU270
 833 00ae 4FF00069 		mov	r9, #134217728
 387:Drivers/STM32F4xx_HAL_Driver/Src/stm32f4xx_ll_usb.c ****   }
 834              		.loc 1 387 28 view .LVU271
 835 00b2 4FF67F3E 		movw	lr, #64383
 836 00b6 0AE0     		b	.L67
 837              	.LVL70:
 838              	.L64:
 383:Drivers/STM32F4xx_HAL_Driver/Src/stm32f4xx_ll_usb.c ****     }
 839              		.loc 1 383 29 view .LVU272
 840 00b8 C2F800C0 		str	ip, [r2]
 841              	.L66:
 386:Drivers/STM32F4xx_HAL_Driver/Src/stm32f4xx_ll_usb.c ****     USBx_INEP(i)->DIEPINT  = 0xFB7FU;
 842              		.loc 1 386 5 is_stmt 1 discriminator 2 view .LVU273
 368:Drivers/STM32F4xx_HAL_Driver/Src/stm32f4xx_ll_usb.c ****   {
 843              		.loc 1 368 40 is_stmt 0 discriminator 2 view .LVU274
 844 00bc 0131     		adds	r1, r1, #1
 845              	.LVL71:
 368:Drivers/STM32F4xx_HAL_Driver/Src/stm32f4xx_ll_usb.c ****   {
 846              		.loc 1 368 3 discriminator 2 view .LVU275
 847 00be A142     		cmp	r1, r4
 386:Drivers/STM32F4xx_HAL_Driver/Src/stm32f4xx_ll_usb.c ****     USBx_INEP(i)->DIEPINT  = 0xFB7FU;
 848              		.loc 1 386 28 discriminator 2 view .LVU276
 849 00c0 C2F810C0 		str	ip, [r2, #16]
 387:Drivers/STM32F4xx_HAL_Driver/Src/stm32f4xx_ll_usb.c ****   }
 850              		.loc 1 387 5 is_stmt 1 discriminator 2 view .LVU277
 387:Drivers/STM32F4xx_HAL_Driver/Src/stm32f4xx_ll_usb.c ****   }
 851              		.loc 1 387 28 is_stmt 0 discriminator 2 view .LVU278
 852 00c4 C2F808E0 		str	lr, [r2, #8]
 368:Drivers/STM32F4xx_HAL_Driver/Src/stm32f4xx_ll_usb.c ****   {
 853              		.loc 1 368 39 is_stmt 1 discriminator 2 view .LVU279
 854              	.LVL72:
 368:Drivers/STM32F4xx_HAL_Driver/Src/stm32f4xx_ll_usb.c ****   {
 855              		.loc 1 368 16 discriminator 2 view .LVU280
 856 00c8 02F12002 		add	r2, r2, #32
 368:Drivers/STM32F4xx_HAL_Driver/Src/stm32f4xx_ll_usb.c ****   {
 857              		.loc 1 368 3 is_stmt 0 discriminator 2 view .LVU281
 858 00cc 2ED0     		beq	.L87
 859              	.LVL73:
 860              	.L67:
 370:Drivers/STM32F4xx_HAL_Driver/Src/stm32f4xx_ll_usb.c ****     {
 861              		.loc 1 370 5 is_stmt 1 view .LVU282
ARM GAS  /tmp/ccDzXOxq.s 			page 44


 372:Drivers/STM32F4xx_HAL_Driver/Src/stm32f4xx_ll_usb.c ****       {
 862              		.loc 1 372 7 view .LVU283
 383:Drivers/STM32F4xx_HAL_Driver/Src/stm32f4xx_ll_usb.c ****     }
 863              		.loc 1 383 7 view .LVU284
 370:Drivers/STM32F4xx_HAL_Driver/Src/stm32f4xx_ll_usb.c ****     {
 864              		.loc 1 370 22 is_stmt 0 view .LVU285
 865 00ce 1768     		ldr	r7, [r2]
 370:Drivers/STM32F4xx_HAL_Driver/Src/stm32f4xx_ll_usb.c ****     {
 866              		.loc 1 370 8 view .LVU286
 867 00d0 002F     		cmp	r7, #0
 868 00d2 F1DA     		bge	.L64
 378:Drivers/STM32F4xx_HAL_Driver/Src/stm32f4xx_ll_usb.c ****       }
 869              		.loc 1 378 9 is_stmt 1 view .LVU287
 372:Drivers/STM32F4xx_HAL_Driver/Src/stm32f4xx_ll_usb.c ****       {
 870              		.loc 1 372 10 is_stmt 0 view .LVU288
 871 00d4 11B1     		cbz	r1, .L88
 378:Drivers/STM32F4xx_HAL_Driver/Src/stm32f4xx_ll_usb.c ****       }
 872              		.loc 1 378 31 view .LVU289
 873 00d6 C2F80080 		str	r8, [r2]
 874 00da EFE7     		b	.L66
 875              	.L88:
 374:Drivers/STM32F4xx_HAL_Driver/Src/stm32f4xx_ll_usb.c ****       }
 876              		.loc 1 374 9 is_stmt 1 view .LVU290
 374:Drivers/STM32F4xx_HAL_Driver/Src/stm32f4xx_ll_usb.c ****       }
 877              		.loc 1 374 31 is_stmt 0 view .LVU291
 878 00dc C2F80090 		str	r9, [r2]
 879 00e0 ECE7     		b	.L66
 880              	.LVL74:
 881              	.L72:
 412:Drivers/STM32F4xx_HAL_Driver/Src/stm32f4xx_ll_usb.c **** 
 882              		.loc 1 412 3 is_stmt 1 view .LVU292
 412:Drivers/STM32F4xx_HAL_Driver/Src/stm32f4xx_ll_usb.c **** 
 883              		.loc 1 412 24 is_stmt 0 view .LVU293
 884 00e2 3269     		ldr	r2, [r6, #16]
 421:Drivers/STM32F4xx_HAL_Driver/Src/stm32f4xx_ll_usb.c ****   {
 885              		.loc 1 421 6 view .LVU294
 886 00e4 0B99     		ldr	r1, [sp, #44]
 412:Drivers/STM32F4xx_HAL_Driver/Src/stm32f4xx_ll_usb.c **** 
 887              		.loc 1 412 24 view .LVU295
 888 00e6 22F48072 		bic	r2, r2, #256
 889 00ea 3261     		str	r2, [r6, #16]
 415:Drivers/STM32F4xx_HAL_Driver/Src/stm32f4xx_ll_usb.c **** 
 890              		.loc 1 415 3 is_stmt 1 view .LVU296
 415:Drivers/STM32F4xx_HAL_Driver/Src/stm32f4xx_ll_usb.c **** 
 891              		.loc 1 415 17 is_stmt 0 view .LVU297
 892 00ec 0024     		movs	r4, #0
 893              	.LVL75:
 418:Drivers/STM32F4xx_HAL_Driver/Src/stm32f4xx_ll_usb.c **** 
 894              		.loc 1 418 17 view .LVU298
 895 00ee 6FF08042 		mvn	r2, #1073741824
 415:Drivers/STM32F4xx_HAL_Driver/Src/stm32f4xx_ll_usb.c **** 
 896              		.loc 1 415 17 view .LVU299
 897 00f2 9C61     		str	r4, [r3, #24]
 418:Drivers/STM32F4xx_HAL_Driver/Src/stm32f4xx_ll_usb.c **** 
 898              		.loc 1 418 3 is_stmt 1 view .LVU300
 418:Drivers/STM32F4xx_HAL_Driver/Src/stm32f4xx_ll_usb.c **** 
 899              		.loc 1 418 17 is_stmt 0 view .LVU301
ARM GAS  /tmp/ccDzXOxq.s 			page 45


 900 00f4 5A61     		str	r2, [r3, #20]
 421:Drivers/STM32F4xx_HAL_Driver/Src/stm32f4xx_ll_usb.c ****   {
 901              		.loc 1 421 3 is_stmt 1 view .LVU302
 421:Drivers/STM32F4xx_HAL_Driver/Src/stm32f4xx_ll_usb.c ****   {
 902              		.loc 1 421 6 is_stmt 0 view .LVU303
 903 00f6 19B9     		cbnz	r1, .L63
 423:Drivers/STM32F4xx_HAL_Driver/Src/stm32f4xx_ll_usb.c ****   }
 904              		.loc 1 423 5 is_stmt 1 view .LVU304
 423:Drivers/STM32F4xx_HAL_Driver/Src/stm32f4xx_ll_usb.c ****   }
 905              		.loc 1 423 19 is_stmt 0 view .LVU305
 906 00f8 9A69     		ldr	r2, [r3, #24]
 907 00fa 42F01002 		orr	r2, r2, #16
 908 00fe 9A61     		str	r2, [r3, #24]
 909              	.L63:
 427:Drivers/STM32F4xx_HAL_Driver/Src/stm32f4xx_ll_usb.c ****                    USB_OTG_GINTMSK_ENUMDNEM | USB_OTG_GINTMSK_IEPINT |
 910              		.loc 1 427 3 is_stmt 1 view .LVU306
 427:Drivers/STM32F4xx_HAL_Driver/Src/stm32f4xx_ll_usb.c ****                    USB_OTG_GINTMSK_ENUMDNEM | USB_OTG_GINTMSK_IEPINT |
 911              		.loc 1 427 17 is_stmt 0 view .LVU307
 912 0100 9C69     		ldr	r4, [r3, #24]
 913 0102 284A     		ldr	r2, .L90+4
 432:Drivers/STM32F4xx_HAL_Driver/Src/stm32f4xx_ll_usb.c ****   {
 914              		.loc 1 432 6 view .LVU308
 915 0104 0E99     		ldr	r1, [sp, #56]
 427:Drivers/STM32F4xx_HAL_Driver/Src/stm32f4xx_ll_usb.c ****                    USB_OTG_GINTMSK_ENUMDNEM | USB_OTG_GINTMSK_IEPINT |
 916              		.loc 1 427 17 view .LVU309
 917 0106 2243     		orrs	r2, r2, r4
 918 0108 9A61     		str	r2, [r3, #24]
 432:Drivers/STM32F4xx_HAL_Driver/Src/stm32f4xx_ll_usb.c ****   {
 919              		.loc 1 432 3 is_stmt 1 view .LVU310
 432:Drivers/STM32F4xx_HAL_Driver/Src/stm32f4xx_ll_usb.c ****   {
 920              		.loc 1 432 6 is_stmt 0 view .LVU311
 921 010a 19B1     		cbz	r1, .L73
 434:Drivers/STM32F4xx_HAL_Driver/Src/stm32f4xx_ll_usb.c ****   }
 922              		.loc 1 434 5 is_stmt 1 view .LVU312
 434:Drivers/STM32F4xx_HAL_Driver/Src/stm32f4xx_ll_usb.c ****   }
 923              		.loc 1 434 19 is_stmt 0 view .LVU313
 924 010c 9A69     		ldr	r2, [r3, #24]
 925 010e 42F00802 		orr	r2, r2, #8
 926 0112 9A61     		str	r2, [r3, #24]
 927              	.L73:
 437:Drivers/STM32F4xx_HAL_Driver/Src/stm32f4xx_ll_usb.c ****   {
 928              		.loc 1 437 3 is_stmt 1 view .LVU314
 437:Drivers/STM32F4xx_HAL_Driver/Src/stm32f4xx_ll_usb.c ****   {
 929              		.loc 1 437 6 is_stmt 0 view .LVU315
 930 0114 012D     		cmp	r5, #1
 931 0116 05D1     		bne	.L74
 439:Drivers/STM32F4xx_HAL_Driver/Src/stm32f4xx_ll_usb.c ****   }
 932              		.loc 1 439 5 is_stmt 1 view .LVU316
 439:Drivers/STM32F4xx_HAL_Driver/Src/stm32f4xx_ll_usb.c ****   }
 933              		.loc 1 439 19 is_stmt 0 view .LVU317
 934 0118 9A69     		ldr	r2, [r3, #24]
 935 011a 42F08042 		orr	r2, r2, #1073741824
 936 011e 42F00402 		orr	r2, r2, #4
 937 0122 9A61     		str	r2, [r3, #24]
 938              	.L74:
 442:Drivers/STM32F4xx_HAL_Driver/Src/stm32f4xx_ll_usb.c **** }
 939              		.loc 1 442 3 is_stmt 1 view .LVU318
ARM GAS  /tmp/ccDzXOxq.s 			page 46


 443:Drivers/STM32F4xx_HAL_Driver/Src/stm32f4xx_ll_usb.c **** 
 940              		.loc 1 443 1 is_stmt 0 view .LVU319
 941 0124 BDE8F043 		pop	{r4, r5, r6, r7, r8, r9, lr}
 942              	.LCFI8:
 943              		.cfi_remember_state
 944              		.cfi_restore 14
 945              		.cfi_restore 9
 946              		.cfi_restore 8
 947              		.cfi_restore 7
 948              		.cfi_restore 6
 949              		.cfi_restore 5
 950              		.cfi_restore 4
 951              		.cfi_def_cfa_offset 16
 952 0128 04B0     		add	sp, sp, #16
 953              	.LCFI9:
 954              		.cfi_def_cfa_offset 0
 955 012a 7047     		bx	lr
 956              	.LVL76:
 957              	.L87:
 958              	.LCFI10:
 959              		.cfi_restore_state
 368:Drivers/STM32F4xx_HAL_Driver/Src/stm32f4xx_ll_usb.c ****   {
 960              		.loc 1 368 3 view .LVU320
 961 012c 0021     		movs	r1, #0
 962              	.LVL77:
 405:Drivers/STM32F4xx_HAL_Driver/Src/stm32f4xx_ll_usb.c ****     }
 963              		.loc 1 405 30 view .LVU321
 964 012e 8C46     		mov	ip, r1
 965 0130 03F53062 		add	r2, r3, #2816
 400:Drivers/STM32F4xx_HAL_Driver/Src/stm32f4xx_ll_usb.c ****       }
 966              		.loc 1 400 32 view .LVU322
 967 0134 4FF09048 		mov	r8, #1207959552
 396:Drivers/STM32F4xx_HAL_Driver/Src/stm32f4xx_ll_usb.c ****       }
 968              		.loc 1 396 32 view .LVU323
 969 0138 4FF00069 		mov	r9, #134217728
 409:Drivers/STM32F4xx_HAL_Driver/Src/stm32f4xx_ll_usb.c ****   }
 970              		.loc 1 409 29 view .LVU324
 971 013c 4FF67F3E 		movw	lr, #64383
 972 0140 0AE0     		b	.L71
 973              	.LVL78:
 974              	.L68:
 405:Drivers/STM32F4xx_HAL_Driver/Src/stm32f4xx_ll_usb.c ****     }
 975              		.loc 1 405 30 view .LVU325
 976 0142 C2F800C0 		str	ip, [r2]
 977              	.L70:
 408:Drivers/STM32F4xx_HAL_Driver/Src/stm32f4xx_ll_usb.c ****     USBx_OUTEP(i)->DOEPINT  = 0xFB7FU;
 978              		.loc 1 408 5 is_stmt 1 discriminator 2 view .LVU326
 390:Drivers/STM32F4xx_HAL_Driver/Src/stm32f4xx_ll_usb.c ****   {
 979              		.loc 1 390 40 is_stmt 0 discriminator 2 view .LVU327
 980 0146 0131     		adds	r1, r1, #1
 981              	.LVL79:
 390:Drivers/STM32F4xx_HAL_Driver/Src/stm32f4xx_ll_usb.c ****   {
 982              		.loc 1 390 3 discriminator 2 view .LVU328
 983 0148 A142     		cmp	r1, r4
 408:Drivers/STM32F4xx_HAL_Driver/Src/stm32f4xx_ll_usb.c ****     USBx_OUTEP(i)->DOEPINT  = 0xFB7FU;
 984              		.loc 1 408 29 discriminator 2 view .LVU329
 985 014a C2F810C0 		str	ip, [r2, #16]
ARM GAS  /tmp/ccDzXOxq.s 			page 47


 409:Drivers/STM32F4xx_HAL_Driver/Src/stm32f4xx_ll_usb.c ****   }
 986              		.loc 1 409 5 is_stmt 1 discriminator 2 view .LVU330
 409:Drivers/STM32F4xx_HAL_Driver/Src/stm32f4xx_ll_usb.c ****   }
 987              		.loc 1 409 29 is_stmt 0 discriminator 2 view .LVU331
 988 014e C2F808E0 		str	lr, [r2, #8]
 390:Drivers/STM32F4xx_HAL_Driver/Src/stm32f4xx_ll_usb.c ****   {
 989              		.loc 1 390 39 is_stmt 1 discriminator 2 view .LVU332
 990              	.LVL80:
 390:Drivers/STM32F4xx_HAL_Driver/Src/stm32f4xx_ll_usb.c ****   {
 991              		.loc 1 390 16 discriminator 2 view .LVU333
 992 0152 02F12002 		add	r2, r2, #32
 390:Drivers/STM32F4xx_HAL_Driver/Src/stm32f4xx_ll_usb.c ****   {
 993              		.loc 1 390 3 is_stmt 0 discriminator 2 view .LVU334
 994 0156 C4D0     		beq	.L72
 995              	.LVL81:
 996              	.L71:
 392:Drivers/STM32F4xx_HAL_Driver/Src/stm32f4xx_ll_usb.c ****     {
 997              		.loc 1 392 5 is_stmt 1 view .LVU335
 394:Drivers/STM32F4xx_HAL_Driver/Src/stm32f4xx_ll_usb.c ****       {
 998              		.loc 1 394 7 view .LVU336
 405:Drivers/STM32F4xx_HAL_Driver/Src/stm32f4xx_ll_usb.c ****     }
 999              		.loc 1 405 7 view .LVU337
 392:Drivers/STM32F4xx_HAL_Driver/Src/stm32f4xx_ll_usb.c ****     {
 1000              		.loc 1 392 23 is_stmt 0 view .LVU338
 1001 0158 1768     		ldr	r7, [r2]
 392:Drivers/STM32F4xx_HAL_Driver/Src/stm32f4xx_ll_usb.c ****     {
 1002              		.loc 1 392 8 view .LVU339
 1003 015a 002F     		cmp	r7, #0
 1004 015c F1DA     		bge	.L68
 400:Drivers/STM32F4xx_HAL_Driver/Src/stm32f4xx_ll_usb.c ****       }
 1005              		.loc 1 400 9 is_stmt 1 view .LVU340
 394:Drivers/STM32F4xx_HAL_Driver/Src/stm32f4xx_ll_usb.c ****       {
 1006              		.loc 1 394 10 is_stmt 0 view .LVU341
 1007 015e 11B1     		cbz	r1, .L89
 400:Drivers/STM32F4xx_HAL_Driver/Src/stm32f4xx_ll_usb.c ****       }
 1008              		.loc 1 400 32 view .LVU342
 1009 0160 C2F80080 		str	r8, [r2]
 1010 0164 EFE7     		b	.L70
 1011              	.L89:
 396:Drivers/STM32F4xx_HAL_Driver/Src/stm32f4xx_ll_usb.c ****       }
 1012              		.loc 1 396 9 is_stmt 1 view .LVU343
 396:Drivers/STM32F4xx_HAL_Driver/Src/stm32f4xx_ll_usb.c ****       }
 1013              		.loc 1 396 32 is_stmt 0 view .LVU344
 1014 0166 C2F80090 		str	r9, [r2]
 1015 016a ECE7     		b	.L70
 1016              	.LVL82:
 1017              	.L50:
 322:Drivers/STM32F4xx_HAL_Driver/Src/stm32f4xx_ll_usb.c ****     USBx->GCCFG |= USB_OTG_GCCFG_VBUSBSEN;
 1018              		.loc 1 322 5 is_stmt 1 view .LVU345
 322:Drivers/STM32F4xx_HAL_Driver/Src/stm32f4xx_ll_usb.c ****     USBx->GCCFG |= USB_OTG_GCCFG_VBUSBSEN;
 1019              		.loc 1 322 17 is_stmt 0 view .LVU346
 1020 016c 9A6B     		ldr	r2, [r3, #56]
 1021              	.LVL83:
 322:Drivers/STM32F4xx_HAL_Driver/Src/stm32f4xx_ll_usb.c ****     USBx->GCCFG |= USB_OTG_GCCFG_VBUSBSEN;
 1022              		.loc 1 322 17 view .LVU347
 1023 016e 22F40012 		bic	r2, r2, #2097152
 1024 0172 9A63     		str	r2, [r3, #56]
ARM GAS  /tmp/ccDzXOxq.s 			page 48


 323:Drivers/STM32F4xx_HAL_Driver/Src/stm32f4xx_ll_usb.c ****   }
 1025              		.loc 1 323 5 is_stmt 1 view .LVU348
 323:Drivers/STM32F4xx_HAL_Driver/Src/stm32f4xx_ll_usb.c ****   }
 1026              		.loc 1 323 17 is_stmt 0 view .LVU349
 1027 0174 9A6B     		ldr	r2, [r3, #56]
 1028 0176 42F40022 		orr	r2, r2, #524288
 1029 017a 9A63     		str	r2, [r3, #56]
 1030 017c 03F50066 		add	r6, r3, #2048
 1031 0180 68E7     		b	.L51
 1032              	.L86:
 335:Drivers/STM32F4xx_HAL_Driver/Src/stm32f4xx_ll_usb.c ****     {
 1033              		.loc 1 335 5 is_stmt 1 view .LVU350
 335:Drivers/STM32F4xx_HAL_Driver/Src/stm32f4xx_ll_usb.c ****     {
 1034              		.loc 1 335 8 is_stmt 0 view .LVU351
 1035 0182 0A9A     		ldr	r2, [sp, #40]
 1036 0184 12B9     		cbnz	r2, .L53
 338:Drivers/STM32F4xx_HAL_Driver/Src/stm32f4xx_ll_usb.c ****     }
 1037              		.loc 1 338 7 is_stmt 1 view .LVU352
 1038              	.LVL84:
 1039              	.LBB46:
 1040              	.LBI46:
 503:Drivers/STM32F4xx_HAL_Driver/Src/stm32f4xx_ll_usb.c **** {
 1041              		.loc 1 503 19 view .LVU353
 1042              	.LBB47:
 505:Drivers/STM32F4xx_HAL_Driver/Src/stm32f4xx_ll_usb.c **** 
 1043              		.loc 1 505 3 view .LVU354
 507:Drivers/STM32F4xx_HAL_Driver/Src/stm32f4xx_ll_usb.c ****   return HAL_OK;
 1044              		.loc 1 507 3 view .LVU355
 507:Drivers/STM32F4xx_HAL_Driver/Src/stm32f4xx_ll_usb.c ****   return HAL_OK;
 1045              		.loc 1 507 21 is_stmt 0 view .LVU356
 1046 0186 3268     		ldr	r2, [r6]
 1047 0188 3260     		str	r2, [r6]
 508:Drivers/STM32F4xx_HAL_Driver/Src/stm32f4xx_ll_usb.c **** }
 1048              		.loc 1 508 3 is_stmt 1 view .LVU357
 508:Drivers/STM32F4xx_HAL_Driver/Src/stm32f4xx_ll_usb.c **** }
 1049              		.loc 1 508 10 is_stmt 0 view .LVU358
 1050 018a 70E7     		b	.L54
 1051              	.LVL85:
 1052              	.L53:
 508:Drivers/STM32F4xx_HAL_Driver/Src/stm32f4xx_ll_usb.c **** }
 1053              		.loc 1 508 10 view .LVU359
 1054              	.LBE47:
 1055              	.LBE46:
 343:Drivers/STM32F4xx_HAL_Driver/Src/stm32f4xx_ll_usb.c ****     }
 1056              		.loc 1 343 7 is_stmt 1 view .LVU360
 1057              	.LBB48:
 1058              	.LBI48:
 503:Drivers/STM32F4xx_HAL_Driver/Src/stm32f4xx_ll_usb.c **** {
 1059              		.loc 1 503 19 view .LVU361
 1060              	.LBB49:
 505:Drivers/STM32F4xx_HAL_Driver/Src/stm32f4xx_ll_usb.c **** 
 1061              		.loc 1 505 3 view .LVU362
 507:Drivers/STM32F4xx_HAL_Driver/Src/stm32f4xx_ll_usb.c ****   return HAL_OK;
 1062              		.loc 1 507 3 view .LVU363
 507:Drivers/STM32F4xx_HAL_Driver/Src/stm32f4xx_ll_usb.c ****   return HAL_OK;
 1063              		.loc 1 507 21 is_stmt 0 view .LVU364
 1064 018c 3268     		ldr	r2, [r6]
ARM GAS  /tmp/ccDzXOxq.s 			page 49


 1065 018e 42F00102 		orr	r2, r2, #1
 1066 0192 3260     		str	r2, [r6]
 508:Drivers/STM32F4xx_HAL_Driver/Src/stm32f4xx_ll_usb.c **** }
 1067              		.loc 1 508 3 is_stmt 1 view .LVU365
 508:Drivers/STM32F4xx_HAL_Driver/Src/stm32f4xx_ll_usb.c **** }
 1068              		.loc 1 508 10 is_stmt 0 view .LVU366
 1069 0194 6BE7     		b	.L54
 1070              	.LVL86:
 1071              	.L75:
 508:Drivers/STM32F4xx_HAL_Driver/Src/stm32f4xx_ll_usb.c **** }
 1072              		.loc 1 508 10 view .LVU367
 1073              	.LBE49:
 1074              	.LBE48:
 355:Drivers/STM32F4xx_HAL_Driver/Src/stm32f4xx_ll_usb.c ****   }
 1075              		.loc 1 355 9 view .LVU368
 1076 0196 0120     		movs	r0, #1
 1077 0198 75E7     		b	.L56
 1078              	.LVL87:
 1079              	.L76:
 360:Drivers/STM32F4xx_HAL_Driver/Src/stm32f4xx_ll_usb.c ****   }
 1080              		.loc 1 360 9 view .LVU369
 1081 019a 0120     		movs	r0, #1
 1082              	.LVL88:
 360:Drivers/STM32F4xx_HAL_Driver/Src/stm32f4xx_ll_usb.c ****   }
 1083              		.loc 1 360 9 view .LVU370
 1084 019c 7DE7     		b	.L59
 1085              	.L91:
 1086 019e 00BF     		.align	2
 1087              	.L90:
 1088 01a0 400D0300 		.word	200000
 1089 01a4 00383C80 		.word	-2143537152
 1090              		.cfi_endproc
 1091              	.LFE135:
 1093              		.section	.text.USB_FlushTxFifo,"ax",%progbits
 1094              		.align	1
 1095              		.p2align 2,,3
 1096              		.global	USB_FlushTxFifo
 1097              		.syntax unified
 1098              		.thumb
 1099              		.thumb_func
 1100              		.fpu fpv4-sp-d16
 1102              	USB_FlushTxFifo:
 1103              	.LVL89:
 1104              	.LFB136:
 454:Drivers/STM32F4xx_HAL_Driver/Src/stm32f4xx_ll_usb.c ****   uint32_t count = 0U;
 1105              		.loc 1 454 1 is_stmt 1 view -0
 1106              		.cfi_startproc
 1107              		@ args = 0, pretend = 0, frame = 0
 1108              		@ frame_needed = 0, uses_anonymous_args = 0
 1109              		@ link register save eliminated.
 455:Drivers/STM32F4xx_HAL_Driver/Src/stm32f4xx_ll_usb.c **** 
 1110              		.loc 1 455 3 view .LVU372
 457:Drivers/STM32F4xx_HAL_Driver/Src/stm32f4xx_ll_usb.c **** 
 1111              		.loc 1 457 3 view .LVU373
 457:Drivers/STM32F4xx_HAL_Driver/Src/stm32f4xx_ll_usb.c **** 
 1112              		.loc 1 457 51 is_stmt 0 view .LVU374
 1113 0000 8901     		lsls	r1, r1, #6
ARM GAS  /tmp/ccDzXOxq.s 			page 50


 1114              	.LVL90:
 457:Drivers/STM32F4xx_HAL_Driver/Src/stm32f4xx_ll_usb.c **** 
 1115              		.loc 1 457 44 view .LVU375
 1116 0002 41F02001 		orr	r1, r1, #32
 457:Drivers/STM32F4xx_HAL_Driver/Src/stm32f4xx_ll_usb.c **** 
 1117              		.loc 1 457 17 view .LVU376
 1118 0006 064A     		ldr	r2, .L98
 1119 0008 0161     		str	r1, [r0, #16]
 459:Drivers/STM32F4xx_HAL_Driver/Src/stm32f4xx_ll_usb.c ****   {
 1120              		.loc 1 459 3 is_stmt 1 view .LVU377
 461:Drivers/STM32F4xx_HAL_Driver/Src/stm32f4xx_ll_usb.c ****     {
 1121              		.loc 1 461 5 view .LVU378
 1122              	.LVL91:
 461:Drivers/STM32F4xx_HAL_Driver/Src/stm32f4xx_ll_usb.c ****     {
 1123              		.loc 1 461 5 is_stmt 0 view .LVU379
 1124 000a 01E0     		b	.L93
 1125              	.LVL92:
 1126              	.L95:
 461:Drivers/STM32F4xx_HAL_Driver/Src/stm32f4xx_ll_usb.c ****     {
 1127              		.loc 1 461 8 view .LVU380
 1128 000c 013A     		subs	r2, r2, #1
 1129              	.LVL93:
 461:Drivers/STM32F4xx_HAL_Driver/Src/stm32f4xx_ll_usb.c ****     {
 1130              		.loc 1 461 8 view .LVU381
 1131 000e 05D0     		beq	.L96
 1132              	.LVL94:
 1133              	.L93:
 459:Drivers/STM32F4xx_HAL_Driver/Src/stm32f4xx_ll_usb.c ****   {
 1134              		.loc 1 459 3 is_stmt 1 view .LVU382
 461:Drivers/STM32F4xx_HAL_Driver/Src/stm32f4xx_ll_usb.c ****     {
 1135              		.loc 1 461 5 view .LVU383
 465:Drivers/STM32F4xx_HAL_Driver/Src/stm32f4xx_ll_usb.c **** 
 1136              		.loc 1 465 11 view .LVU384
 465:Drivers/STM32F4xx_HAL_Driver/Src/stm32f4xx_ll_usb.c **** 
 1137              		.loc 1 465 17 is_stmt 0 view .LVU385
 1138 0010 0369     		ldr	r3, [r0, #16]
 465:Drivers/STM32F4xx_HAL_Driver/Src/stm32f4xx_ll_usb.c **** 
 1139              		.loc 1 465 3 view .LVU386
 1140 0012 13F02003 		ands	r3, r3, #32
 1141 0016 F9D1     		bne	.L95
 467:Drivers/STM32F4xx_HAL_Driver/Src/stm32f4xx_ll_usb.c **** }
 1142              		.loc 1 467 10 view .LVU387
 1143 0018 1846     		mov	r0, r3
 1144              	.LVL95:
 467:Drivers/STM32F4xx_HAL_Driver/Src/stm32f4xx_ll_usb.c **** }
 1145              		.loc 1 467 10 view .LVU388
 1146 001a 7047     		bx	lr
 1147              	.LVL96:
 1148              	.L96:
 463:Drivers/STM32F4xx_HAL_Driver/Src/stm32f4xx_ll_usb.c ****     }
 1149              		.loc 1 463 14 view .LVU389
 1150 001c 0320     		movs	r0, #3
 1151              	.LVL97:
 468:Drivers/STM32F4xx_HAL_Driver/Src/stm32f4xx_ll_usb.c **** 
 1152              		.loc 1 468 1 view .LVU390
 1153 001e 7047     		bx	lr
 1154              	.L99:
ARM GAS  /tmp/ccDzXOxq.s 			page 51


 1155              		.align	2
 1156              	.L98:
 1157 0020 400D0300 		.word	200000
 1158              		.cfi_endproc
 1159              	.LFE136:
 1161              		.section	.text.USB_FlushRxFifo,"ax",%progbits
 1162              		.align	1
 1163              		.p2align 2,,3
 1164              		.global	USB_FlushRxFifo
 1165              		.syntax unified
 1166              		.thumb
 1167              		.thumb_func
 1168              		.fpu fpv4-sp-d16
 1170              	USB_FlushRxFifo:
 1171              	.LVL98:
 1172              	.LFB137:
 476:Drivers/STM32F4xx_HAL_Driver/Src/stm32f4xx_ll_usb.c ****   uint32_t count = 0;
 1173              		.loc 1 476 1 is_stmt 1 view -0
 1174              		.cfi_startproc
 1175              		@ args = 0, pretend = 0, frame = 0
 1176              		@ frame_needed = 0, uses_anonymous_args = 0
 1177              		@ link register save eliminated.
 477:Drivers/STM32F4xx_HAL_Driver/Src/stm32f4xx_ll_usb.c **** 
 1178              		.loc 1 477 3 view .LVU392
 479:Drivers/STM32F4xx_HAL_Driver/Src/stm32f4xx_ll_usb.c **** 
 1179              		.loc 1 479 3 view .LVU393
 479:Drivers/STM32F4xx_HAL_Driver/Src/stm32f4xx_ll_usb.c **** 
 1180              		.loc 1 479 17 is_stmt 0 view .LVU394
 1181 0000 1023     		movs	r3, #16
 1182 0002 064A     		ldr	r2, .L106
 1183 0004 0361     		str	r3, [r0, #16]
 481:Drivers/STM32F4xx_HAL_Driver/Src/stm32f4xx_ll_usb.c ****   {
 1184              		.loc 1 481 3 is_stmt 1 view .LVU395
 483:Drivers/STM32F4xx_HAL_Driver/Src/stm32f4xx_ll_usb.c ****     {
 1185              		.loc 1 483 5 view .LVU396
 1186              	.LVL99:
 483:Drivers/STM32F4xx_HAL_Driver/Src/stm32f4xx_ll_usb.c ****     {
 1187              		.loc 1 483 5 is_stmt 0 view .LVU397
 1188 0006 01E0     		b	.L101
 1189              	.LVL100:
 1190              	.L103:
 483:Drivers/STM32F4xx_HAL_Driver/Src/stm32f4xx_ll_usb.c ****     {
 1191              		.loc 1 483 8 view .LVU398
 1192 0008 013A     		subs	r2, r2, #1
 1193              	.LVL101:
 483:Drivers/STM32F4xx_HAL_Driver/Src/stm32f4xx_ll_usb.c ****     {
 1194              		.loc 1 483 8 view .LVU399
 1195 000a 05D0     		beq	.L104
 1196              	.LVL102:
 1197              	.L101:
 481:Drivers/STM32F4xx_HAL_Driver/Src/stm32f4xx_ll_usb.c ****   {
 1198              		.loc 1 481 3 is_stmt 1 view .LVU400
 483:Drivers/STM32F4xx_HAL_Driver/Src/stm32f4xx_ll_usb.c ****     {
 1199              		.loc 1 483 5 view .LVU401
 487:Drivers/STM32F4xx_HAL_Driver/Src/stm32f4xx_ll_usb.c **** 
 1200              		.loc 1 487 11 view .LVU402
 487:Drivers/STM32F4xx_HAL_Driver/Src/stm32f4xx_ll_usb.c **** 
ARM GAS  /tmp/ccDzXOxq.s 			page 52


 1201              		.loc 1 487 17 is_stmt 0 view .LVU403
 1202 000c 0369     		ldr	r3, [r0, #16]
 487:Drivers/STM32F4xx_HAL_Driver/Src/stm32f4xx_ll_usb.c **** 
 1203              		.loc 1 487 3 view .LVU404
 1204 000e 13F01003 		ands	r3, r3, #16
 1205 0012 F9D1     		bne	.L103
 489:Drivers/STM32F4xx_HAL_Driver/Src/stm32f4xx_ll_usb.c **** }
 1206              		.loc 1 489 10 view .LVU405
 1207 0014 1846     		mov	r0, r3
 1208              	.LVL103:
 489:Drivers/STM32F4xx_HAL_Driver/Src/stm32f4xx_ll_usb.c **** }
 1209              		.loc 1 489 10 view .LVU406
 1210 0016 7047     		bx	lr
 1211              	.LVL104:
 1212              	.L104:
 485:Drivers/STM32F4xx_HAL_Driver/Src/stm32f4xx_ll_usb.c ****     }
 1213              		.loc 1 485 14 view .LVU407
 1214 0018 0320     		movs	r0, #3
 1215              	.LVL105:
 490:Drivers/STM32F4xx_HAL_Driver/Src/stm32f4xx_ll_usb.c **** 
 1216              		.loc 1 490 1 view .LVU408
 1217 001a 7047     		bx	lr
 1218              	.L107:
 1219              		.align	2
 1220              	.L106:
 1221 001c 400D0300 		.word	200000
 1222              		.cfi_endproc
 1223              	.LFE137:
 1225              		.section	.text.USB_SetDevSpeed,"ax",%progbits
 1226              		.align	1
 1227              		.p2align 2,,3
 1228              		.global	USB_SetDevSpeed
 1229              		.syntax unified
 1230              		.thumb
 1231              		.thumb_func
 1232              		.fpu fpv4-sp-d16
 1234              	USB_SetDevSpeed:
 1235              	.LVL106:
 1236              	.LFB138:
 504:Drivers/STM32F4xx_HAL_Driver/Src/stm32f4xx_ll_usb.c ****   uint32_t USBx_BASE = (uint32_t)USBx;
 1237              		.loc 1 504 1 is_stmt 1 view -0
 1238              		.cfi_startproc
 1239              		@ args = 0, pretend = 0, frame = 0
 1240              		@ frame_needed = 0, uses_anonymous_args = 0
 1241              		@ link register save eliminated.
 505:Drivers/STM32F4xx_HAL_Driver/Src/stm32f4xx_ll_usb.c **** 
 1242              		.loc 1 505 3 view .LVU410
 507:Drivers/STM32F4xx_HAL_Driver/Src/stm32f4xx_ll_usb.c ****   return HAL_OK;
 1243              		.loc 1 507 3 view .LVU411
 507:Drivers/STM32F4xx_HAL_Driver/Src/stm32f4xx_ll_usb.c ****   return HAL_OK;
 1244              		.loc 1 507 21 is_stmt 0 view .LVU412
 1245 0000 D0F80038 		ldr	r3, [r0, #2048]
 1246 0004 1943     		orrs	r1, r1, r3
 1247              	.LVL107:
 507:Drivers/STM32F4xx_HAL_Driver/Src/stm32f4xx_ll_usb.c ****   return HAL_OK;
 1248              		.loc 1 507 21 view .LVU413
 1249 0006 C0F80018 		str	r1, [r0, #2048]
ARM GAS  /tmp/ccDzXOxq.s 			page 53


 508:Drivers/STM32F4xx_HAL_Driver/Src/stm32f4xx_ll_usb.c **** }
 1250              		.loc 1 508 3 is_stmt 1 view .LVU414
 509:Drivers/STM32F4xx_HAL_Driver/Src/stm32f4xx_ll_usb.c **** 
 1251              		.loc 1 509 1 is_stmt 0 view .LVU415
 1252 000a 0020     		movs	r0, #0
 1253              	.LVL108:
 509:Drivers/STM32F4xx_HAL_Driver/Src/stm32f4xx_ll_usb.c **** 
 1254              		.loc 1 509 1 view .LVU416
 1255 000c 7047     		bx	lr
 1256              		.cfi_endproc
 1257              	.LFE138:
 1259 000e 00BF     		.section	.text.USB_GetDevSpeed,"ax",%progbits
 1260              		.align	1
 1261              		.p2align 2,,3
 1262              		.global	USB_GetDevSpeed
 1263              		.syntax unified
 1264              		.thumb
 1265              		.thumb_func
 1266              		.fpu fpv4-sp-d16
 1268              	USB_GetDevSpeed:
 1269              	.LVL109:
 1270              	.LFB139:
 520:Drivers/STM32F4xx_HAL_Driver/Src/stm32f4xx_ll_usb.c ****   uint32_t USBx_BASE = (uint32_t)USBx;
 1271              		.loc 1 520 1 is_stmt 1 view -0
 1272              		.cfi_startproc
 1273              		@ args = 0, pretend = 0, frame = 0
 1274              		@ frame_needed = 0, uses_anonymous_args = 0
 1275              		@ link register save eliminated.
 521:Drivers/STM32F4xx_HAL_Driver/Src/stm32f4xx_ll_usb.c ****   uint8_t speed;
 1276              		.loc 1 521 3 view .LVU418
 522:Drivers/STM32F4xx_HAL_Driver/Src/stm32f4xx_ll_usb.c ****   uint32_t DevEnumSpeed = USBx_DEVICE->DSTS & USB_OTG_DSTS_ENUMSPD;
 1277              		.loc 1 522 3 view .LVU419
 523:Drivers/STM32F4xx_HAL_Driver/Src/stm32f4xx_ll_usb.c **** 
 1278              		.loc 1 523 3 view .LVU420
 523:Drivers/STM32F4xx_HAL_Driver/Src/stm32f4xx_ll_usb.c **** 
 1279              		.loc 1 523 38 is_stmt 0 view .LVU421
 1280 0000 D0F80838 		ldr	r3, [r0, #2056]
 1281              	.LVL110:
 525:Drivers/STM32F4xx_HAL_Driver/Src/stm32f4xx_ll_usb.c ****   {
 1282              		.loc 1 525 3 is_stmt 1 view .LVU422
 525:Drivers/STM32F4xx_HAL_Driver/Src/stm32f4xx_ll_usb.c ****   {
 1283              		.loc 1 525 6 is_stmt 0 view .LVU423
 1284 0004 13F00600 		ands	r0, r3, #6
 1285              	.LVL111:
 525:Drivers/STM32F4xx_HAL_Driver/Src/stm32f4xx_ll_usb.c ****   {
 1286              		.loc 1 525 6 view .LVU424
 1287 0008 04D0     		beq	.L110
 529:Drivers/STM32F4xx_HAL_Driver/Src/stm32f4xx_ll_usb.c ****            (DevEnumSpeed == DSTS_ENUMSPD_FS_PHY_48MHZ))
 1288              		.loc 1 529 8 is_stmt 1 view .LVU425
 529:Drivers/STM32F4xx_HAL_Driver/Src/stm32f4xx_ll_usb.c ****            (DevEnumSpeed == DSTS_ENUMSPD_FS_PHY_48MHZ))
 1289              		.loc 1 529 11 is_stmt 0 view .LVU426
 1290 000a 13F0020F 		tst	r3, #2
 536:Drivers/STM32F4xx_HAL_Driver/Src/stm32f4xx_ll_usb.c ****   }
 1291              		.loc 1 536 11 view .LVU427
 1292 000e 14BF     		ite	ne
 1293 0010 0220     		movne	r0, #2
 1294              	.LVL112:
ARM GAS  /tmp/ccDzXOxq.s 			page 54


 536:Drivers/STM32F4xx_HAL_Driver/Src/stm32f4xx_ll_usb.c ****   }
 1295              		.loc 1 536 11 view .LVU428
 1296 0012 0F20     		moveq	r0, #15
 1297              	.L110:
 1298              	.LVL113:
 539:Drivers/STM32F4xx_HAL_Driver/Src/stm32f4xx_ll_usb.c **** }
 1299              		.loc 1 539 3 is_stmt 1 view .LVU429
 540:Drivers/STM32F4xx_HAL_Driver/Src/stm32f4xx_ll_usb.c **** 
 1300              		.loc 1 540 1 is_stmt 0 view .LVU430
 1301 0014 7047     		bx	lr
 1302              		.cfi_endproc
 1303              	.LFE139:
 1305 0016 00BF     		.section	.text.USB_ActivateEndpoint,"ax",%progbits
 1306              		.align	1
 1307              		.p2align 2,,3
 1308              		.global	USB_ActivateEndpoint
 1309              		.syntax unified
 1310              		.thumb
 1311              		.thumb_func
 1312              		.fpu fpv4-sp-d16
 1314              	USB_ActivateEndpoint:
 1315              	.LVL114:
 1316              	.LFB140:
 549:Drivers/STM32F4xx_HAL_Driver/Src/stm32f4xx_ll_usb.c ****   uint32_t USBx_BASE = (uint32_t)USBx;
 1317              		.loc 1 549 1 is_stmt 1 view -0
 1318              		.cfi_startproc
 1319              		@ args = 0, pretend = 0, frame = 0
 1320              		@ frame_needed = 0, uses_anonymous_args = 0
 1321              		@ link register save eliminated.
 550:Drivers/STM32F4xx_HAL_Driver/Src/stm32f4xx_ll_usb.c ****   uint32_t epnum = (uint32_t)ep->num;
 1322              		.loc 1 550 3 view .LVU432
 549:Drivers/STM32F4xx_HAL_Driver/Src/stm32f4xx_ll_usb.c ****   uint32_t USBx_BASE = (uint32_t)USBx;
 1323              		.loc 1 549 1 is_stmt 0 view .LVU433
 1324 0000 70B4     		push	{r4, r5, r6}
 1325              	.LCFI11:
 1326              		.cfi_def_cfa_offset 12
 1327              		.cfi_offset 4, -12
 1328              		.cfi_offset 5, -8
 1329              		.cfi_offset 6, -4
 553:Drivers/STM32F4xx_HAL_Driver/Src/stm32f4xx_ll_usb.c ****   {
 1330              		.loc 1 553 6 view .LVU434
 1331 0002 4B78     		ldrb	r3, [r1, #1]	@ zero_extendqisi2
 551:Drivers/STM32F4xx_HAL_Driver/Src/stm32f4xx_ll_usb.c **** 
 1332              		.loc 1 551 32 view .LVU435
 1333 0004 0A78     		ldrb	r2, [r1]	@ zero_extendqisi2
 1334              	.LVL115:
 551:Drivers/STM32F4xx_HAL_Driver/Src/stm32f4xx_ll_usb.c **** 
 1335              		.loc 1 551 3 is_stmt 1 view .LVU436
 553:Drivers/STM32F4xx_HAL_Driver/Src/stm32f4xx_ll_usb.c ****   {
 1336              		.loc 1 553 3 view .LVU437
 553:Drivers/STM32F4xx_HAL_Driver/Src/stm32f4xx_ll_usb.c ****   {
 1337              		.loc 1 553 6 is_stmt 0 view .LVU438
 1338 0006 012B     		cmp	r3, #1
 1339 0008 22D0     		beq	.L119
 567:Drivers/STM32F4xx_HAL_Driver/Src/stm32f4xx_ll_usb.c **** 
 1340              		.loc 1 567 5 is_stmt 1 view .LVU439
 567:Drivers/STM32F4xx_HAL_Driver/Src/stm32f4xx_ll_usb.c **** 
ARM GAS  /tmp/ccDzXOxq.s 			page 55


 1341              		.loc 1 567 82 is_stmt 0 view .LVU440
 1342 000a 02F00F05 		and	r5, r2, #15
 567:Drivers/STM32F4xx_HAL_Driver/Src/stm32f4xx_ll_usb.c **** 
 1343              		.loc 1 567 55 view .LVU441
 1344 000e 4FF48033 		mov	r3, #65536
 567:Drivers/STM32F4xx_HAL_Driver/Src/stm32f4xx_ll_usb.c **** 
 1345              		.loc 1 567 52 view .LVU442
 1346 0012 AB40     		lsls	r3, r3, r5
 567:Drivers/STM32F4xx_HAL_Driver/Src/stm32f4xx_ll_usb.c **** 
 1347              		.loc 1 567 27 view .LVU443
 1348 0014 D0F81C58 		ldr	r5, [r0, #2076]
 1349 0018 00F50064 		add	r4, r0, #2048
 1350 001c 2B43     		orrs	r3, r3, r5
 569:Drivers/STM32F4xx_HAL_Driver/Src/stm32f4xx_ll_usb.c ****     {
 1351              		.loc 1 569 11 view .LVU444
 1352 001e 00EB4210 		add	r0, r0, r2, lsl #5
 1353              	.LVL116:
 567:Drivers/STM32F4xx_HAL_Driver/Src/stm32f4xx_ll_usb.c **** 
 1354              		.loc 1 567 27 view .LVU445
 1355 0022 E361     		str	r3, [r4, #28]
 569:Drivers/STM32F4xx_HAL_Driver/Src/stm32f4xx_ll_usb.c ****     {
 1356              		.loc 1 569 5 is_stmt 1 view .LVU446
 569:Drivers/STM32F4xx_HAL_Driver/Src/stm32f4xx_ll_usb.c ****     {
 1357              		.loc 1 569 28 is_stmt 0 view .LVU447
 1358 0024 D0F8003B 		ldr	r3, [r0, #2816]
 569:Drivers/STM32F4xx_HAL_Driver/Src/stm32f4xx_ll_usb.c ****     {
 1359              		.loc 1 569 8 view .LVU448
 1360 0028 1B04     		lsls	r3, r3, #16
 1361 002a 0ED4     		bmi	.L116
 571:Drivers/STM32F4xx_HAL_Driver/Src/stm32f4xx_ll_usb.c ****                                     ((uint32_t)ep->type << 18) |
 1362              		.loc 1 571 7 is_stmt 1 view .LVU449
 571:Drivers/STM32F4xx_HAL_Driver/Src/stm32f4xx_ll_usb.c ****                                     ((uint32_t)ep->type << 18) |
 1363              		.loc 1 571 52 is_stmt 0 view .LVU450
 1364 002c 8B68     		ldr	r3, [r1, #8]
 571:Drivers/STM32F4xx_HAL_Driver/Src/stm32f4xx_ll_usb.c ****                                     ((uint32_t)ep->type << 18) |
 1365              		.loc 1 571 34 view .LVU451
 1366 002e D0F8004B 		ldr	r4, [r0, #2816]
 1367              	.LVL117:
 572:Drivers/STM32F4xx_HAL_Driver/Src/stm32f4xx_ll_usb.c ****                                     USB_OTG_DIEPCTL_SD0PID_SEVNFRM |
 1368              		.loc 1 572 38 view .LVU452
 1369 0032 CA78     		ldrb	r2, [r1, #3]	@ zero_extendqisi2
 1370              	.LVL118:
 571:Drivers/STM32F4xx_HAL_Driver/Src/stm32f4xx_ll_usb.c ****                                     ((uint32_t)ep->type << 18) |
 1371              		.loc 1 571 52 view .LVU453
 1372 0034 C3F30A03 		ubfx	r3, r3, #0, #11
 571:Drivers/STM32F4xx_HAL_Driver/Src/stm32f4xx_ll_usb.c ****                                     ((uint32_t)ep->type << 18) |
 1373              		.loc 1 571 34 view .LVU454
 1374 0038 2343     		orrs	r3, r3, r4
 1375 003a 43EA8243 		orr	r3, r3, r2, lsl #18
 1376 003e 43F08053 		orr	r3, r3, #268435456
 1377 0042 43F40043 		orr	r3, r3, #32768
 1378 0046 C0F8003B 		str	r3, [r0, #2816]
 1379              	.L116:
 577:Drivers/STM32F4xx_HAL_Driver/Src/stm32f4xx_ll_usb.c **** }
 1380              		.loc 1 577 3 is_stmt 1 view .LVU455
 578:Drivers/STM32F4xx_HAL_Driver/Src/stm32f4xx_ll_usb.c **** 
 1381              		.loc 1 578 1 is_stmt 0 view .LVU456
ARM GAS  /tmp/ccDzXOxq.s 			page 56


 1382 004a 0020     		movs	r0, #0
 1383 004c 70BC     		pop	{r4, r5, r6}
 1384              	.LCFI12:
 1385              		.cfi_remember_state
 1386              		.cfi_restore 6
 1387              		.cfi_restore 5
 1388              		.cfi_restore 4
 1389              		.cfi_def_cfa_offset 0
 1390 004e 7047     		bx	lr
 1391              	.LVL119:
 1392              	.L119:
 1393              	.LCFI13:
 1394              		.cfi_restore_state
 555:Drivers/STM32F4xx_HAL_Driver/Src/stm32f4xx_ll_usb.c **** 
 1395              		.loc 1 555 5 is_stmt 1 view .LVU457
 555:Drivers/STM32F4xx_HAL_Driver/Src/stm32f4xx_ll_usb.c **** 
 1396              		.loc 1 555 27 is_stmt 0 view .LVU458
 1397 0050 D0F81C68 		ldr	r6, [r0, #2076]
 555:Drivers/STM32F4xx_HAL_Driver/Src/stm32f4xx_ll_usb.c **** 
 1398              		.loc 1 555 81 view .LVU459
 1399 0054 02F00F04 		and	r4, r2, #15
 555:Drivers/STM32F4xx_HAL_Driver/Src/stm32f4xx_ll_usb.c **** 
 1400              		.loc 1 555 27 view .LVU460
 1401 0058 00F50065 		add	r5, r0, #2048
 555:Drivers/STM32F4xx_HAL_Driver/Src/stm32f4xx_ll_usb.c **** 
 1402              		.loc 1 555 54 view .LVU461
 1403 005c A340     		lsls	r3, r3, r4
 555:Drivers/STM32F4xx_HAL_Driver/Src/stm32f4xx_ll_usb.c **** 
 1404              		.loc 1 555 27 view .LVU462
 1405 005e 3343     		orrs	r3, r3, r6
 557:Drivers/STM32F4xx_HAL_Driver/Src/stm32f4xx_ll_usb.c ****     {
 1406              		.loc 1 557 10 view .LVU463
 1407 0060 00EB4210 		add	r0, r0, r2, lsl #5
 1408              	.LVL120:
 555:Drivers/STM32F4xx_HAL_Driver/Src/stm32f4xx_ll_usb.c **** 
 1409              		.loc 1 555 27 view .LVU464
 1410 0064 EB61     		str	r3, [r5, #28]
 557:Drivers/STM32F4xx_HAL_Driver/Src/stm32f4xx_ll_usb.c ****     {
 1411              		.loc 1 557 5 is_stmt 1 view .LVU465
 557:Drivers/STM32F4xx_HAL_Driver/Src/stm32f4xx_ll_usb.c ****     {
 1412              		.loc 1 557 26 is_stmt 0 view .LVU466
 1413 0066 D0F80039 		ldr	r3, [r0, #2304]
 557:Drivers/STM32F4xx_HAL_Driver/Src/stm32f4xx_ll_usb.c ****     {
 1414              		.loc 1 557 8 view .LVU467
 1415 006a 1C04     		lsls	r4, r3, #16
 1416 006c EDD4     		bmi	.L116
 559:Drivers/STM32F4xx_HAL_Driver/Src/stm32f4xx_ll_usb.c ****                                    ((uint32_t)ep->type << 18) | (epnum << 22) |
 1417              		.loc 1 559 7 is_stmt 1 view .LVU468
 559:Drivers/STM32F4xx_HAL_Driver/Src/stm32f4xx_ll_usb.c ****                                    ((uint32_t)ep->type << 18) | (epnum << 22) |
 1418              		.loc 1 559 51 is_stmt 0 view .LVU469
 1419 006e 8B68     		ldr	r3, [r1, #8]
 559:Drivers/STM32F4xx_HAL_Driver/Src/stm32f4xx_ll_usb.c ****                                    ((uint32_t)ep->type << 18) | (epnum << 22) |
 1420              		.loc 1 559 33 view .LVU470
 1421 0070 D0F80049 		ldr	r4, [r0, #2304]
 560:Drivers/STM32F4xx_HAL_Driver/Src/stm32f4xx_ll_usb.c ****                                    USB_OTG_DIEPCTL_SD0PID_SEVNFRM |
 1422              		.loc 1 560 37 view .LVU471
 1423 0074 C978     		ldrb	r1, [r1, #3]	@ zero_extendqisi2
ARM GAS  /tmp/ccDzXOxq.s 			page 57


 1424              	.LVL121:
 559:Drivers/STM32F4xx_HAL_Driver/Src/stm32f4xx_ll_usb.c ****                                    ((uint32_t)ep->type << 18) | (epnum << 22) |
 1425              		.loc 1 559 51 view .LVU472
 1426 0076 C3F30A03 		ubfx	r3, r3, #0, #11
 559:Drivers/STM32F4xx_HAL_Driver/Src/stm32f4xx_ll_usb.c ****                                    ((uint32_t)ep->type << 18) | (epnum << 22) |
 1427              		.loc 1 559 33 view .LVU473
 1428 007a 2343     		orrs	r3, r3, r4
 1429 007c 43EA8143 		orr	r3, r3, r1, lsl #18
 1430 0080 43EA8252 		orr	r2, r3, r2, lsl #22
 1431              	.LVL122:
 559:Drivers/STM32F4xx_HAL_Driver/Src/stm32f4xx_ll_usb.c ****                                    ((uint32_t)ep->type << 18) | (epnum << 22) |
 1432              		.loc 1 559 33 view .LVU474
 1433 0084 42F08052 		orr	r2, r2, #268435456
 1434 0088 42F40042 		orr	r2, r2, #32768
 1435 008c C0F80029 		str	r2, [r0, #2304]
 577:Drivers/STM32F4xx_HAL_Driver/Src/stm32f4xx_ll_usb.c **** }
 1436              		.loc 1 577 3 is_stmt 1 view .LVU475
 578:Drivers/STM32F4xx_HAL_Driver/Src/stm32f4xx_ll_usb.c **** 
 1437              		.loc 1 578 1 is_stmt 0 view .LVU476
 1438 0090 70BC     		pop	{r4, r5, r6}
 1439              	.LCFI14:
 1440              		.cfi_restore 6
 1441              		.cfi_restore 5
 1442              		.cfi_restore 4
 1443              		.cfi_def_cfa_offset 0
 1444              	.LVL123:
 578:Drivers/STM32F4xx_HAL_Driver/Src/stm32f4xx_ll_usb.c **** 
 1445              		.loc 1 578 1 view .LVU477
 1446 0092 0020     		movs	r0, #0
 1447 0094 7047     		bx	lr
 1448              		.cfi_endproc
 1449              	.LFE140:
 1451 0096 00BF     		.section	.text.USB_ActivateDedicatedEndpoint,"ax",%progbits
 1452              		.align	1
 1453              		.p2align 2,,3
 1454              		.global	USB_ActivateDedicatedEndpoint
 1455              		.syntax unified
 1456              		.thumb
 1457              		.thumb_func
 1458              		.fpu fpv4-sp-d16
 1460              	USB_ActivateDedicatedEndpoint:
 1461              	.LVL124:
 1462              	.LFB141:
 587:Drivers/STM32F4xx_HAL_Driver/Src/stm32f4xx_ll_usb.c ****   uint32_t USBx_BASE = (uint32_t)USBx;
 1463              		.loc 1 587 1 is_stmt 1 view -0
 1464              		.cfi_startproc
 1465              		@ args = 0, pretend = 0, frame = 0
 1466              		@ frame_needed = 0, uses_anonymous_args = 0
 1467              		@ link register save eliminated.
 588:Drivers/STM32F4xx_HAL_Driver/Src/stm32f4xx_ll_usb.c ****   uint32_t epnum = (uint32_t)ep->num;
 1468              		.loc 1 588 3 view .LVU479
 587:Drivers/STM32F4xx_HAL_Driver/Src/stm32f4xx_ll_usb.c ****   uint32_t USBx_BASE = (uint32_t)USBx;
 1469              		.loc 1 587 1 is_stmt 0 view .LVU480
 1470 0000 30B4     		push	{r4, r5}
 1471              	.LCFI15:
 1472              		.cfi_def_cfa_offset 8
 1473              		.cfi_offset 4, -8
ARM GAS  /tmp/ccDzXOxq.s 			page 58


 1474              		.cfi_offset 5, -4
 592:Drivers/STM32F4xx_HAL_Driver/Src/stm32f4xx_ll_usb.c ****   {
 1475              		.loc 1 592 6 view .LVU481
 1476 0002 4A78     		ldrb	r2, [r1, #1]	@ zero_extendqisi2
 589:Drivers/STM32F4xx_HAL_Driver/Src/stm32f4xx_ll_usb.c **** 
 1477              		.loc 1 589 32 view .LVU482
 1478 0004 0B78     		ldrb	r3, [r1]	@ zero_extendqisi2
 1479              	.LVL125:
 589:Drivers/STM32F4xx_HAL_Driver/Src/stm32f4xx_ll_usb.c **** 
 1480              		.loc 1 589 3 is_stmt 1 view .LVU483
 592:Drivers/STM32F4xx_HAL_Driver/Src/stm32f4xx_ll_usb.c ****   {
 1481              		.loc 1 592 3 view .LVU484
 592:Drivers/STM32F4xx_HAL_Driver/Src/stm32f4xx_ll_usb.c ****   {
 1482              		.loc 1 592 6 is_stmt 0 view .LVU485
 1483 0006 012A     		cmp	r2, #1
 594:Drivers/STM32F4xx_HAL_Driver/Src/stm32f4xx_ll_usb.c ****     {
 1484              		.loc 1 594 11 view .LVU486
 1485 0008 00EB4314 		add	r4, r0, r3, lsl #5
 592:Drivers/STM32F4xx_HAL_Driver/Src/stm32f4xx_ll_usb.c ****   {
 1486              		.loc 1 592 6 view .LVU487
 1487 000c 21D0     		beq	.L126
 606:Drivers/STM32F4xx_HAL_Driver/Src/stm32f4xx_ll_usb.c ****     {
 1488              		.loc 1 606 5 is_stmt 1 view .LVU488
 606:Drivers/STM32F4xx_HAL_Driver/Src/stm32f4xx_ll_usb.c ****     {
 1489              		.loc 1 606 28 is_stmt 0 view .LVU489
 1490 000e D4F8002B 		ldr	r2, [r4, #2816]
 606:Drivers/STM32F4xx_HAL_Driver/Src/stm32f4xx_ll_usb.c ****     {
 1491              		.loc 1 606 8 view .LVU490
 1492 0012 1204     		lsls	r2, r2, #16
 1493 0014 0DD5     		bpl	.L127
 1494              	.LVL126:
 1495              	.L124:
 613:Drivers/STM32F4xx_HAL_Driver/Src/stm32f4xx_ll_usb.c ****   }
 1496              		.loc 1 613 5 is_stmt 1 view .LVU491
 613:Drivers/STM32F4xx_HAL_Driver/Src/stm32f4xx_ll_usb.c ****   }
 1497              		.loc 1 613 27 is_stmt 0 view .LVU492
 1498 0016 D0F83C18 		ldr	r1, [r0, #2108]
 613:Drivers/STM32F4xx_HAL_Driver/Src/stm32f4xx_ll_usb.c ****   }
 1499              		.loc 1 613 82 view .LVU493
 1500 001a 03F00F03 		and	r3, r3, #15
 1501              	.LVL127:
 613:Drivers/STM32F4xx_HAL_Driver/Src/stm32f4xx_ll_usb.c ****   }
 1502              		.loc 1 613 55 view .LVU494
 1503 001e 4FF48032 		mov	r2, #65536
 613:Drivers/STM32F4xx_HAL_Driver/Src/stm32f4xx_ll_usb.c ****   }
 1504              		.loc 1 613 52 view .LVU495
 1505 0022 02FA03F3 		lsl	r3, r2, r3
 613:Drivers/STM32F4xx_HAL_Driver/Src/stm32f4xx_ll_usb.c ****   }
 1506              		.loc 1 613 27 view .LVU496
 1507 0026 0B43     		orrs	r3, r3, r1
 1508 0028 C0F83C38 		str	r3, [r0, #2108]
 616:Drivers/STM32F4xx_HAL_Driver/Src/stm32f4xx_ll_usb.c **** }
 1509              		.loc 1 616 3 is_stmt 1 view .LVU497
 617:Drivers/STM32F4xx_HAL_Driver/Src/stm32f4xx_ll_usb.c **** 
 1510              		.loc 1 617 1 is_stmt 0 view .LVU498
 1511 002c 30BC     		pop	{r4, r5}
 1512              	.LCFI16:
ARM GAS  /tmp/ccDzXOxq.s 			page 59


 1513              		.cfi_remember_state
 1514              		.cfi_restore 5
 1515              		.cfi_restore 4
 1516              		.cfi_def_cfa_offset 0
 1517 002e 0020     		movs	r0, #0
 1518              	.LVL128:
 617:Drivers/STM32F4xx_HAL_Driver/Src/stm32f4xx_ll_usb.c **** 
 1519              		.loc 1 617 1 view .LVU499
 1520 0030 7047     		bx	lr
 1521              	.LVL129:
 1522              	.L127:
 1523              	.LCFI17:
 1524              		.cfi_restore_state
 608:Drivers/STM32F4xx_HAL_Driver/Src/stm32f4xx_ll_usb.c ****                                     ((uint32_t)ep->type << 18) | (epnum << 22) |
 1525              		.loc 1 608 7 is_stmt 1 view .LVU500
 608:Drivers/STM32F4xx_HAL_Driver/Src/stm32f4xx_ll_usb.c ****                                     ((uint32_t)ep->type << 18) | (epnum << 22) |
 1526              		.loc 1 608 52 is_stmt 0 view .LVU501
 1527 0032 8A68     		ldr	r2, [r1, #8]
 608:Drivers/STM32F4xx_HAL_Driver/Src/stm32f4xx_ll_usb.c ****                                     ((uint32_t)ep->type << 18) | (epnum << 22) |
 1528              		.loc 1 608 34 view .LVU502
 1529 0034 D4F8005B 		ldr	r5, [r4, #2816]
 609:Drivers/STM32F4xx_HAL_Driver/Src/stm32f4xx_ll_usb.c ****                                     USB_OTG_DOEPCTL_USBAEP;
 1530              		.loc 1 609 38 view .LVU503
 1531 0038 C978     		ldrb	r1, [r1, #3]	@ zero_extendqisi2
 1532              	.LVL130:
 608:Drivers/STM32F4xx_HAL_Driver/Src/stm32f4xx_ll_usb.c ****                                     ((uint32_t)ep->type << 18) | (epnum << 22) |
 1533              		.loc 1 608 52 view .LVU504
 1534 003a C2F30A02 		ubfx	r2, r2, #0, #11
 608:Drivers/STM32F4xx_HAL_Driver/Src/stm32f4xx_ll_usb.c ****                                     ((uint32_t)ep->type << 18) | (epnum << 22) |
 1535              		.loc 1 608 34 view .LVU505
 1536 003e 2A43     		orrs	r2, r2, r5
 1537 0040 42EA8142 		orr	r2, r2, r1, lsl #18
 1538 0044 42EA8352 		orr	r2, r2, r3, lsl #22
 1539 0048 42F40042 		orr	r2, r2, #32768
 1540 004c C4F8002B 		str	r2, [r4, #2816]
 1541 0050 E1E7     		b	.L124
 1542              	.LVL131:
 1543              	.L126:
 594:Drivers/STM32F4xx_HAL_Driver/Src/stm32f4xx_ll_usb.c ****     {
 1544              		.loc 1 594 5 is_stmt 1 view .LVU506
 594:Drivers/STM32F4xx_HAL_Driver/Src/stm32f4xx_ll_usb.c ****     {
 1545              		.loc 1 594 27 is_stmt 0 view .LVU507
 1546 0052 D4F80029 		ldr	r2, [r4, #2304]
 594:Drivers/STM32F4xx_HAL_Driver/Src/stm32f4xx_ll_usb.c ****     {
 1547              		.loc 1 594 8 view .LVU508
 1548 0056 1504     		lsls	r5, r2, #16
 1549 0058 10D4     		bmi	.L122
 596:Drivers/STM32F4xx_HAL_Driver/Src/stm32f4xx_ll_usb.c ****                                    ((uint32_t)ep->type << 18) | (epnum << 22) |
 1550              		.loc 1 596 7 is_stmt 1 view .LVU509
 596:Drivers/STM32F4xx_HAL_Driver/Src/stm32f4xx_ll_usb.c ****                                    ((uint32_t)ep->type << 18) | (epnum << 22) |
 1551              		.loc 1 596 51 is_stmt 0 view .LVU510
 1552 005a 8A68     		ldr	r2, [r1, #8]
 596:Drivers/STM32F4xx_HAL_Driver/Src/stm32f4xx_ll_usb.c ****                                    ((uint32_t)ep->type << 18) | (epnum << 22) |
 1553              		.loc 1 596 33 view .LVU511
 1554 005c D4F80059 		ldr	r5, [r4, #2304]
 597:Drivers/STM32F4xx_HAL_Driver/Src/stm32f4xx_ll_usb.c ****                                    USB_OTG_DIEPCTL_SD0PID_SEVNFRM |
 1555              		.loc 1 597 37 view .LVU512
ARM GAS  /tmp/ccDzXOxq.s 			page 60


 1556 0060 C978     		ldrb	r1, [r1, #3]	@ zero_extendqisi2
 1557              	.LVL132:
 596:Drivers/STM32F4xx_HAL_Driver/Src/stm32f4xx_ll_usb.c ****                                    ((uint32_t)ep->type << 18) | (epnum << 22) |
 1558              		.loc 1 596 51 view .LVU513
 1559 0062 C2F30A02 		ubfx	r2, r2, #0, #11
 596:Drivers/STM32F4xx_HAL_Driver/Src/stm32f4xx_ll_usb.c ****                                    ((uint32_t)ep->type << 18) | (epnum << 22) |
 1560              		.loc 1 596 33 view .LVU514
 1561 0066 2A43     		orrs	r2, r2, r5
 1562 0068 42EA8142 		orr	r2, r2, r1, lsl #18
 1563 006c 42EA8352 		orr	r2, r2, r3, lsl #22
 1564 0070 42F08052 		orr	r2, r2, #268435456
 1565 0074 42F40042 		orr	r2, r2, #32768
 1566 0078 C4F80029 		str	r2, [r4, #2304]
 1567              	.L122:
 602:Drivers/STM32F4xx_HAL_Driver/Src/stm32f4xx_ll_usb.c ****   }
 1568              		.loc 1 602 5 is_stmt 1 view .LVU515
 602:Drivers/STM32F4xx_HAL_Driver/Src/stm32f4xx_ll_usb.c ****   }
 1569              		.loc 1 602 27 is_stmt 0 view .LVU516
 1570 007c D0F83C28 		ldr	r2, [r0, #2108]
 602:Drivers/STM32F4xx_HAL_Driver/Src/stm32f4xx_ll_usb.c ****   }
 1571              		.loc 1 602 81 view .LVU517
 1572 0080 03F00F01 		and	r1, r3, #15
 602:Drivers/STM32F4xx_HAL_Driver/Src/stm32f4xx_ll_usb.c ****   }
 1573              		.loc 1 602 54 view .LVU518
 1574 0084 0123     		movs	r3, #1
 1575              	.LVL133:
 602:Drivers/STM32F4xx_HAL_Driver/Src/stm32f4xx_ll_usb.c ****   }
 1576              		.loc 1 602 54 view .LVU519
 1577 0086 8B40     		lsls	r3, r3, r1
 602:Drivers/STM32F4xx_HAL_Driver/Src/stm32f4xx_ll_usb.c ****   }
 1578              		.loc 1 602 27 view .LVU520
 1579 0088 1343     		orrs	r3, r3, r2
 1580 008a C0F83C38 		str	r3, [r0, #2108]
 616:Drivers/STM32F4xx_HAL_Driver/Src/stm32f4xx_ll_usb.c **** }
 1581              		.loc 1 616 3 is_stmt 1 view .LVU521
 617:Drivers/STM32F4xx_HAL_Driver/Src/stm32f4xx_ll_usb.c **** 
 1582              		.loc 1 617 1 is_stmt 0 view .LVU522
 1583 008e 30BC     		pop	{r4, r5}
 1584              	.LCFI18:
 1585              		.cfi_restore 5
 1586              		.cfi_restore 4
 1587              		.cfi_def_cfa_offset 0
 1588 0090 0020     		movs	r0, #0
 1589              	.LVL134:
 617:Drivers/STM32F4xx_HAL_Driver/Src/stm32f4xx_ll_usb.c **** 
 1590              		.loc 1 617 1 view .LVU523
 1591 0092 7047     		bx	lr
 1592              		.cfi_endproc
 1593              	.LFE141:
 1595              		.section	.text.USB_DeactivateEndpoint,"ax",%progbits
 1596              		.align	1
 1597              		.p2align 2,,3
 1598              		.global	USB_DeactivateEndpoint
 1599              		.syntax unified
 1600              		.thumb
 1601              		.thumb_func
 1602              		.fpu fpv4-sp-d16
ARM GAS  /tmp/ccDzXOxq.s 			page 61


 1604              	USB_DeactivateEndpoint:
 1605              	.LVL135:
 1606              	.LFB142:
 626:Drivers/STM32F4xx_HAL_Driver/Src/stm32f4xx_ll_usb.c ****   uint32_t USBx_BASE = (uint32_t)USBx;
 1607              		.loc 1 626 1 is_stmt 1 view -0
 1608              		.cfi_startproc
 1609              		@ args = 0, pretend = 0, frame = 0
 1610              		@ frame_needed = 0, uses_anonymous_args = 0
 1611              		@ link register save eliminated.
 627:Drivers/STM32F4xx_HAL_Driver/Src/stm32f4xx_ll_usb.c ****   uint32_t epnum = (uint32_t)ep->num;
 1612              		.loc 1 627 3 view .LVU525
 626:Drivers/STM32F4xx_HAL_Driver/Src/stm32f4xx_ll_usb.c ****   uint32_t USBx_BASE = (uint32_t)USBx;
 1613              		.loc 1 626 1 is_stmt 0 view .LVU526
 1614 0000 30B4     		push	{r4, r5}
 1615              	.LCFI19:
 1616              		.cfi_def_cfa_offset 8
 1617              		.cfi_offset 4, -8
 1618              		.cfi_offset 5, -4
 631:Drivers/STM32F4xx_HAL_Driver/Src/stm32f4xx_ll_usb.c ****   {
 1619              		.loc 1 631 6 view .LVU527
 1620 0002 4A78     		ldrb	r2, [r1, #1]	@ zero_extendqisi2
 628:Drivers/STM32F4xx_HAL_Driver/Src/stm32f4xx_ll_usb.c **** 
 1621              		.loc 1 628 32 view .LVU528
 1622 0004 0B78     		ldrb	r3, [r1]	@ zero_extendqisi2
 1623              	.LVL136:
 628:Drivers/STM32F4xx_HAL_Driver/Src/stm32f4xx_ll_usb.c **** 
 1624              		.loc 1 628 3 is_stmt 1 view .LVU529
 631:Drivers/STM32F4xx_HAL_Driver/Src/stm32f4xx_ll_usb.c ****   {
 1625              		.loc 1 631 3 view .LVU530
 631:Drivers/STM32F4xx_HAL_Driver/Src/stm32f4xx_ll_usb.c ****   {
 1626              		.loc 1 631 6 is_stmt 0 view .LVU531
 1627 0006 012A     		cmp	r2, #1
 633:Drivers/STM32F4xx_HAL_Driver/Src/stm32f4xx_ll_usb.c ****     {
 1628              		.loc 1 633 10 view .LVU532
 1629 0008 00EB4315 		add	r5, r0, r3, lsl #5
 631:Drivers/STM32F4xx_HAL_Driver/Src/stm32f4xx_ll_usb.c ****   {
 1630              		.loc 1 631 6 view .LVU533
 1631 000c 2BD0     		beq	.L134
 649:Drivers/STM32F4xx_HAL_Driver/Src/stm32f4xx_ll_usb.c ****     {
 1632              		.loc 1 649 5 is_stmt 1 view .LVU534
 649:Drivers/STM32F4xx_HAL_Driver/Src/stm32f4xx_ll_usb.c ****     {
 1633              		.loc 1 649 27 is_stmt 0 view .LVU535
 1634 000e D5F8002B 		ldr	r2, [r5, #2816]
 649:Drivers/STM32F4xx_HAL_Driver/Src/stm32f4xx_ll_usb.c ****     {
 1635              		.loc 1 649 8 view .LVU536
 1636 0012 002A     		cmp	r2, #0
 1637 0014 1ADB     		blt	.L135
 1638              	.L132:
 655:Drivers/STM32F4xx_HAL_Driver/Src/stm32f4xx_ll_usb.c ****     USBx_DEVICE->DAINTMSK &= ~(USB_OTG_DAINTMSK_OEPM & ((uint32_t)(1UL << (ep->num & EP_ADDR_MSK)) 
 1639              		.loc 1 655 5 is_stmt 1 view .LVU537
 655:Drivers/STM32F4xx_HAL_Driver/Src/stm32f4xx_ll_usb.c ****     USBx_DEVICE->DAINTMSK &= ~(USB_OTG_DAINTMSK_OEPM & ((uint32_t)(1UL << (ep->num & EP_ADDR_MSK)) 
 1640              		.loc 1 655 27 is_stmt 0 view .LVU538
 1641 0016 D0F83C48 		ldr	r4, [r0, #2108]
 657:Drivers/STM32F4xx_HAL_Driver/Src/stm32f4xx_ll_usb.c ****                                     USB_OTG_DOEPCTL_MPSIZ |
 1642              		.loc 1 657 32 view .LVU539
 1643 001a 2849     		ldr	r1, .L136
 1644              	.LVL137:
ARM GAS  /tmp/ccDzXOxq.s 			page 62


 655:Drivers/STM32F4xx_HAL_Driver/Src/stm32f4xx_ll_usb.c ****     USBx_DEVICE->DAINTMSK &= ~(USB_OTG_DAINTMSK_OEPM & ((uint32_t)(1UL << (ep->num & EP_ADDR_MSK)) 
 1645              		.loc 1 655 57 view .LVU540
 1646 001c 4FF48032 		mov	r2, #65536
 655:Drivers/STM32F4xx_HAL_Driver/Src/stm32f4xx_ll_usb.c ****     USBx_DEVICE->DAINTMSK &= ~(USB_OTG_DAINTMSK_OEPM & ((uint32_t)(1UL << (ep->num & EP_ADDR_MSK)) 
 1647              		.loc 1 655 84 view .LVU541
 1648 0020 03F00F03 		and	r3, r3, #15
 1649              	.LVL138:
 655:Drivers/STM32F4xx_HAL_Driver/Src/stm32f4xx_ll_usb.c ****     USBx_DEVICE->DAINTMSK &= ~(USB_OTG_DAINTMSK_OEPM & ((uint32_t)(1UL << (ep->num & EP_ADDR_MSK)) 
 1650              		.loc 1 655 54 view .LVU542
 1651 0024 02FA03F3 		lsl	r3, r2, r3
 655:Drivers/STM32F4xx_HAL_Driver/Src/stm32f4xx_ll_usb.c ****     USBx_DEVICE->DAINTMSK &= ~(USB_OTG_DAINTMSK_OEPM & ((uint32_t)(1UL << (ep->num & EP_ADDR_MSK)) 
 1652              		.loc 1 655 27 view .LVU543
 1653 0028 24EA0304 		bic	r4, r4, r3
 1654 002c C0F83C48 		str	r4, [r0, #2108]
 656:Drivers/STM32F4xx_HAL_Driver/Src/stm32f4xx_ll_usb.c ****     USBx_OUTEP(epnum)->DOEPCTL &= ~(USB_OTG_DOEPCTL_USBAEP |
 1655              		.loc 1 656 5 is_stmt 1 view .LVU544
 656:Drivers/STM32F4xx_HAL_Driver/Src/stm32f4xx_ll_usb.c ****     USBx_OUTEP(epnum)->DOEPCTL &= ~(USB_OTG_DOEPCTL_USBAEP |
 1656              		.loc 1 656 27 is_stmt 0 view .LVU545
 1657 0030 D0F81C28 		ldr	r2, [r0, #2076]
 1658 0034 22EA0303 		bic	r3, r2, r3
 1659 0038 C0F81C38 		str	r3, [r0, #2076]
 657:Drivers/STM32F4xx_HAL_Driver/Src/stm32f4xx_ll_usb.c ****                                     USB_OTG_DOEPCTL_MPSIZ |
 1660              		.loc 1 657 5 is_stmt 1 view .LVU546
 657:Drivers/STM32F4xx_HAL_Driver/Src/stm32f4xx_ll_usb.c ****                                     USB_OTG_DOEPCTL_MPSIZ |
 1661              		.loc 1 657 32 is_stmt 0 view .LVU547
 1662 003c D5F8003B 		ldr	r3, [r5, #2816]
 1663 0040 1940     		ands	r1, r1, r3
 1664 0042 C5F8001B 		str	r1, [r5, #2816]
 663:Drivers/STM32F4xx_HAL_Driver/Src/stm32f4xx_ll_usb.c **** }
 1665              		.loc 1 663 3 is_stmt 1 view .LVU548
 664:Drivers/STM32F4xx_HAL_Driver/Src/stm32f4xx_ll_usb.c **** 
 1666              		.loc 1 664 1 is_stmt 0 view .LVU549
 1667 0046 0020     		movs	r0, #0
 1668              	.LVL139:
 664:Drivers/STM32F4xx_HAL_Driver/Src/stm32f4xx_ll_usb.c **** 
 1669              		.loc 1 664 1 view .LVU550
 1670 0048 30BC     		pop	{r4, r5}
 1671              	.LCFI20:
 1672              		.cfi_remember_state
 1673              		.cfi_restore 5
 1674              		.cfi_restore 4
 1675              		.cfi_def_cfa_offset 0
 1676 004a 7047     		bx	lr
 1677              	.LVL140:
 1678              	.L135:
 1679              	.LCFI21:
 1680              		.cfi_restore_state
 651:Drivers/STM32F4xx_HAL_Driver/Src/stm32f4xx_ll_usb.c ****       USBx_OUTEP(epnum)->DOEPCTL |= USB_OTG_DOEPCTL_EPDIS;
 1681              		.loc 1 651 7 is_stmt 1 view .LVU551
 651:Drivers/STM32F4xx_HAL_Driver/Src/stm32f4xx_ll_usb.c ****       USBx_OUTEP(epnum)->DOEPCTL |= USB_OTG_DOEPCTL_EPDIS;
 1682              		.loc 1 651 34 is_stmt 0 view .LVU552
 1683 004c D5F8002B 		ldr	r2, [r5, #2816]
 1684 0050 42F00062 		orr	r2, r2, #134217728
 1685 0054 C5F8002B 		str	r2, [r5, #2816]
 652:Drivers/STM32F4xx_HAL_Driver/Src/stm32f4xx_ll_usb.c ****     }
 1686              		.loc 1 652 7 is_stmt 1 view .LVU553
 652:Drivers/STM32F4xx_HAL_Driver/Src/stm32f4xx_ll_usb.c ****     }
ARM GAS  /tmp/ccDzXOxq.s 			page 63


 1687              		.loc 1 652 34 is_stmt 0 view .LVU554
 1688 0058 D5F8002B 		ldr	r2, [r5, #2816]
 1689 005c 42F08042 		orr	r2, r2, #1073741824
 1690 0060 C5F8002B 		str	r2, [r5, #2816]
 1691 0064 D7E7     		b	.L132
 1692              	.L134:
 633:Drivers/STM32F4xx_HAL_Driver/Src/stm32f4xx_ll_usb.c ****     {
 1693              		.loc 1 633 5 is_stmt 1 view .LVU555
 633:Drivers/STM32F4xx_HAL_Driver/Src/stm32f4xx_ll_usb.c ****     {
 1694              		.loc 1 633 26 is_stmt 0 view .LVU556
 1695 0066 D5F80029 		ldr	r2, [r5, #2304]
 633:Drivers/STM32F4xx_HAL_Driver/Src/stm32f4xx_ll_usb.c ****     {
 1696              		.loc 1 633 8 view .LVU557
 1697 006a 002A     		cmp	r2, #0
 1698 006c 0BDA     		bge	.L130
 635:Drivers/STM32F4xx_HAL_Driver/Src/stm32f4xx_ll_usb.c ****       USBx_INEP(epnum)->DIEPCTL |= USB_OTG_DIEPCTL_EPDIS;
 1699              		.loc 1 635 7 is_stmt 1 view .LVU558
 635:Drivers/STM32F4xx_HAL_Driver/Src/stm32f4xx_ll_usb.c ****       USBx_INEP(epnum)->DIEPCTL |= USB_OTG_DIEPCTL_EPDIS;
 1700              		.loc 1 635 33 is_stmt 0 view .LVU559
 1701 006e D5F80029 		ldr	r2, [r5, #2304]
 1702 0072 42F00062 		orr	r2, r2, #134217728
 1703 0076 C5F80029 		str	r2, [r5, #2304]
 636:Drivers/STM32F4xx_HAL_Driver/Src/stm32f4xx_ll_usb.c ****     }
 1704              		.loc 1 636 7 is_stmt 1 view .LVU560
 636:Drivers/STM32F4xx_HAL_Driver/Src/stm32f4xx_ll_usb.c ****     }
 1705              		.loc 1 636 33 is_stmt 0 view .LVU561
 1706 007a D5F80029 		ldr	r2, [r5, #2304]
 1707 007e 42F08042 		orr	r2, r2, #1073741824
 1708 0082 C5F80029 		str	r2, [r5, #2304]
 1709              	.L130:
 639:Drivers/STM32F4xx_HAL_Driver/Src/stm32f4xx_ll_usb.c ****     USBx_DEVICE->DAINTMSK &= ~(USB_OTG_DAINTMSK_IEPM & (uint32_t)(1UL << (ep->num & EP_ADDR_MSK)));
 1710              		.loc 1 639 5 is_stmt 1 view .LVU562
 639:Drivers/STM32F4xx_HAL_Driver/Src/stm32f4xx_ll_usb.c ****     USBx_DEVICE->DAINTMSK &= ~(USB_OTG_DAINTMSK_IEPM & (uint32_t)(1UL << (ep->num & EP_ADDR_MSK)));
 1711              		.loc 1 639 27 is_stmt 0 view .LVU563
 1712 0086 D0F83C48 		ldr	r4, [r0, #2108]
 641:Drivers/STM32F4xx_HAL_Driver/Src/stm32f4xx_ll_usb.c ****                                    USB_OTG_DIEPCTL_MPSIZ |
 1713              		.loc 1 641 31 view .LVU564
 1714 008a 0D49     		ldr	r1, .L136+4
 1715              	.LVL141:
 639:Drivers/STM32F4xx_HAL_Driver/Src/stm32f4xx_ll_usb.c ****     USBx_DEVICE->DAINTMSK &= ~(USB_OTG_DAINTMSK_IEPM & (uint32_t)(1UL << (ep->num & EP_ADDR_MSK)));
 1716              		.loc 1 639 56 view .LVU565
 1717 008c 0122     		movs	r2, #1
 639:Drivers/STM32F4xx_HAL_Driver/Src/stm32f4xx_ll_usb.c ****     USBx_DEVICE->DAINTMSK &= ~(USB_OTG_DAINTMSK_IEPM & (uint32_t)(1UL << (ep->num & EP_ADDR_MSK)));
 1718              		.loc 1 639 83 view .LVU566
 1719 008e 03F00F03 		and	r3, r3, #15
 1720              	.LVL142:
 639:Drivers/STM32F4xx_HAL_Driver/Src/stm32f4xx_ll_usb.c ****     USBx_DEVICE->DAINTMSK &= ~(USB_OTG_DAINTMSK_IEPM & (uint32_t)(1UL << (ep->num & EP_ADDR_MSK)));
 1721              		.loc 1 639 56 view .LVU567
 1722 0092 02FA03F3 		lsl	r3, r2, r3
 639:Drivers/STM32F4xx_HAL_Driver/Src/stm32f4xx_ll_usb.c ****     USBx_DEVICE->DAINTMSK &= ~(USB_OTG_DAINTMSK_IEPM & (uint32_t)(1UL << (ep->num & EP_ADDR_MSK)));
 1723              		.loc 1 639 27 view .LVU568
 1724 0096 24EA0304 		bic	r4, r4, r3
 1725 009a C0F83C48 		str	r4, [r0, #2108]
 640:Drivers/STM32F4xx_HAL_Driver/Src/stm32f4xx_ll_usb.c ****     USBx_INEP(epnum)->DIEPCTL &= ~(USB_OTG_DIEPCTL_USBAEP |
 1726              		.loc 1 640 5 is_stmt 1 view .LVU569
 640:Drivers/STM32F4xx_HAL_Driver/Src/stm32f4xx_ll_usb.c ****     USBx_INEP(epnum)->DIEPCTL &= ~(USB_OTG_DIEPCTL_USBAEP |
 1727              		.loc 1 640 27 is_stmt 0 view .LVU570
ARM GAS  /tmp/ccDzXOxq.s 			page 64


 1728 009e D0F81C28 		ldr	r2, [r0, #2076]
 1729 00a2 22EA0303 		bic	r3, r2, r3
 1730 00a6 C0F81C38 		str	r3, [r0, #2076]
 641:Drivers/STM32F4xx_HAL_Driver/Src/stm32f4xx_ll_usb.c ****                                    USB_OTG_DIEPCTL_MPSIZ |
 1731              		.loc 1 641 5 is_stmt 1 view .LVU571
 641:Drivers/STM32F4xx_HAL_Driver/Src/stm32f4xx_ll_usb.c ****                                    USB_OTG_DIEPCTL_MPSIZ |
 1732              		.loc 1 641 31 is_stmt 0 view .LVU572
 1733 00aa D5F80039 		ldr	r3, [r5, #2304]
 1734 00ae 1940     		ands	r1, r1, r3
 1735 00b0 C5F80019 		str	r1, [r5, #2304]
 663:Drivers/STM32F4xx_HAL_Driver/Src/stm32f4xx_ll_usb.c **** }
 1736              		.loc 1 663 3 is_stmt 1 view .LVU573
 664:Drivers/STM32F4xx_HAL_Driver/Src/stm32f4xx_ll_usb.c **** 
 1737              		.loc 1 664 1 is_stmt 0 view .LVU574
 1738 00b4 0020     		movs	r0, #0
 1739              	.LVL143:
 664:Drivers/STM32F4xx_HAL_Driver/Src/stm32f4xx_ll_usb.c **** 
 1740              		.loc 1 664 1 view .LVU575
 1741 00b6 30BC     		pop	{r4, r5}
 1742              	.LCFI22:
 1743              		.cfi_restore 5
 1744              		.cfi_restore 4
 1745              		.cfi_def_cfa_offset 0
 1746 00b8 7047     		bx	lr
 1747              	.L137:
 1748 00ba 00BF     		.align	2
 1749              	.L136:
 1750 00bc 0078F3EF 		.word	-269256704
 1751 00c0 007833EC 		.word	-332171264
 1752              		.cfi_endproc
 1753              	.LFE142:
 1755              		.section	.text.USB_DeactivateDedicatedEndpoint,"ax",%progbits
 1756              		.align	1
 1757              		.p2align 2,,3
 1758              		.global	USB_DeactivateDedicatedEndpoint
 1759              		.syntax unified
 1760              		.thumb
 1761              		.thumb_func
 1762              		.fpu fpv4-sp-d16
 1764              	USB_DeactivateDedicatedEndpoint:
 1765              	.LVL144:
 1766              	.LFB143:
 673:Drivers/STM32F4xx_HAL_Driver/Src/stm32f4xx_ll_usb.c ****   uint32_t USBx_BASE = (uint32_t)USBx;
 1767              		.loc 1 673 1 is_stmt 1 view -0
 1768              		.cfi_startproc
 1769              		@ args = 0, pretend = 0, frame = 0
 1770              		@ frame_needed = 0, uses_anonymous_args = 0
 1771              		@ link register save eliminated.
 674:Drivers/STM32F4xx_HAL_Driver/Src/stm32f4xx_ll_usb.c ****   uint32_t epnum = (uint32_t)ep->num;
 1772              		.loc 1 674 3 view .LVU577
 678:Drivers/STM32F4xx_HAL_Driver/Src/stm32f4xx_ll_usb.c ****   {
 1773              		.loc 1 678 6 is_stmt 0 view .LVU578
 1774 0000 4A78     		ldrb	r2, [r1, #1]	@ zero_extendqisi2
 675:Drivers/STM32F4xx_HAL_Driver/Src/stm32f4xx_ll_usb.c **** 
 1775              		.loc 1 675 32 view .LVU579
 1776 0002 0B78     		ldrb	r3, [r1]	@ zero_extendqisi2
 1777              	.LVL145:
ARM GAS  /tmp/ccDzXOxq.s 			page 65


 675:Drivers/STM32F4xx_HAL_Driver/Src/stm32f4xx_ll_usb.c **** 
 1778              		.loc 1 675 3 is_stmt 1 view .LVU580
 678:Drivers/STM32F4xx_HAL_Driver/Src/stm32f4xx_ll_usb.c ****   {
 1779              		.loc 1 678 3 view .LVU581
 678:Drivers/STM32F4xx_HAL_Driver/Src/stm32f4xx_ll_usb.c ****   {
 1780              		.loc 1 678 6 is_stmt 0 view .LVU582
 1781 0004 012A     		cmp	r2, #1
 680:Drivers/STM32F4xx_HAL_Driver/Src/stm32f4xx_ll_usb.c ****     {
 1782              		.loc 1 680 10 view .LVU583
 1783 0006 00EB4312 		add	r2, r0, r3, lsl #5
 678:Drivers/STM32F4xx_HAL_Driver/Src/stm32f4xx_ll_usb.c ****   {
 1784              		.loc 1 678 6 view .LVU584
 1785 000a 24D0     		beq	.L144
 691:Drivers/STM32F4xx_HAL_Driver/Src/stm32f4xx_ll_usb.c ****     {
 1786              		.loc 1 691 5 is_stmt 1 view .LVU585
 691:Drivers/STM32F4xx_HAL_Driver/Src/stm32f4xx_ll_usb.c ****     {
 1787              		.loc 1 691 27 is_stmt 0 view .LVU586
 1788 000c D2F8001B 		ldr	r1, [r2, #2816]
 1789              	.LVL146:
 691:Drivers/STM32F4xx_HAL_Driver/Src/stm32f4xx_ll_usb.c ****     {
 1790              		.loc 1 691 8 view .LVU587
 1791 0010 0029     		cmp	r1, #0
 1792 0012 13DB     		blt	.L145
 1793              	.L142:
 697:Drivers/STM32F4xx_HAL_Driver/Src/stm32f4xx_ll_usb.c ****     USBx_DEVICE->DAINTMSK &= ~(USB_OTG_DAINTMSK_OEPM & ((uint32_t)(1UL << (ep->num & EP_ADDR_MSK)) 
 1794              		.loc 1 697 5 is_stmt 1 view .LVU588
 697:Drivers/STM32F4xx_HAL_Driver/Src/stm32f4xx_ll_usb.c ****     USBx_DEVICE->DAINTMSK &= ~(USB_OTG_DAINTMSK_OEPM & ((uint32_t)(1UL << (ep->num & EP_ADDR_MSK)) 
 1795              		.loc 1 697 32 is_stmt 0 view .LVU589
 1796 0014 D2F8001B 		ldr	r1, [r2, #2816]
 1797 0018 21F40041 		bic	r1, r1, #32768
 1798 001c C2F8001B 		str	r1, [r2, #2816]
 698:Drivers/STM32F4xx_HAL_Driver/Src/stm32f4xx_ll_usb.c ****   }
 1799              		.loc 1 698 5 is_stmt 1 view .LVU590
 698:Drivers/STM32F4xx_HAL_Driver/Src/stm32f4xx_ll_usb.c ****   }
 1800              		.loc 1 698 84 is_stmt 0 view .LVU591
 1801 0020 03F00F03 		and	r3, r3, #15
 1802              	.LVL147:
 698:Drivers/STM32F4xx_HAL_Driver/Src/stm32f4xx_ll_usb.c ****   }
 1803              		.loc 1 698 57 view .LVU592
 1804 0024 4FF48031 		mov	r1, #65536
 1805              	.L143:
 698:Drivers/STM32F4xx_HAL_Driver/Src/stm32f4xx_ll_usb.c ****   }
 1806              		.loc 1 698 27 view .LVU593
 1807 0028 D0F81C28 		ldr	r2, [r0, #2076]
 698:Drivers/STM32F4xx_HAL_Driver/Src/stm32f4xx_ll_usb.c ****   }
 1808              		.loc 1 698 54 view .LVU594
 1809 002c 01FA03F3 		lsl	r3, r1, r3
 698:Drivers/STM32F4xx_HAL_Driver/Src/stm32f4xx_ll_usb.c ****   }
 1810              		.loc 1 698 27 view .LVU595
 1811 0030 22EA0303 		bic	r3, r2, r3
 1812 0034 C0F81C38 		str	r3, [r0, #2076]
 701:Drivers/STM32F4xx_HAL_Driver/Src/stm32f4xx_ll_usb.c **** }
 1813              		.loc 1 701 3 is_stmt 1 view .LVU596
 702:Drivers/STM32F4xx_HAL_Driver/Src/stm32f4xx_ll_usb.c **** 
 1814              		.loc 1 702 1 is_stmt 0 view .LVU597
 1815 0038 0020     		movs	r0, #0
 1816              	.LVL148:
ARM GAS  /tmp/ccDzXOxq.s 			page 66


 702:Drivers/STM32F4xx_HAL_Driver/Src/stm32f4xx_ll_usb.c **** 
 1817              		.loc 1 702 1 view .LVU598
 1818 003a 7047     		bx	lr
 1819              	.LVL149:
 1820              	.L145:
 693:Drivers/STM32F4xx_HAL_Driver/Src/stm32f4xx_ll_usb.c ****       USBx_OUTEP(epnum)->DOEPCTL  |= USB_OTG_DOEPCTL_EPDIS;
 1821              		.loc 1 693 7 is_stmt 1 view .LVU599
 693:Drivers/STM32F4xx_HAL_Driver/Src/stm32f4xx_ll_usb.c ****       USBx_OUTEP(epnum)->DOEPCTL  |= USB_OTG_DOEPCTL_EPDIS;
 1822              		.loc 1 693 35 is_stmt 0 view .LVU600
 1823 003c D2F8001B 		ldr	r1, [r2, #2816]
 1824 0040 41F00061 		orr	r1, r1, #134217728
 1825 0044 C2F8001B 		str	r1, [r2, #2816]
 694:Drivers/STM32F4xx_HAL_Driver/Src/stm32f4xx_ll_usb.c ****     }
 1826              		.loc 1 694 7 is_stmt 1 view .LVU601
 694:Drivers/STM32F4xx_HAL_Driver/Src/stm32f4xx_ll_usb.c ****     }
 1827              		.loc 1 694 35 is_stmt 0 view .LVU602
 1828 0048 D2F8001B 		ldr	r1, [r2, #2816]
 1829 004c 41F08041 		orr	r1, r1, #1073741824
 1830 0050 C2F8001B 		str	r1, [r2, #2816]
 1831 0054 DEE7     		b	.L142
 1832              	.LVL150:
 1833              	.L144:
 680:Drivers/STM32F4xx_HAL_Driver/Src/stm32f4xx_ll_usb.c ****     {
 1834              		.loc 1 680 5 is_stmt 1 view .LVU603
 680:Drivers/STM32F4xx_HAL_Driver/Src/stm32f4xx_ll_usb.c ****     {
 1835              		.loc 1 680 26 is_stmt 0 view .LVU604
 1836 0056 D2F80019 		ldr	r1, [r2, #2304]
 1837              	.LVL151:
 680:Drivers/STM32F4xx_HAL_Driver/Src/stm32f4xx_ll_usb.c ****     {
 1838              		.loc 1 680 8 view .LVU605
 1839 005a 0029     		cmp	r1, #0
 1840 005c 0BDA     		bge	.L140
 682:Drivers/STM32F4xx_HAL_Driver/Src/stm32f4xx_ll_usb.c ****       USBx_INEP(epnum)->DIEPCTL  |= USB_OTG_DIEPCTL_EPDIS;
 1841              		.loc 1 682 7 is_stmt 1 view .LVU606
 682:Drivers/STM32F4xx_HAL_Driver/Src/stm32f4xx_ll_usb.c ****       USBx_INEP(epnum)->DIEPCTL  |= USB_OTG_DIEPCTL_EPDIS;
 1842              		.loc 1 682 34 is_stmt 0 view .LVU607
 1843 005e D2F80019 		ldr	r1, [r2, #2304]
 1844 0062 41F00061 		orr	r1, r1, #134217728
 1845 0066 C2F80019 		str	r1, [r2, #2304]
 683:Drivers/STM32F4xx_HAL_Driver/Src/stm32f4xx_ll_usb.c ****     }
 1846              		.loc 1 683 7 is_stmt 1 view .LVU608
 683:Drivers/STM32F4xx_HAL_Driver/Src/stm32f4xx_ll_usb.c ****     }
 1847              		.loc 1 683 34 is_stmt 0 view .LVU609
 1848 006a D2F80019 		ldr	r1, [r2, #2304]
 1849 006e 41F08041 		orr	r1, r1, #1073741824
 1850 0072 C2F80019 		str	r1, [r2, #2304]
 1851              	.L140:
 686:Drivers/STM32F4xx_HAL_Driver/Src/stm32f4xx_ll_usb.c ****     USBx_DEVICE->DAINTMSK &= ~(USB_OTG_DAINTMSK_IEPM & (uint32_t)(1UL << (ep->num & EP_ADDR_MSK)));
 1852              		.loc 1 686 5 is_stmt 1 view .LVU610
 686:Drivers/STM32F4xx_HAL_Driver/Src/stm32f4xx_ll_usb.c ****     USBx_DEVICE->DAINTMSK &= ~(USB_OTG_DAINTMSK_IEPM & (uint32_t)(1UL << (ep->num & EP_ADDR_MSK)));
 1853              		.loc 1 686 31 is_stmt 0 view .LVU611
 1854 0076 D2F80019 		ldr	r1, [r2, #2304]
 1855 007a 21F40041 		bic	r1, r1, #32768
 1856 007e C2F80019 		str	r1, [r2, #2304]
 687:Drivers/STM32F4xx_HAL_Driver/Src/stm32f4xx_ll_usb.c ****   }
 1857              		.loc 1 687 5 is_stmt 1 view .LVU612
 687:Drivers/STM32F4xx_HAL_Driver/Src/stm32f4xx_ll_usb.c ****   }
ARM GAS  /tmp/ccDzXOxq.s 			page 67


 1858              		.loc 1 687 83 is_stmt 0 view .LVU613
 1859 0082 03F00F03 		and	r3, r3, #15
 1860              	.LVL152:
 687:Drivers/STM32F4xx_HAL_Driver/Src/stm32f4xx_ll_usb.c ****   }
 1861              		.loc 1 687 56 view .LVU614
 1862 0086 0121     		movs	r1, #1
 1863 0088 CEE7     		b	.L143
 1864              		.cfi_endproc
 1865              	.LFE143:
 1867 008a 00BF     		.section	.text.USB_EPStartXfer,"ax",%progbits
 1868              		.align	1
 1869              		.p2align 2,,3
 1870              		.global	USB_EPStartXfer
 1871              		.syntax unified
 1872              		.thumb
 1873              		.thumb_func
 1874              		.fpu fpv4-sp-d16
 1876              	USB_EPStartXfer:
 1877              	.LVL153:
 1878              	.LFB144:
 715:Drivers/STM32F4xx_HAL_Driver/Src/stm32f4xx_ll_usb.c ****   uint32_t USBx_BASE = (uint32_t)USBx;
 1879              		.loc 1 715 1 is_stmt 1 view -0
 1880              		.cfi_startproc
 1881              		@ args = 0, pretend = 0, frame = 0
 1882              		@ frame_needed = 0, uses_anonymous_args = 0
 716:Drivers/STM32F4xx_HAL_Driver/Src/stm32f4xx_ll_usb.c ****   uint32_t epnum = (uint32_t)ep->num;
 1883              		.loc 1 716 3 view .LVU616
 715:Drivers/STM32F4xx_HAL_Driver/Src/stm32f4xx_ll_usb.c ****   uint32_t USBx_BASE = (uint32_t)USBx;
 1884              		.loc 1 715 1 is_stmt 0 view .LVU617
 1885 0000 2DE9F043 		push	{r4, r5, r6, r7, r8, r9, lr}
 1886              	.LCFI23:
 1887              		.cfi_def_cfa_offset 28
 1888              		.cfi_offset 4, -28
 1889              		.cfi_offset 5, -24
 1890              		.cfi_offset 6, -20
 1891              		.cfi_offset 7, -16
 1892              		.cfi_offset 8, -12
 1893              		.cfi_offset 9, -8
 1894              		.cfi_offset 14, -4
 721:Drivers/STM32F4xx_HAL_Driver/Src/stm32f4xx_ll_usb.c ****   {
 1895              		.loc 1 721 6 view .LVU618
 1896 0004 4D78     		ldrb	r5, [r1, #1]	@ zero_extendqisi2
 717:Drivers/STM32F4xx_HAL_Driver/Src/stm32f4xx_ll_usb.c ****   uint16_t pktcnt;
 1897              		.loc 1 717 32 view .LVU619
 1898 0006 0C78     		ldrb	r4, [r1]	@ zero_extendqisi2
 1899              	.LVL154:
 717:Drivers/STM32F4xx_HAL_Driver/Src/stm32f4xx_ll_usb.c ****   uint16_t pktcnt;
 1900              		.loc 1 717 3 is_stmt 1 view .LVU620
 718:Drivers/STM32F4xx_HAL_Driver/Src/stm32f4xx_ll_usb.c **** 
 1901              		.loc 1 718 3 view .LVU621
 721:Drivers/STM32F4xx_HAL_Driver/Src/stm32f4xx_ll_usb.c ****   {
 1902              		.loc 1 721 3 view .LVU622
 721:Drivers/STM32F4xx_HAL_Driver/Src/stm32f4xx_ll_usb.c ****   {
 1903              		.loc 1 721 6 is_stmt 0 view .LVU623
 1904 0008 012D     		cmp	r5, #1
 1905 000a 53D0     		beq	.L191
 805:Drivers/STM32F4xx_HAL_Driver/Src/stm32f4xx_ll_usb.c ****     USBx_OUTEP(epnum)->DOEPTSIZ &= ~(USB_OTG_DOEPTSIZ_PKTCNT);
ARM GAS  /tmp/ccDzXOxq.s 			page 68


 1906              		.loc 1 805 5 is_stmt 1 view .LVU624
 805:Drivers/STM32F4xx_HAL_Driver/Src/stm32f4xx_ll_usb.c ****     USBx_OUTEP(epnum)->DOEPTSIZ &= ~(USB_OTG_DOEPTSIZ_PKTCNT);
 1907              		.loc 1 805 33 is_stmt 0 view .LVU625
 1908 000c 00EB4414 		add	r4, r0, r4, lsl #5
 1909              	.LVL155:
 808:Drivers/STM32F4xx_HAL_Driver/Src/stm32f4xx_ll_usb.c ****     {
 1910              		.loc 1 808 11 view .LVU626
 1911 0010 4D69     		ldr	r5, [r1, #20]
 805:Drivers/STM32F4xx_HAL_Driver/Src/stm32f4xx_ll_usb.c ****     USBx_OUTEP(epnum)->DOEPTSIZ &= ~(USB_OTG_DOEPTSIZ_PKTCNT);
 1912              		.loc 1 805 33 view .LVU627
 1913 0012 D4F8106B 		ldr	r6, [r4, #2832]
 1914 0016 F60C     		lsrs	r6, r6, #19
 1915 0018 F604     		lsls	r6, r6, #19
 1916 001a C4F8106B 		str	r6, [r4, #2832]
 1917              	.LVL156:
 806:Drivers/STM32F4xx_HAL_Driver/Src/stm32f4xx_ll_usb.c **** 
 1918              		.loc 1 806 5 is_stmt 1 view .LVU628
 806:Drivers/STM32F4xx_HAL_Driver/Src/stm32f4xx_ll_usb.c **** 
 1919              		.loc 1 806 33 is_stmt 0 view .LVU629
 1920 001e D4F8106B 		ldr	r6, [r4, #2832]
 1921 0022 26F0FF56 		bic	r6, r6, #534773760
 1922 0026 26F4C016 		bic	r6, r6, #1572864
 805:Drivers/STM32F4xx_HAL_Driver/Src/stm32f4xx_ll_usb.c ****     USBx_OUTEP(epnum)->DOEPTSIZ &= ~(USB_OTG_DOEPTSIZ_PKTCNT);
 1923              		.loc 1 805 33 view .LVU630
 1924 002a 04F53063 		add	r3, r4, #2816
 806:Drivers/STM32F4xx_HAL_Driver/Src/stm32f4xx_ll_usb.c **** 
 1925              		.loc 1 806 33 view .LVU631
 1926 002e 1E61     		str	r6, [r3, #16]
 808:Drivers/STM32F4xx_HAL_Driver/Src/stm32f4xx_ll_usb.c ****     {
 1927              		.loc 1 808 5 is_stmt 1 view .LVU632
 808:Drivers/STM32F4xx_HAL_Driver/Src/stm32f4xx_ll_usb.c ****     {
 1928              		.loc 1 808 8 is_stmt 0 view .LVU633
 1929 0030 7DB3     		cbz	r5, .L192
 815:Drivers/STM32F4xx_HAL_Driver/Src/stm32f4xx_ll_usb.c ****       USBx_OUTEP(epnum)->DOEPTSIZ |= USB_OTG_DOEPTSIZ_PKTCNT & ((uint32_t)pktcnt << 19);
 1930              		.loc 1 815 7 is_stmt 1 view .LVU634
 815:Drivers/STM32F4xx_HAL_Driver/Src/stm32f4xx_ll_usb.c ****       USBx_OUTEP(epnum)->DOEPTSIZ |= USB_OTG_DOEPTSIZ_PKTCNT & ((uint32_t)pktcnt << 19);
 1931              		.loc 1 815 45 is_stmt 0 view .LVU635
 1932 0032 8E68     		ldr	r6, [r1, #8]
 816:Drivers/STM32F4xx_HAL_Driver/Src/stm32f4xx_ll_usb.c ****       USBx_OUTEP(epnum)->DOEPTSIZ |= USB_OTG_DOEPTSIZ_XFRSIZ & (ep->maxpacket * pktcnt);
 1933              		.loc 1 816 62 view .LVU636
 1934 0034 7C4F     		ldr	r7, .L199
 816:Drivers/STM32F4xx_HAL_Driver/Src/stm32f4xx_ll_usb.c ****       USBx_OUTEP(epnum)->DOEPTSIZ |= USB_OTG_DOEPTSIZ_XFRSIZ & (ep->maxpacket * pktcnt);
 1935              		.loc 1 816 35 view .LVU637
 1936 0036 D3F810C0 		ldr	ip, [r3, #16]
 815:Drivers/STM32F4xx_HAL_Driver/Src/stm32f4xx_ll_usb.c ****       USBx_OUTEP(epnum)->DOEPTSIZ |= USB_OTG_DOEPTSIZ_PKTCNT & ((uint32_t)pktcnt << 19);
 1937              		.loc 1 815 41 view .LVU638
 1938 003a 3544     		add	r5, r5, r6
 815:Drivers/STM32F4xx_HAL_Driver/Src/stm32f4xx_ll_usb.c ****       USBx_OUTEP(epnum)->DOEPTSIZ |= USB_OTG_DOEPTSIZ_PKTCNT & ((uint32_t)pktcnt << 19);
 1939              		.loc 1 815 57 view .LVU639
 1940 003c 013D     		subs	r5, r5, #1
 815:Drivers/STM32F4xx_HAL_Driver/Src/stm32f4xx_ll_usb.c ****       USBx_OUTEP(epnum)->DOEPTSIZ |= USB_OTG_DOEPTSIZ_PKTCNT & ((uint32_t)pktcnt << 19);
 1941              		.loc 1 815 63 view .LVU640
 1942 003e B5FBF6F5 		udiv	r5, r5, r6
 1943              	.LVL157:
 816:Drivers/STM32F4xx_HAL_Driver/Src/stm32f4xx_ll_usb.c ****       USBx_OUTEP(epnum)->DOEPTSIZ |= USB_OTG_DOEPTSIZ_XFRSIZ & (ep->maxpacket * pktcnt);
 1944              		.loc 1 816 7 is_stmt 1 view .LVU641
 816:Drivers/STM32F4xx_HAL_Driver/Src/stm32f4xx_ll_usb.c ****       USBx_OUTEP(epnum)->DOEPTSIZ |= USB_OTG_DOEPTSIZ_XFRSIZ & (ep->maxpacket * pktcnt);
ARM GAS  /tmp/ccDzXOxq.s 			page 69


 1945              		.loc 1 816 62 is_stmt 0 view .LVU642
 1946 0042 07EAC547 		and	r7, r7, r5, lsl #19
 816:Drivers/STM32F4xx_HAL_Driver/Src/stm32f4xx_ll_usb.c ****       USBx_OUTEP(epnum)->DOEPTSIZ |= USB_OTG_DOEPTSIZ_XFRSIZ & (ep->maxpacket * pktcnt);
 1947              		.loc 1 816 35 view .LVU643
 1948 0046 47EA0C07 		orr	r7, r7, ip
 1949 004a 1F61     		str	r7, [r3, #16]
 817:Drivers/STM32F4xx_HAL_Driver/Src/stm32f4xx_ll_usb.c ****     }
 1950              		.loc 1 817 7 is_stmt 1 view .LVU644
 817:Drivers/STM32F4xx_HAL_Driver/Src/stm32f4xx_ll_usb.c ****     }
 1951              		.loc 1 817 79 is_stmt 0 view .LVU645
 1952 004c ADB2     		uxth	r5, r5
 817:Drivers/STM32F4xx_HAL_Driver/Src/stm32f4xx_ll_usb.c ****     }
 1953              		.loc 1 817 79 view .LVU646
 1954 004e 06FB05F5 		mul	r5, r6, r5
 1955              	.LVL158:
 817:Drivers/STM32F4xx_HAL_Driver/Src/stm32f4xx_ll_usb.c ****     }
 1956              		.loc 1 817 35 view .LVU647
 1957 0052 1E69     		ldr	r6, [r3, #16]
 1958              	.LVL159:
 817:Drivers/STM32F4xx_HAL_Driver/Src/stm32f4xx_ll_usb.c ****     }
 1959              		.loc 1 817 62 view .LVU648
 1960 0054 C5F31205 		ubfx	r5, r5, #0, #19
 817:Drivers/STM32F4xx_HAL_Driver/Src/stm32f4xx_ll_usb.c ****     }
 1961              		.loc 1 817 35 view .LVU649
 1962 0058 3543     		orrs	r5, r5, r6
 820:Drivers/STM32F4xx_HAL_Driver/Src/stm32f4xx_ll_usb.c ****     {
 1963              		.loc 1 820 8 view .LVU650
 1964 005a 012A     		cmp	r2, #1
 817:Drivers/STM32F4xx_HAL_Driver/Src/stm32f4xx_ll_usb.c ****     }
 1965              		.loc 1 817 35 view .LVU651
 1966 005c 1D61     		str	r5, [r3, #16]
 1967              	.LVL160:
 820:Drivers/STM32F4xx_HAL_Driver/Src/stm32f4xx_ll_usb.c ****     {
 1968              		.loc 1 820 5 is_stmt 1 view .LVU652
 820:Drivers/STM32F4xx_HAL_Driver/Src/stm32f4xx_ll_usb.c ****     {
 1969              		.loc 1 820 8 is_stmt 0 view .LVU653
 1970 005e 24D0     		beq	.L193
 1971              	.LVL161:
 1972              	.L165:
 828:Drivers/STM32F4xx_HAL_Driver/Src/stm32f4xx_ll_usb.c ****     {
 1973              		.loc 1 828 5 is_stmt 1 view .LVU654
 828:Drivers/STM32F4xx_HAL_Driver/Src/stm32f4xx_ll_usb.c ****     {
 1974              		.loc 1 828 8 is_stmt 0 view .LVU655
 1975 0060 CB78     		ldrb	r3, [r1, #3]	@ zero_extendqisi2
 1976 0062 012B     		cmp	r3, #1
 1977 0064 0CD1     		bne	.L166
 830:Drivers/STM32F4xx_HAL_Driver/Src/stm32f4xx_ll_usb.c ****       {
 1978              		.loc 1 830 7 is_stmt 1 view .LVU656
 830:Drivers/STM32F4xx_HAL_Driver/Src/stm32f4xx_ll_usb.c ****       {
 1979              		.loc 1 830 23 is_stmt 0 view .LVU657
 1980 0066 D0F80838 		ldr	r3, [r0, #2056]
 830:Drivers/STM32F4xx_HAL_Driver/Src/stm32f4xx_ll_usb.c ****       {
 1981              		.loc 1 830 10 view .LVU658
 1982 006a 13F4807F 		tst	r3, #256
 832:Drivers/STM32F4xx_HAL_Driver/Src/stm32f4xx_ll_usb.c ****       }
 1983              		.loc 1 832 36 view .LVU659
 1984 006e D4F8003B 		ldr	r3, [r4, #2816]
ARM GAS  /tmp/ccDzXOxq.s 			page 70


 832:Drivers/STM32F4xx_HAL_Driver/Src/stm32f4xx_ll_usb.c ****       }
 1985              		.loc 1 832 9 is_stmt 1 view .LVU660
 832:Drivers/STM32F4xx_HAL_Driver/Src/stm32f4xx_ll_usb.c ****       }
 1986              		.loc 1 832 36 is_stmt 0 view .LVU661
 1987 0072 0CBF     		ite	eq
 1988 0074 43F00053 		orreq	r3, r3, #536870912
 836:Drivers/STM32F4xx_HAL_Driver/Src/stm32f4xx_ll_usb.c ****       }
 1989              		.loc 1 836 9 is_stmt 1 view .LVU662
 836:Drivers/STM32F4xx_HAL_Driver/Src/stm32f4xx_ll_usb.c ****       }
 1990              		.loc 1 836 36 is_stmt 0 view .LVU663
 1991 0078 43F08053 		orrne	r3, r3, #268435456
 1992 007c C4F8003B 		str	r3, [r4, #2816]
 1993              	.L166:
 840:Drivers/STM32F4xx_HAL_Driver/Src/stm32f4xx_ll_usb.c ****   }
 1994              		.loc 1 840 5 is_stmt 1 view .LVU664
 840:Drivers/STM32F4xx_HAL_Driver/Src/stm32f4xx_ll_usb.c ****   }
 1995              		.loc 1 840 32 is_stmt 0 view .LVU665
 1996 0080 D4F8003B 		ldr	r3, [r4, #2816]
 1997 0084 43F00443 		orr	r3, r3, #-2080374784
 1998 0088 C4F8003B 		str	r3, [r4, #2816]
 1999              	.LVL162:
 2000              	.L181:
 844:Drivers/STM32F4xx_HAL_Driver/Src/stm32f4xx_ll_usb.c **** 
 2001              		.loc 1 844 1 view .LVU666
 2002 008c 0020     		movs	r0, #0
 2003 008e BDE8F083 		pop	{r4, r5, r6, r7, r8, r9, pc}
 2004              	.LVL163:
 2005              	.L192:
 810:Drivers/STM32F4xx_HAL_Driver/Src/stm32f4xx_ll_usb.c ****       USBx_OUTEP(epnum)->DOEPTSIZ |= (USB_OTG_DOEPTSIZ_PKTCNT & (1U << 19));
 2006              		.loc 1 810 7 is_stmt 1 view .LVU667
 810:Drivers/STM32F4xx_HAL_Driver/Src/stm32f4xx_ll_usb.c ****       USBx_OUTEP(epnum)->DOEPTSIZ |= (USB_OTG_DOEPTSIZ_PKTCNT & (1U << 19));
 2007              		.loc 1 810 63 is_stmt 0 view .LVU668
 2008 0092 8D68     		ldr	r5, [r1, #8]
 810:Drivers/STM32F4xx_HAL_Driver/Src/stm32f4xx_ll_usb.c ****       USBx_OUTEP(epnum)->DOEPTSIZ |= (USB_OTG_DOEPTSIZ_PKTCNT & (1U << 19));
 2009              		.loc 1 810 35 view .LVU669
 2010 0094 1E69     		ldr	r6, [r3, #16]
 810:Drivers/STM32F4xx_HAL_Driver/Src/stm32f4xx_ll_usb.c ****       USBx_OUTEP(epnum)->DOEPTSIZ |= (USB_OTG_DOEPTSIZ_PKTCNT & (1U << 19));
 2011              		.loc 1 810 63 view .LVU670
 2012 0096 C5F31205 		ubfx	r5, r5, #0, #19
 810:Drivers/STM32F4xx_HAL_Driver/Src/stm32f4xx_ll_usb.c ****       USBx_OUTEP(epnum)->DOEPTSIZ |= (USB_OTG_DOEPTSIZ_PKTCNT & (1U << 19));
 2013              		.loc 1 810 35 view .LVU671
 2014 009a 3543     		orrs	r5, r5, r6
 2015 009c 1D61     		str	r5, [r3, #16]
 811:Drivers/STM32F4xx_HAL_Driver/Src/stm32f4xx_ll_usb.c ****     }
 2016              		.loc 1 811 7 is_stmt 1 view .LVU672
 811:Drivers/STM32F4xx_HAL_Driver/Src/stm32f4xx_ll_usb.c ****     }
 2017              		.loc 1 811 35 is_stmt 0 view .LVU673
 2018 009e 1D69     		ldr	r5, [r3, #16]
 820:Drivers/STM32F4xx_HAL_Driver/Src/stm32f4xx_ll_usb.c ****     {
 2019              		.loc 1 820 8 view .LVU674
 2020 00a0 012A     		cmp	r2, #1
 811:Drivers/STM32F4xx_HAL_Driver/Src/stm32f4xx_ll_usb.c ****     }
 2021              		.loc 1 811 35 view .LVU675
 2022 00a2 45F40025 		orr	r5, r5, #524288
 2023 00a6 1D61     		str	r5, [r3, #16]
 820:Drivers/STM32F4xx_HAL_Driver/Src/stm32f4xx_ll_usb.c ****     {
 2024              		.loc 1 820 5 is_stmt 1 view .LVU676
ARM GAS  /tmp/ccDzXOxq.s 			page 71


 820:Drivers/STM32F4xx_HAL_Driver/Src/stm32f4xx_ll_usb.c ****     {
 2025              		.loc 1 820 8 is_stmt 0 view .LVU677
 2026 00a8 DAD1     		bne	.L165
 2027              	.L193:
 822:Drivers/STM32F4xx_HAL_Driver/Src/stm32f4xx_ll_usb.c ****       {
 2028              		.loc 1 822 7 is_stmt 1 view .LVU678
 822:Drivers/STM32F4xx_HAL_Driver/Src/stm32f4xx_ll_usb.c ****       {
 2029              		.loc 1 822 23 is_stmt 0 view .LVU679
 2030 00aa CA68     		ldr	r2, [r1, #12]
 2031              	.LVL164:
 822:Drivers/STM32F4xx_HAL_Driver/Src/stm32f4xx_ll_usb.c ****       {
 2032              		.loc 1 822 10 view .LVU680
 2033 00ac 002A     		cmp	r2, #0
 2034 00ae D7D0     		beq	.L165
 824:Drivers/STM32F4xx_HAL_Driver/Src/stm32f4xx_ll_usb.c ****       }
 2035              		.loc 1 824 9 is_stmt 1 view .LVU681
 824:Drivers/STM32F4xx_HAL_Driver/Src/stm32f4xx_ll_usb.c ****       }
 2036              		.loc 1 824 36 is_stmt 0 view .LVU682
 2037 00b0 5A61     		str	r2, [r3, #20]
 2038 00b2 D5E7     		b	.L165
 2039              	.LVL165:
 2040              	.L191:
 724:Drivers/STM32F4xx_HAL_Driver/Src/stm32f4xx_ll_usb.c ****     {
 2041              		.loc 1 724 5 is_stmt 1 view .LVU683
 724:Drivers/STM32F4xx_HAL_Driver/Src/stm32f4xx_ll_usb.c ****     {
 2042              		.loc 1 724 11 is_stmt 0 view .LVU684
 2043 00b4 4E69     		ldr	r6, [r1, #20]
 724:Drivers/STM32F4xx_HAL_Driver/Src/stm32f4xx_ll_usb.c ****     {
 2044              		.loc 1 724 8 view .LVU685
 2045 00b6 002E     		cmp	r6, #0
 2046 00b8 40D0     		beq	.L194
 737:Drivers/STM32F4xx_HAL_Driver/Src/stm32f4xx_ll_usb.c ****       USBx_INEP(epnum)->DIEPTSIZ &= ~(USB_OTG_DIEPTSIZ_PKTCNT);
 2047              		.loc 1 737 7 is_stmt 1 view .LVU686
 737:Drivers/STM32F4xx_HAL_Driver/Src/stm32f4xx_ll_usb.c ****       USBx_INEP(epnum)->DIEPTSIZ &= ~(USB_OTG_DIEPTSIZ_PKTCNT);
 2048              		.loc 1 737 34 is_stmt 0 view .LVU687
 2049 00ba 00EB441E 		add	lr, r0, r4, lsl #5
 739:Drivers/STM32F4xx_HAL_Driver/Src/stm32f4xx_ll_usb.c ****       USBx_INEP(epnum)->DIEPTSIZ |= (USB_OTG_DIEPTSIZ_XFRSIZ & ep->xfer_len);
 2050              		.loc 1 739 84 view .LVU688
 2051 00be D1F80890 		ldr	r9, [r1, #8]
 737:Drivers/STM32F4xx_HAL_Driver/Src/stm32f4xx_ll_usb.c ****       USBx_INEP(epnum)->DIEPTSIZ &= ~(USB_OTG_DIEPTSIZ_PKTCNT);
 2052              		.loc 1 737 34 view .LVU689
 2053 00c2 DEF810C9 		ldr	ip, [lr, #2320]
 739:Drivers/STM32F4xx_HAL_Driver/Src/stm32f4xx_ll_usb.c ****       USBx_INEP(epnum)->DIEPTSIZ |= (USB_OTG_DIEPTSIZ_XFRSIZ & ep->xfer_len);
 2054              		.loc 1 739 62 view .LVU690
 2055 00c6 584F     		ldr	r7, .L199
 737:Drivers/STM32F4xx_HAL_Driver/Src/stm32f4xx_ll_usb.c ****       USBx_INEP(epnum)->DIEPTSIZ &= ~(USB_OTG_DIEPTSIZ_PKTCNT);
 2056              		.loc 1 737 34 view .LVU691
 2057 00c8 4FEADC4C 		lsr	ip, ip, #19
 2058 00cc 4FEACC4C 		lsl	ip, ip, #19
 2059 00d0 CEF810C9 		str	ip, [lr, #2320]
 738:Drivers/STM32F4xx_HAL_Driver/Src/stm32f4xx_ll_usb.c ****       USBx_INEP(epnum)->DIEPTSIZ |= (USB_OTG_DIEPTSIZ_PKTCNT & (((ep->xfer_len + ep->maxpacket - 1U
 2060              		.loc 1 738 7 is_stmt 1 view .LVU692
 738:Drivers/STM32F4xx_HAL_Driver/Src/stm32f4xx_ll_usb.c ****       USBx_INEP(epnum)->DIEPTSIZ |= (USB_OTG_DIEPTSIZ_PKTCNT & (((ep->xfer_len + ep->maxpacket - 1U
 2061              		.loc 1 738 34 is_stmt 0 view .LVU693
 2062 00d4 DEF81089 		ldr	r8, [lr, #2320]
 2063 00d8 28F0FF58 		bic	r8, r8, #534773760
 2064 00dc 28F4C018 		bic	r8, r8, #1572864
ARM GAS  /tmp/ccDzXOxq.s 			page 72


 2065 00e0 CEF81089 		str	r8, [lr, #2320]
 739:Drivers/STM32F4xx_HAL_Driver/Src/stm32f4xx_ll_usb.c ****       USBx_INEP(epnum)->DIEPTSIZ |= (USB_OTG_DIEPTSIZ_XFRSIZ & ep->xfer_len);
 2066              		.loc 1 739 7 is_stmt 1 view .LVU694
 739:Drivers/STM32F4xx_HAL_Driver/Src/stm32f4xx_ll_usb.c ****       USBx_INEP(epnum)->DIEPTSIZ |= (USB_OTG_DIEPTSIZ_XFRSIZ & ep->xfer_len);
 2067              		.loc 1 739 34 is_stmt 0 view .LVU695
 2068 00e4 DEF81089 		ldr	r8, [lr, #2320]
 739:Drivers/STM32F4xx_HAL_Driver/Src/stm32f4xx_ll_usb.c ****       USBx_INEP(epnum)->DIEPTSIZ |= (USB_OTG_DIEPTSIZ_XFRSIZ & ep->xfer_len);
 2069              		.loc 1 739 80 view .LVU696
 2070 00e8 06EB090C 		add	ip, r6, r9
 739:Drivers/STM32F4xx_HAL_Driver/Src/stm32f4xx_ll_usb.c ****       USBx_INEP(epnum)->DIEPTSIZ |= (USB_OTG_DIEPTSIZ_XFRSIZ & ep->xfer_len);
 2071              		.loc 1 739 96 view .LVU697
 2072 00ec 0CF1FF3C 		add	ip, ip, #-1
 739:Drivers/STM32F4xx_HAL_Driver/Src/stm32f4xx_ll_usb.c ****       USBx_INEP(epnum)->DIEPTSIZ |= (USB_OTG_DIEPTSIZ_XFRSIZ & ep->xfer_len);
 2073              		.loc 1 739 102 view .LVU698
 2074 00f0 BCFBF9FC 		udiv	ip, ip, r9
 739:Drivers/STM32F4xx_HAL_Driver/Src/stm32f4xx_ll_usb.c ****       USBx_INEP(epnum)->DIEPTSIZ |= (USB_OTG_DIEPTSIZ_XFRSIZ & ep->xfer_len);
 2075              		.loc 1 739 62 view .LVU699
 2076 00f4 07EACC47 		and	r7, r7, ip, lsl #19
 739:Drivers/STM32F4xx_HAL_Driver/Src/stm32f4xx_ll_usb.c ****       USBx_INEP(epnum)->DIEPTSIZ |= (USB_OTG_DIEPTSIZ_XFRSIZ & ep->xfer_len);
 2077              		.loc 1 739 34 view .LVU700
 2078 00f8 47EA0807 		orr	r7, r7, r8
 2079 00fc CEF81079 		str	r7, [lr, #2320]
 740:Drivers/STM32F4xx_HAL_Driver/Src/stm32f4xx_ll_usb.c **** 
 2080              		.loc 1 740 7 is_stmt 1 view .LVU701
 740:Drivers/STM32F4xx_HAL_Driver/Src/stm32f4xx_ll_usb.c **** 
 2081              		.loc 1 740 34 is_stmt 0 view .LVU702
 2082 0100 DEF810C9 		ldr	ip, [lr, #2320]
 740:Drivers/STM32F4xx_HAL_Driver/Src/stm32f4xx_ll_usb.c **** 
 2083              		.loc 1 740 62 view .LVU703
 2084 0104 C6F31207 		ubfx	r7, r6, #0, #19
 740:Drivers/STM32F4xx_HAL_Driver/Src/stm32f4xx_ll_usb.c **** 
 2085              		.loc 1 740 34 view .LVU704
 2086 0108 47EA0C07 		orr	r7, r7, ip
 2087 010c CEF81079 		str	r7, [lr, #2320]
 742:Drivers/STM32F4xx_HAL_Driver/Src/stm32f4xx_ll_usb.c ****       {
 2088              		.loc 1 742 7 is_stmt 1 view .LVU705
 742:Drivers/STM32F4xx_HAL_Driver/Src/stm32f4xx_ll_usb.c ****       {
 2089              		.loc 1 742 13 is_stmt 0 view .LVU706
 2090 0110 CF78     		ldrb	r7, [r1, #3]	@ zero_extendqisi2
 742:Drivers/STM32F4xx_HAL_Driver/Src/stm32f4xx_ll_usb.c ****       {
 2091              		.loc 1 742 10 view .LVU707
 2092 0112 012F     		cmp	r7, #1
 737:Drivers/STM32F4xx_HAL_Driver/Src/stm32f4xx_ll_usb.c ****       USBx_INEP(epnum)->DIEPTSIZ &= ~(USB_OTG_DIEPTSIZ_PKTCNT);
 2093              		.loc 1 737 34 view .LVU708
 2094 0114 0EF51063 		add	r3, lr, #2304
 742:Drivers/STM32F4xx_HAL_Driver/Src/stm32f4xx_ll_usb.c ****       {
 2095              		.loc 1 742 10 view .LVU709
 2096 0118 55D0     		beq	.L195
 749:Drivers/STM32F4xx_HAL_Driver/Src/stm32f4xx_ll_usb.c ****     {
 2097              		.loc 1 749 5 is_stmt 1 view .LVU710
 749:Drivers/STM32F4xx_HAL_Driver/Src/stm32f4xx_ll_usb.c ****     {
 2098              		.loc 1 749 8 is_stmt 0 view .LVU711
 2099 011a 012A     		cmp	r2, #1
 2100 011c 6FD0     		beq	.L196
 774:Drivers/STM32F4xx_HAL_Driver/Src/stm32f4xx_ll_usb.c **** 
 2101              		.loc 1 774 7 is_stmt 1 view .LVU712
 774:Drivers/STM32F4xx_HAL_Driver/Src/stm32f4xx_ll_usb.c **** 
ARM GAS  /tmp/ccDzXOxq.s 			page 73


 2102              		.loc 1 774 33 is_stmt 0 view .LVU713
 2103 011e DEF80039 		ldr	r3, [lr, #2304]
 2104 0122 43F00443 		orr	r3, r3, #-2080374784
 2105 0126 CEF80039 		str	r3, [lr, #2304]
 776:Drivers/STM32F4xx_HAL_Driver/Src/stm32f4xx_ll_usb.c ****       {
 2106              		.loc 1 776 7 is_stmt 1 view .LVU714
 781:Drivers/STM32F4xx_HAL_Driver/Src/stm32f4xx_ll_usb.c ****         }
 2107              		.loc 1 781 11 view .LVU715
 781:Drivers/STM32F4xx_HAL_Driver/Src/stm32f4xx_ll_usb.c ****         }
 2108              		.loc 1 781 35 is_stmt 0 view .LVU716
 2109 012a D0F83438 		ldr	r3, [r0, #2100]
 781:Drivers/STM32F4xx_HAL_Driver/Src/stm32f4xx_ll_usb.c ****         }
 2110              		.loc 1 781 54 view .LVU717
 2111 012e 04F00F04 		and	r4, r4, #15
 2112              	.LVL166:
 781:Drivers/STM32F4xx_HAL_Driver/Src/stm32f4xx_ll_usb.c ****         }
 2113              		.loc 1 781 42 view .LVU718
 2114 0132 A540     		lsls	r5, r5, r4
 781:Drivers/STM32F4xx_HAL_Driver/Src/stm32f4xx_ll_usb.c ****         }
 2115              		.loc 1 781 35 view .LVU719
 2116 0134 1D43     		orrs	r5, r5, r3
 2117 0136 C0F83458 		str	r5, [r0, #2100]
 843:Drivers/STM32F4xx_HAL_Driver/Src/stm32f4xx_ll_usb.c **** }
 2118              		.loc 1 843 3 is_stmt 1 view .LVU720
 843:Drivers/STM32F4xx_HAL_Driver/Src/stm32f4xx_ll_usb.c **** }
 2119              		.loc 1 843 10 is_stmt 0 view .LVU721
 2120 013a A7E7     		b	.L181
 2121              	.LVL167:
 2122              	.L194:
 726:Drivers/STM32F4xx_HAL_Driver/Src/stm32f4xx_ll_usb.c ****       USBx_INEP(epnum)->DIEPTSIZ |= (USB_OTG_DIEPTSIZ_PKTCNT & (1U << 19));
 2123              		.loc 1 726 7 is_stmt 1 view .LVU722
 726:Drivers/STM32F4xx_HAL_Driver/Src/stm32f4xx_ll_usb.c ****       USBx_INEP(epnum)->DIEPTSIZ |= (USB_OTG_DIEPTSIZ_PKTCNT & (1U << 19));
 2124              		.loc 1 726 34 is_stmt 0 view .LVU723
 2125 013c 00EB441C 		add	ip, r0, r4, lsl #5
 749:Drivers/STM32F4xx_HAL_Driver/Src/stm32f4xx_ll_usb.c ****     {
 2126              		.loc 1 749 8 view .LVU724
 2127 0140 012A     		cmp	r2, #1
 726:Drivers/STM32F4xx_HAL_Driver/Src/stm32f4xx_ll_usb.c ****       USBx_INEP(epnum)->DIEPTSIZ |= (USB_OTG_DIEPTSIZ_PKTCNT & (1U << 19));
 2128              		.loc 1 726 34 view .LVU725
 2129 0142 DCF81059 		ldr	r5, [ip, #2320]
 2130 0146 25F0FF55 		bic	r5, r5, #534773760
 2131 014a 25F4C015 		bic	r5, r5, #1572864
 2132 014e CCF81059 		str	r5, [ip, #2320]
 727:Drivers/STM32F4xx_HAL_Driver/Src/stm32f4xx_ll_usb.c ****       USBx_INEP(epnum)->DIEPTSIZ &= ~(USB_OTG_DIEPTSIZ_XFRSIZ);
 2133              		.loc 1 727 7 is_stmt 1 view .LVU726
 727:Drivers/STM32F4xx_HAL_Driver/Src/stm32f4xx_ll_usb.c ****       USBx_INEP(epnum)->DIEPTSIZ &= ~(USB_OTG_DIEPTSIZ_XFRSIZ);
 2134              		.loc 1 727 34 is_stmt 0 view .LVU727
 2135 0152 DCF81059 		ldr	r5, [ip, #2320]
 2136 0156 45F40025 		orr	r5, r5, #524288
 2137 015a CCF81059 		str	r5, [ip, #2320]
 728:Drivers/STM32F4xx_HAL_Driver/Src/stm32f4xx_ll_usb.c ****     }
 2138              		.loc 1 728 7 is_stmt 1 view .LVU728
 728:Drivers/STM32F4xx_HAL_Driver/Src/stm32f4xx_ll_usb.c ****     }
 2139              		.loc 1 728 34 is_stmt 0 view .LVU729
 2140 015e DCF81059 		ldr	r5, [ip, #2320]
 2141 0162 4FEAD545 		lsr	r5, r5, #19
 2142 0166 4FEAC545 		lsl	r5, r5, #19
ARM GAS  /tmp/ccDzXOxq.s 			page 74


 2143 016a CCF81059 		str	r5, [ip, #2320]
 726:Drivers/STM32F4xx_HAL_Driver/Src/stm32f4xx_ll_usb.c ****       USBx_INEP(epnum)->DIEPTSIZ |= (USB_OTG_DIEPTSIZ_PKTCNT & (1U << 19));
 2144              		.loc 1 726 34 view .LVU730
 2145 016e 0CF51063 		add	r3, ip, #2304
 2146 0172 CF78     		ldrb	r7, [r1, #3]	@ zero_extendqisi2
 749:Drivers/STM32F4xx_HAL_Driver/Src/stm32f4xx_ll_usb.c ****     {
 2147              		.loc 1 749 5 is_stmt 1 view .LVU731
 749:Drivers/STM32F4xx_HAL_Driver/Src/stm32f4xx_ll_usb.c ****     {
 2148              		.loc 1 749 8 is_stmt 0 view .LVU732
 2149 0174 38D0     		beq	.L197
 774:Drivers/STM32F4xx_HAL_Driver/Src/stm32f4xx_ll_usb.c **** 
 2150              		.loc 1 774 7 is_stmt 1 view .LVU733
 774:Drivers/STM32F4xx_HAL_Driver/Src/stm32f4xx_ll_usb.c **** 
 2151              		.loc 1 774 33 is_stmt 0 view .LVU734
 2152 0176 DCF80059 		ldr	r5, [ip, #2304]
 776:Drivers/STM32F4xx_HAL_Driver/Src/stm32f4xx_ll_usb.c ****       {
 2153              		.loc 1 776 10 view .LVU735
 2154 017a 012F     		cmp	r7, #1
 774:Drivers/STM32F4xx_HAL_Driver/Src/stm32f4xx_ll_usb.c **** 
 2155              		.loc 1 774 33 view .LVU736
 2156 017c 45F00445 		orr	r5, r5, #-2080374784
 2157 0180 CCF80059 		str	r5, [ip, #2304]
 776:Drivers/STM32F4xx_HAL_Driver/Src/stm32f4xx_ll_usb.c ****       {
 2158              		.loc 1 776 7 is_stmt 1 view .LVU737
 776:Drivers/STM32F4xx_HAL_Driver/Src/stm32f4xx_ll_usb.c ****       {
 2159              		.loc 1 776 10 is_stmt 0 view .LVU738
 2160 0184 82D1     		bne	.L181
 2161              	.L158:
 786:Drivers/STM32F4xx_HAL_Driver/Src/stm32f4xx_ll_usb.c ****         {
 2162              		.loc 1 786 9 is_stmt 1 view .LVU739
 786:Drivers/STM32F4xx_HAL_Driver/Src/stm32f4xx_ll_usb.c ****         {
 2163              		.loc 1 786 25 is_stmt 0 view .LVU740
 2164 0186 D0F80858 		ldr	r5, [r0, #2056]
 786:Drivers/STM32F4xx_HAL_Driver/Src/stm32f4xx_ll_usb.c ****         {
 2165              		.loc 1 786 12 view .LVU741
 2166 018a 15F4807F 		tst	r5, #256
 788:Drivers/STM32F4xx_HAL_Driver/Src/stm32f4xx_ll_usb.c ****         }
 2167              		.loc 1 788 37 view .LVU742
 2168 018e 1D68     		ldr	r5, [r3]
 788:Drivers/STM32F4xx_HAL_Driver/Src/stm32f4xx_ll_usb.c ****         }
 2169              		.loc 1 788 11 is_stmt 1 view .LVU743
 788:Drivers/STM32F4xx_HAL_Driver/Src/stm32f4xx_ll_usb.c ****         }
 2170              		.loc 1 788 37 is_stmt 0 view .LVU744
 2171 0190 0CBF     		ite	eq
 2172 0192 45F00055 		orreq	r5, r5, #536870912
 792:Drivers/STM32F4xx_HAL_Driver/Src/stm32f4xx_ll_usb.c ****         }
 2173              		.loc 1 792 11 is_stmt 1 view .LVU745
 795:Drivers/STM32F4xx_HAL_Driver/Src/stm32f4xx_ll_usb.c ****       }
 2174              		.loc 1 795 9 view .LVU746
 2175              	.LVL168:
 2176              	.LBB50:
 2177              	.LBI50:
 956:Drivers/STM32F4xx_HAL_Driver/Src/stm32f4xx_ll_usb.c ****                                   uint8_t ch_ep_num, uint16_t len, uint8_t dma)
 2178              		.loc 1 956 19 view .LVU747
 2179              	.LBB51:
 959:Drivers/STM32F4xx_HAL_Driver/Src/stm32f4xx_ll_usb.c ****   uint32_t *pSrc = (uint32_t *)src;
 2180              		.loc 1 959 3 view .LVU748
ARM GAS  /tmp/ccDzXOxq.s 			page 75


 960:Drivers/STM32F4xx_HAL_Driver/Src/stm32f4xx_ll_usb.c ****   uint32_t count32b, i;
 2181              		.loc 1 960 3 view .LVU749
 961:Drivers/STM32F4xx_HAL_Driver/Src/stm32f4xx_ll_usb.c **** 
 2182              		.loc 1 961 3 view .LVU750
 963:Drivers/STM32F4xx_HAL_Driver/Src/stm32f4xx_ll_usb.c ****   {
 2183              		.loc 1 963 3 view .LVU751
 2184              	.LBE51:
 2185              	.LBE50:
 792:Drivers/STM32F4xx_HAL_Driver/Src/stm32f4xx_ll_usb.c ****         }
 2186              		.loc 1 792 37 is_stmt 0 view .LVU752
 2187 0196 45F08055 		orrne	r5, r5, #268435456
 2188 019a 1D60     		str	r5, [r3]
 2189              	.LBB54:
 2190              	.LBB52:
 963:Drivers/STM32F4xx_HAL_Driver/Src/stm32f4xx_ll_usb.c ****   {
 2191              		.loc 1 963 6 view .LVU753
 2192 019c 002A     		cmp	r2, #0
 2193 019e 7FF475AF 		bne	.L181
 965:Drivers/STM32F4xx_HAL_Driver/Src/stm32f4xx_ll_usb.c ****     for (i = 0U; i < count32b; i++)
 2194              		.loc 1 965 5 is_stmt 1 view .LVU754
 965:Drivers/STM32F4xx_HAL_Driver/Src/stm32f4xx_ll_usb.c ****     for (i = 0U; i < count32b; i++)
 2195              		.loc 1 965 31 is_stmt 0 view .LVU755
 2196 01a2 B6B2     		uxth	r6, r6
 965:Drivers/STM32F4xx_HAL_Driver/Src/stm32f4xx_ll_usb.c ****     for (i = 0U; i < count32b; i++)
 2197              		.loc 1 965 31 view .LVU756
 2198 01a4 0336     		adds	r6, r6, #3
 2199              	.LVL169:
 966:Drivers/STM32F4xx_HAL_Driver/Src/stm32f4xx_ll_usb.c ****     {
 2200              		.loc 1 966 5 is_stmt 1 view .LVU757
 966:Drivers/STM32F4xx_HAL_Driver/Src/stm32f4xx_ll_usb.c ****     {
 2201              		.loc 1 966 18 view .LVU758
 966:Drivers/STM32F4xx_HAL_Driver/Src/stm32f4xx_ll_usb.c ****     {
 2202              		.loc 1 966 5 is_stmt 0 view .LVU759
 2203 01a6 B608     		lsrs	r6, r6, #2
 2204              	.LVL170:
 966:Drivers/STM32F4xx_HAL_Driver/Src/stm32f4xx_ll_usb.c ****     {
 2205              		.loc 1 966 5 view .LVU760
 2206 01a8 3FF470AF 		beq	.L181
 2207              	.LBE52:
 2208              	.LBE54:
 795:Drivers/STM32F4xx_HAL_Driver/Src/stm32f4xx_ll_usb.c ****       }
 2209              		.loc 1 795 15 view .LVU761
 2210 01ac CB68     		ldr	r3, [r1, #12]
 2211              	.LBB55:
 2212              	.LBB53:
 968:Drivers/STM32F4xx_HAL_Driver/Src/stm32f4xx_ll_usb.c ****       pSrc++;
 2213              		.loc 1 968 7 view .LVU762
 2214 01ae 00EB0430 		add	r0, r0, r4, lsl #12
 2215              	.LVL171:
 968:Drivers/STM32F4xx_HAL_Driver/Src/stm32f4xx_ll_usb.c ****       pSrc++;
 2216              		.loc 1 968 7 view .LVU763
 2217 01b2 03EB8601 		add	r1, r3, r6, lsl #2
 2218              	.LVL172:
 968:Drivers/STM32F4xx_HAL_Driver/Src/stm32f4xx_ll_usb.c ****       pSrc++;
 2219              		.loc 1 968 7 view .LVU764
 2220 01b6 00F58050 		add	r0, r0, #4096
 2221              	.LVL173:
ARM GAS  /tmp/ccDzXOxq.s 			page 76


 2222              	.L162:
 968:Drivers/STM32F4xx_HAL_Driver/Src/stm32f4xx_ll_usb.c ****       pSrc++;
 2223              		.loc 1 968 7 is_stmt 1 view .LVU765
 968:Drivers/STM32F4xx_HAL_Driver/Src/stm32f4xx_ll_usb.c ****       pSrc++;
 2224              		.loc 1 968 41 is_stmt 0 view .LVU766
 2225 01ba 53F8042B 		ldr	r2, [r3], #4	@ unaligned
 2226              	.LVL174:
 968:Drivers/STM32F4xx_HAL_Driver/Src/stm32f4xx_ll_usb.c ****       pSrc++;
 2227              		.loc 1 968 39 view .LVU767
 2228 01be 0260     		str	r2, [r0]
 969:Drivers/STM32F4xx_HAL_Driver/Src/stm32f4xx_ll_usb.c ****     }
 2229              		.loc 1 969 7 is_stmt 1 view .LVU768
 2230              	.LVL175:
 966:Drivers/STM32F4xx_HAL_Driver/Src/stm32f4xx_ll_usb.c ****     {
 2231              		.loc 1 966 32 view .LVU769
 966:Drivers/STM32F4xx_HAL_Driver/Src/stm32f4xx_ll_usb.c ****     {
 2232              		.loc 1 966 18 view .LVU770
 966:Drivers/STM32F4xx_HAL_Driver/Src/stm32f4xx_ll_usb.c ****     {
 2233              		.loc 1 966 5 is_stmt 0 view .LVU771
 2234 01c0 8B42     		cmp	r3, r1
 2235 01c2 FAD1     		bne	.L162
 2236 01c4 62E7     		b	.L181
 2237              	.LVL176:
 2238              	.L195:
 966:Drivers/STM32F4xx_HAL_Driver/Src/stm32f4xx_ll_usb.c ****     {
 2239              		.loc 1 966 5 view .LVU772
 2240              	.LBE53:
 2241              	.LBE55:
 744:Drivers/STM32F4xx_HAL_Driver/Src/stm32f4xx_ll_usb.c ****         USBx_INEP(epnum)->DIEPTSIZ |= (USB_OTG_DIEPTSIZ_MULCNT & (1U << 29));
 2242              		.loc 1 744 9 is_stmt 1 view .LVU773
 744:Drivers/STM32F4xx_HAL_Driver/Src/stm32f4xx_ll_usb.c ****         USBx_INEP(epnum)->DIEPTSIZ |= (USB_OTG_DIEPTSIZ_MULCNT & (1U << 29));
 2243              		.loc 1 744 36 is_stmt 0 view .LVU774
 2244 01c6 1D69     		ldr	r5, [r3, #16]
 2245 01c8 25F0C045 		bic	r5, r5, #1610612736
 2246 01cc 1D61     		str	r5, [r3, #16]
 745:Drivers/STM32F4xx_HAL_Driver/Src/stm32f4xx_ll_usb.c ****       }
 2247              		.loc 1 745 9 is_stmt 1 view .LVU775
 745:Drivers/STM32F4xx_HAL_Driver/Src/stm32f4xx_ll_usb.c ****       }
 2248              		.loc 1 745 36 is_stmt 0 view .LVU776
 2249 01ce 1D69     		ldr	r5, [r3, #16]
 749:Drivers/STM32F4xx_HAL_Driver/Src/stm32f4xx_ll_usb.c ****     {
 2250              		.loc 1 749 8 view .LVU777
 2251 01d0 012A     		cmp	r2, #1
 745:Drivers/STM32F4xx_HAL_Driver/Src/stm32f4xx_ll_usb.c ****       }
 2252              		.loc 1 745 36 view .LVU778
 2253 01d2 45F00055 		orr	r5, r5, #536870912
 2254 01d6 1D61     		str	r5, [r3, #16]
 749:Drivers/STM32F4xx_HAL_Driver/Src/stm32f4xx_ll_usb.c ****     {
 2255              		.loc 1 749 5 is_stmt 1 view .LVU779
 749:Drivers/STM32F4xx_HAL_Driver/Src/stm32f4xx_ll_usb.c ****     {
 2256              		.loc 1 749 8 is_stmt 0 view .LVU780
 2257 01d8 16D0     		beq	.L198
 774:Drivers/STM32F4xx_HAL_Driver/Src/stm32f4xx_ll_usb.c **** 
 2258              		.loc 1 774 7 is_stmt 1 view .LVU781
 774:Drivers/STM32F4xx_HAL_Driver/Src/stm32f4xx_ll_usb.c **** 
 2259              		.loc 1 774 33 is_stmt 0 view .LVU782
 2260 01da DEF80059 		ldr	r5, [lr, #2304]
ARM GAS  /tmp/ccDzXOxq.s 			page 77


 2261 01de 45F00445 		orr	r5, r5, #-2080374784
 2262 01e2 CEF80059 		str	r5, [lr, #2304]
 776:Drivers/STM32F4xx_HAL_Driver/Src/stm32f4xx_ll_usb.c ****       {
 2263              		.loc 1 776 7 is_stmt 1 view .LVU783
 2264 01e6 CEE7     		b	.L158
 2265              	.L197:
 751:Drivers/STM32F4xx_HAL_Driver/Src/stm32f4xx_ll_usb.c ****       {
 2266              		.loc 1 751 7 view .LVU784
 751:Drivers/STM32F4xx_HAL_Driver/Src/stm32f4xx_ll_usb.c ****       {
 2267              		.loc 1 751 23 is_stmt 0 view .LVU785
 2268 01e8 0A69     		ldr	r2, [r1, #16]
 2269              	.LVL177:
 751:Drivers/STM32F4xx_HAL_Driver/Src/stm32f4xx_ll_usb.c ****       {
 2270              		.loc 1 751 10 view .LVU786
 2271 01ea 5AB9     		cbnz	r2, .L170
 2272              	.L154:
 756:Drivers/STM32F4xx_HAL_Driver/Src/stm32f4xx_ll_usb.c ****       {
 2273              		.loc 1 756 7 is_stmt 1 view .LVU787
 756:Drivers/STM32F4xx_HAL_Driver/Src/stm32f4xx_ll_usb.c ****       {
 2274              		.loc 1 756 10 is_stmt 0 view .LVU788
 2275 01ec 012F     		cmp	r7, #1
 2276 01ee 0ED0     		beq	.L171
 2277              	.L155:
 769:Drivers/STM32F4xx_HAL_Driver/Src/stm32f4xx_ll_usb.c ****     }
 2278              		.loc 1 769 7 is_stmt 1 view .LVU789
 769:Drivers/STM32F4xx_HAL_Driver/Src/stm32f4xx_ll_usb.c ****     }
 2279              		.loc 1 769 33 is_stmt 0 view .LVU790
 2280 01f0 1A68     		ldr	r2, [r3]
 2281 01f2 42F00442 		orr	r2, r2, #-2080374784
 2282 01f6 1A60     		str	r2, [r3]
 844:Drivers/STM32F4xx_HAL_Driver/Src/stm32f4xx_ll_usb.c **** 
 2283              		.loc 1 844 1 view .LVU791
 2284 01f8 0020     		movs	r0, #0
 2285              	.LVL178:
 844:Drivers/STM32F4xx_HAL_Driver/Src/stm32f4xx_ll_usb.c **** 
 2286              		.loc 1 844 1 view .LVU792
 2287 01fa BDE8F083 		pop	{r4, r5, r6, r7, r8, r9, pc}
 2288              	.LVL179:
 2289              	.L196:
 751:Drivers/STM32F4xx_HAL_Driver/Src/stm32f4xx_ll_usb.c ****       {
 2290              		.loc 1 751 7 is_stmt 1 view .LVU793
 751:Drivers/STM32F4xx_HAL_Driver/Src/stm32f4xx_ll_usb.c ****       {
 2291              		.loc 1 751 23 is_stmt 0 view .LVU794
 2292 01fe 0A69     		ldr	r2, [r1, #16]
 2293              	.LVL180:
 751:Drivers/STM32F4xx_HAL_Driver/Src/stm32f4xx_ll_usb.c ****       {
 2294              		.loc 1 751 10 view .LVU795
 2295 0200 002A     		cmp	r2, #0
 2296 0202 F5D0     		beq	.L155
 2297              	.L170:
 753:Drivers/STM32F4xx_HAL_Driver/Src/stm32f4xx_ll_usb.c ****       }
 2298              		.loc 1 753 9 is_stmt 1 view .LVU796
 753:Drivers/STM32F4xx_HAL_Driver/Src/stm32f4xx_ll_usb.c ****       }
 2299              		.loc 1 753 35 is_stmt 0 view .LVU797
 2300 0204 5A61     		str	r2, [r3, #20]
 2301 0206 F1E7     		b	.L154
 2302              	.LVL181:
ARM GAS  /tmp/ccDzXOxq.s 			page 78


 2303              	.L198:
 751:Drivers/STM32F4xx_HAL_Driver/Src/stm32f4xx_ll_usb.c ****       {
 2304              		.loc 1 751 7 is_stmt 1 view .LVU798
 751:Drivers/STM32F4xx_HAL_Driver/Src/stm32f4xx_ll_usb.c ****       {
 2305              		.loc 1 751 23 is_stmt 0 view .LVU799
 2306 0208 0A69     		ldr	r2, [r1, #16]
 2307              	.LVL182:
 751:Drivers/STM32F4xx_HAL_Driver/Src/stm32f4xx_ll_usb.c ****       {
 2308              		.loc 1 751 10 view .LVU800
 2309 020a 002A     		cmp	r2, #0
 2310 020c FAD1     		bne	.L170
 2311              	.L171:
 758:Drivers/STM32F4xx_HAL_Driver/Src/stm32f4xx_ll_usb.c ****         {
 2312              		.loc 1 758 9 is_stmt 1 view .LVU801
 758:Drivers/STM32F4xx_HAL_Driver/Src/stm32f4xx_ll_usb.c ****         {
 2313              		.loc 1 758 25 is_stmt 0 view .LVU802
 2314 020e D0F80828 		ldr	r2, [r0, #2056]
 758:Drivers/STM32F4xx_HAL_Driver/Src/stm32f4xx_ll_usb.c ****         {
 2315              		.loc 1 758 12 view .LVU803
 2316 0212 12F4807F 		tst	r2, #256
 760:Drivers/STM32F4xx_HAL_Driver/Src/stm32f4xx_ll_usb.c ****         }
 2317              		.loc 1 760 37 view .LVU804
 2318 0216 1A68     		ldr	r2, [r3]
 760:Drivers/STM32F4xx_HAL_Driver/Src/stm32f4xx_ll_usb.c ****         }
 2319              		.loc 1 760 11 is_stmt 1 view .LVU805
 760:Drivers/STM32F4xx_HAL_Driver/Src/stm32f4xx_ll_usb.c ****         }
 2320              		.loc 1 760 37 is_stmt 0 view .LVU806
 2321 0218 0CBF     		ite	eq
 2322 021a 42F00052 		orreq	r2, r2, #536870912
 764:Drivers/STM32F4xx_HAL_Driver/Src/stm32f4xx_ll_usb.c ****         }
 2323              		.loc 1 764 11 is_stmt 1 view .LVU807
 764:Drivers/STM32F4xx_HAL_Driver/Src/stm32f4xx_ll_usb.c ****         }
 2324              		.loc 1 764 37 is_stmt 0 view .LVU808
 2325 021e 42F08052 		orrne	r2, r2, #268435456
 2326 0222 1A60     		str	r2, [r3]
 2327 0224 E4E7     		b	.L155
 2328              	.L200:
 2329 0226 00BF     		.align	2
 2330              	.L199:
 2331 0228 0000F81F 		.word	536346624
 2332              		.cfi_endproc
 2333              	.LFE144:
 2335              		.section	.text.USB_EP0StartXfer,"ax",%progbits
 2336              		.align	1
 2337              		.p2align 2,,3
 2338              		.global	USB_EP0StartXfer
 2339              		.syntax unified
 2340              		.thumb
 2341              		.thumb_func
 2342              		.fpu fpv4-sp-d16
 2344              	USB_EP0StartXfer:
 2345              	.LVL183:
 2346              	.LFB145:
 857:Drivers/STM32F4xx_HAL_Driver/Src/stm32f4xx_ll_usb.c ****   uint32_t USBx_BASE = (uint32_t)USBx;
 2347              		.loc 1 857 1 is_stmt 1 view -0
 2348              		.cfi_startproc
 2349              		@ args = 0, pretend = 0, frame = 0
ARM GAS  /tmp/ccDzXOxq.s 			page 79


 2350              		@ frame_needed = 0, uses_anonymous_args = 0
 2351              		@ link register save eliminated.
 858:Drivers/STM32F4xx_HAL_Driver/Src/stm32f4xx_ll_usb.c ****   uint32_t epnum = (uint32_t)ep->num;
 2352              		.loc 1 858 3 view .LVU810
 857:Drivers/STM32F4xx_HAL_Driver/Src/stm32f4xx_ll_usb.c ****   uint32_t USBx_BASE = (uint32_t)USBx;
 2353              		.loc 1 857 1 is_stmt 0 view .LVU811
 2354 0000 F0B4     		push	{r4, r5, r6, r7}
 2355              	.LCFI24:
 2356              		.cfi_def_cfa_offset 16
 2357              		.cfi_offset 4, -16
 2358              		.cfi_offset 5, -12
 2359              		.cfi_offset 6, -8
 2360              		.cfi_offset 7, -4
 862:Drivers/STM32F4xx_HAL_Driver/Src/stm32f4xx_ll_usb.c ****   {
 2361              		.loc 1 862 6 view .LVU812
 2362 0002 4B78     		ldrb	r3, [r1, #1]	@ zero_extendqisi2
 859:Drivers/STM32F4xx_HAL_Driver/Src/stm32f4xx_ll_usb.c **** 
 2363              		.loc 1 859 32 view .LVU813
 2364 0004 0C78     		ldrb	r4, [r1]	@ zero_extendqisi2
 2365              	.LVL184:
 859:Drivers/STM32F4xx_HAL_Driver/Src/stm32f4xx_ll_usb.c **** 
 2366              		.loc 1 859 3 is_stmt 1 view .LVU814
 862:Drivers/STM32F4xx_HAL_Driver/Src/stm32f4xx_ll_usb.c ****   {
 2367              		.loc 1 862 3 view .LVU815
 862:Drivers/STM32F4xx_HAL_Driver/Src/stm32f4xx_ll_usb.c ****   {
 2368              		.loc 1 862 6 is_stmt 0 view .LVU816
 2369 0006 012B     		cmp	r3, #1
 2370 0008 2DD0     		beq	.L222
 917:Drivers/STM32F4xx_HAL_Driver/Src/stm32f4xx_ll_usb.c ****     USBx_OUTEP(epnum)->DOEPTSIZ &= ~(USB_OTG_DOEPTSIZ_PKTCNT);
 2371              		.loc 1 917 5 is_stmt 1 view .LVU817
 917:Drivers/STM32F4xx_HAL_Driver/Src/stm32f4xx_ll_usb.c ****     USBx_OUTEP(epnum)->DOEPTSIZ &= ~(USB_OTG_DOEPTSIZ_PKTCNT);
 2372              		.loc 1 917 33 is_stmt 0 view .LVU818
 2373 000a 00EB4410 		add	r0, r0, r4, lsl #5
 2374              	.LVL185:
 920:Drivers/STM32F4xx_HAL_Driver/Src/stm32f4xx_ll_usb.c ****     {
 2375              		.loc 1 920 8 view .LVU819
 2376 000e 4D69     		ldr	r5, [r1, #20]
 917:Drivers/STM32F4xx_HAL_Driver/Src/stm32f4xx_ll_usb.c ****     USBx_OUTEP(epnum)->DOEPTSIZ &= ~(USB_OTG_DOEPTSIZ_PKTCNT);
 2377              		.loc 1 917 33 view .LVU820
 2378 0010 D0F8104B 		ldr	r4, [r0, #2832]
 2379              	.LVL186:
 917:Drivers/STM32F4xx_HAL_Driver/Src/stm32f4xx_ll_usb.c ****     USBx_OUTEP(epnum)->DOEPTSIZ &= ~(USB_OTG_DOEPTSIZ_PKTCNT);
 2380              		.loc 1 917 33 view .LVU821
 2381 0014 E40C     		lsrs	r4, r4, #19
 2382 0016 E404     		lsls	r4, r4, #19
 2383 0018 C0F8104B 		str	r4, [r0, #2832]
 2384              	.LVL187:
 918:Drivers/STM32F4xx_HAL_Driver/Src/stm32f4xx_ll_usb.c **** 
 2385              		.loc 1 918 5 is_stmt 1 view .LVU822
 918:Drivers/STM32F4xx_HAL_Driver/Src/stm32f4xx_ll_usb.c **** 
 2386              		.loc 1 918 33 is_stmt 0 view .LVU823
 2387 001c D0F8104B 		ldr	r4, [r0, #2832]
 2388 0020 24F0FF54 		bic	r4, r4, #534773760
 2389 0024 24F4C014 		bic	r4, r4, #1572864
 917:Drivers/STM32F4xx_HAL_Driver/Src/stm32f4xx_ll_usb.c ****     USBx_OUTEP(epnum)->DOEPTSIZ &= ~(USB_OTG_DOEPTSIZ_PKTCNT);
 2390              		.loc 1 917 33 view .LVU824
 2391 0028 00F53063 		add	r3, r0, #2816
ARM GAS  /tmp/ccDzXOxq.s 			page 80


 918:Drivers/STM32F4xx_HAL_Driver/Src/stm32f4xx_ll_usb.c **** 
 2392              		.loc 1 918 33 view .LVU825
 2393 002c 1C61     		str	r4, [r3, #16]
 920:Drivers/STM32F4xx_HAL_Driver/Src/stm32f4xx_ll_usb.c ****     {
 2394              		.loc 1 920 5 is_stmt 1 view .LVU826
 922:Drivers/STM32F4xx_HAL_Driver/Src/stm32f4xx_ll_usb.c ****     }
 2395              		.loc 1 922 24 is_stmt 0 view .LVU827
 2396 002e 8C68     		ldr	r4, [r1, #8]
 920:Drivers/STM32F4xx_HAL_Driver/Src/stm32f4xx_ll_usb.c ****     {
 2397              		.loc 1 920 8 view .LVU828
 2398 0030 05B1     		cbz	r5, .L210
 922:Drivers/STM32F4xx_HAL_Driver/Src/stm32f4xx_ll_usb.c ****     }
 2399              		.loc 1 922 7 is_stmt 1 view .LVU829
 922:Drivers/STM32F4xx_HAL_Driver/Src/stm32f4xx_ll_usb.c ****     }
 2400              		.loc 1 922 20 is_stmt 0 view .LVU830
 2401 0032 4C61     		str	r4, [r1, #20]
 2402              	.L210:
 925:Drivers/STM32F4xx_HAL_Driver/Src/stm32f4xx_ll_usb.c ****     USBx_OUTEP(epnum)->DOEPTSIZ |= (USB_OTG_DOEPTSIZ_XFRSIZ & (ep->maxpacket));
 2403              		.loc 1 925 5 is_stmt 1 view .LVU831
 925:Drivers/STM32F4xx_HAL_Driver/Src/stm32f4xx_ll_usb.c ****     USBx_OUTEP(epnum)->DOEPTSIZ |= (USB_OTG_DOEPTSIZ_XFRSIZ & (ep->maxpacket));
 2404              		.loc 1 925 33 is_stmt 0 view .LVU832
 2405 0034 1D69     		ldr	r5, [r3, #16]
 2406 0036 45F40025 		orr	r5, r5, #524288
 2407 003a 1D61     		str	r5, [r3, #16]
 926:Drivers/STM32F4xx_HAL_Driver/Src/stm32f4xx_ll_usb.c **** 
 2408              		.loc 1 926 5 is_stmt 1 view .LVU833
 926:Drivers/STM32F4xx_HAL_Driver/Src/stm32f4xx_ll_usb.c **** 
 2409              		.loc 1 926 33 is_stmt 0 view .LVU834
 2410 003c 1D69     		ldr	r5, [r3, #16]
 926:Drivers/STM32F4xx_HAL_Driver/Src/stm32f4xx_ll_usb.c **** 
 2411              		.loc 1 926 61 view .LVU835
 2412 003e C4F31204 		ubfx	r4, r4, #0, #19
 926:Drivers/STM32F4xx_HAL_Driver/Src/stm32f4xx_ll_usb.c **** 
 2413              		.loc 1 926 33 view .LVU836
 2414 0042 2C43     		orrs	r4, r4, r5
 928:Drivers/STM32F4xx_HAL_Driver/Src/stm32f4xx_ll_usb.c ****     {
 2415              		.loc 1 928 8 view .LVU837
 2416 0044 012A     		cmp	r2, #1
 926:Drivers/STM32F4xx_HAL_Driver/Src/stm32f4xx_ll_usb.c **** 
 2417              		.loc 1 926 33 view .LVU838
 2418 0046 1C61     		str	r4, [r3, #16]
 928:Drivers/STM32F4xx_HAL_Driver/Src/stm32f4xx_ll_usb.c ****     {
 2419              		.loc 1 928 5 is_stmt 1 view .LVU839
 928:Drivers/STM32F4xx_HAL_Driver/Src/stm32f4xx_ll_usb.c ****     {
 2420              		.loc 1 928 8 is_stmt 0 view .LVU840
 2421 0048 08D0     		beq	.L223
 2422              	.LVL188:
 2423              	.L211:
 937:Drivers/STM32F4xx_HAL_Driver/Src/stm32f4xx_ll_usb.c ****   }
 2424              		.loc 1 937 5 is_stmt 1 view .LVU841
 937:Drivers/STM32F4xx_HAL_Driver/Src/stm32f4xx_ll_usb.c ****   }
 2425              		.loc 1 937 32 is_stmt 0 view .LVU842
 2426 004a D0F8003B 		ldr	r3, [r0, #2816]
 2427 004e 43F00443 		orr	r3, r3, #-2080374784
 2428 0052 C0F8003B 		str	r3, [r0, #2816]
 2429              	.LVL189:
 2430              	.L208:
ARM GAS  /tmp/ccDzXOxq.s 			page 81


 940:Drivers/STM32F4xx_HAL_Driver/Src/stm32f4xx_ll_usb.c **** }
 2431              		.loc 1 940 3 is_stmt 1 view .LVU843
 941:Drivers/STM32F4xx_HAL_Driver/Src/stm32f4xx_ll_usb.c **** 
 2432              		.loc 1 941 1 is_stmt 0 view .LVU844
 2433 0056 0020     		movs	r0, #0
 2434 0058 F0BC     		pop	{r4, r5, r6, r7}
 2435              	.LCFI25:
 2436              		.cfi_remember_state
 2437              		.cfi_restore 7
 2438              		.cfi_restore 6
 2439              		.cfi_restore 5
 2440              		.cfi_restore 4
 2441              		.cfi_def_cfa_offset 0
 2442 005a 7047     		bx	lr
 2443              	.LVL190:
 2444              	.L223:
 2445              	.LCFI26:
 2446              		.cfi_restore_state
 930:Drivers/STM32F4xx_HAL_Driver/Src/stm32f4xx_ll_usb.c ****       {
 2447              		.loc 1 930 7 is_stmt 1 view .LVU845
 930:Drivers/STM32F4xx_HAL_Driver/Src/stm32f4xx_ll_usb.c ****       {
 2448              		.loc 1 930 23 is_stmt 0 view .LVU846
 2449 005c CA68     		ldr	r2, [r1, #12]
 2450              	.LVL191:
 930:Drivers/STM32F4xx_HAL_Driver/Src/stm32f4xx_ll_usb.c ****       {
 2451              		.loc 1 930 10 view .LVU847
 2452 005e 002A     		cmp	r2, #0
 2453 0060 F3D0     		beq	.L211
 932:Drivers/STM32F4xx_HAL_Driver/Src/stm32f4xx_ll_usb.c ****       }
 2454              		.loc 1 932 9 is_stmt 1 view .LVU848
 932:Drivers/STM32F4xx_HAL_Driver/Src/stm32f4xx_ll_usb.c ****       }
 2455              		.loc 1 932 36 is_stmt 0 view .LVU849
 2456 0062 5A61     		str	r2, [r3, #20]
 2457 0064 F1E7     		b	.L211
 2458              	.LVL192:
 2459              	.L222:
 865:Drivers/STM32F4xx_HAL_Driver/Src/stm32f4xx_ll_usb.c ****     {
 2460              		.loc 1 865 5 is_stmt 1 view .LVU850
 865:Drivers/STM32F4xx_HAL_Driver/Src/stm32f4xx_ll_usb.c ****     {
 2461              		.loc 1 865 11 is_stmt 0 view .LVU851
 2462 0066 4D69     		ldr	r5, [r1, #20]
 867:Drivers/STM32F4xx_HAL_Driver/Src/stm32f4xx_ll_usb.c ****       USBx_INEP(epnum)->DIEPTSIZ |= (USB_OTG_DIEPTSIZ_PKTCNT & (1U << 19));
 2463              		.loc 1 867 34 view .LVU852
 2464 0068 00EB4413 		add	r3, r0, r4, lsl #5
 2465 006c 03F51063 		add	r3, r3, #2304
 865:Drivers/STM32F4xx_HAL_Driver/Src/stm32f4xx_ll_usb.c ****     {
 2466              		.loc 1 865 8 view .LVU853
 2467 0070 6DB3     		cbz	r5, .L224
 878:Drivers/STM32F4xx_HAL_Driver/Src/stm32f4xx_ll_usb.c ****       USBx_INEP(epnum)->DIEPTSIZ &= ~(USB_OTG_DIEPTSIZ_PKTCNT);
 2468              		.loc 1 878 7 is_stmt 1 view .LVU854
 878:Drivers/STM32F4xx_HAL_Driver/Src/stm32f4xx_ll_usb.c ****       USBx_INEP(epnum)->DIEPTSIZ &= ~(USB_OTG_DIEPTSIZ_PKTCNT);
 2469              		.loc 1 878 34 is_stmt 0 view .LVU855
 2470 0072 1E69     		ldr	r6, [r3, #16]
 881:Drivers/STM32F4xx_HAL_Driver/Src/stm32f4xx_ll_usb.c ****       {
 2471              		.loc 1 881 28 view .LVU856
 2472 0074 8F68     		ldr	r7, [r1, #8]
 878:Drivers/STM32F4xx_HAL_Driver/Src/stm32f4xx_ll_usb.c ****       USBx_INEP(epnum)->DIEPTSIZ &= ~(USB_OTG_DIEPTSIZ_PKTCNT);
ARM GAS  /tmp/ccDzXOxq.s 			page 82


 2473              		.loc 1 878 34 view .LVU857
 2474 0076 F60C     		lsrs	r6, r6, #19
 2475 0078 F604     		lsls	r6, r6, #19
 2476 007a 1E61     		str	r6, [r3, #16]
 879:Drivers/STM32F4xx_HAL_Driver/Src/stm32f4xx_ll_usb.c **** 
 2477              		.loc 1 879 7 is_stmt 1 view .LVU858
 879:Drivers/STM32F4xx_HAL_Driver/Src/stm32f4xx_ll_usb.c **** 
 2478              		.loc 1 879 34 is_stmt 0 view .LVU859
 2479 007c 1E69     		ldr	r6, [r3, #16]
 2480 007e 26F0FF56 		bic	r6, r6, #534773760
 2481 0082 26F4C016 		bic	r6, r6, #1572864
 2482 0086 1E61     		str	r6, [r3, #16]
 881:Drivers/STM32F4xx_HAL_Driver/Src/stm32f4xx_ll_usb.c ****       {
 2483              		.loc 1 881 7 is_stmt 1 view .LVU860
 885:Drivers/STM32F4xx_HAL_Driver/Src/stm32f4xx_ll_usb.c ****       USBx_INEP(epnum)->DIEPTSIZ |= (USB_OTG_DIEPTSIZ_XFRSIZ & ep->xfer_len);
 2484              		.loc 1 885 34 is_stmt 0 view .LVU861
 2485 0088 1E69     		ldr	r6, [r3, #16]
 881:Drivers/STM32F4xx_HAL_Driver/Src/stm32f4xx_ll_usb.c ****       {
 2486              		.loc 1 881 10 view .LVU862
 2487 008a BD42     		cmp	r5, r7
 883:Drivers/STM32F4xx_HAL_Driver/Src/stm32f4xx_ll_usb.c ****       }
 2488              		.loc 1 883 9 is_stmt 1 view .LVU863
 885:Drivers/STM32F4xx_HAL_Driver/Src/stm32f4xx_ll_usb.c ****       USBx_INEP(epnum)->DIEPTSIZ |= (USB_OTG_DIEPTSIZ_XFRSIZ & ep->xfer_len);
 2489              		.loc 1 885 34 is_stmt 0 view .LVU864
 2490 008c 46F40026 		orr	r6, r6, #524288
 883:Drivers/STM32F4xx_HAL_Driver/Src/stm32f4xx_ll_usb.c ****       }
 2491              		.loc 1 883 22 view .LVU865
 2492 0090 88BF     		it	hi
 2493 0092 4F61     		strhi	r7, [r1, #20]
 885:Drivers/STM32F4xx_HAL_Driver/Src/stm32f4xx_ll_usb.c ****       USBx_INEP(epnum)->DIEPTSIZ |= (USB_OTG_DIEPTSIZ_XFRSIZ & ep->xfer_len);
 2494              		.loc 1 885 34 view .LVU866
 2495 0094 1E61     		str	r6, [r3, #16]
 886:Drivers/STM32F4xx_HAL_Driver/Src/stm32f4xx_ll_usb.c ****     }
 2496              		.loc 1 886 34 view .LVU867
 2497 0096 1E69     		ldr	r6, [r3, #16]
 883:Drivers/STM32F4xx_HAL_Driver/Src/stm32f4xx_ll_usb.c ****       }
 2498              		.loc 1 883 22 view .LVU868
 2499 0098 88BF     		it	hi
 2500 009a 3D46     		movhi	r5, r7
 885:Drivers/STM32F4xx_HAL_Driver/Src/stm32f4xx_ll_usb.c ****       USBx_INEP(epnum)->DIEPTSIZ |= (USB_OTG_DIEPTSIZ_XFRSIZ & ep->xfer_len);
 2501              		.loc 1 885 7 is_stmt 1 view .LVU869
 886:Drivers/STM32F4xx_HAL_Driver/Src/stm32f4xx_ll_usb.c ****     }
 2502              		.loc 1 886 7 view .LVU870
 886:Drivers/STM32F4xx_HAL_Driver/Src/stm32f4xx_ll_usb.c ****     }
 2503              		.loc 1 886 62 is_stmt 0 view .LVU871
 2504 009c C5F31205 		ubfx	r5, r5, #0, #19
 886:Drivers/STM32F4xx_HAL_Driver/Src/stm32f4xx_ll_usb.c ****     }
 2505              		.loc 1 886 34 view .LVU872
 2506 00a0 3543     		orrs	r5, r5, r6
 889:Drivers/STM32F4xx_HAL_Driver/Src/stm32f4xx_ll_usb.c ****     {
 2507              		.loc 1 889 8 view .LVU873
 2508 00a2 012A     		cmp	r2, #1
 886:Drivers/STM32F4xx_HAL_Driver/Src/stm32f4xx_ll_usb.c ****     }
 2509              		.loc 1 886 34 view .LVU874
 2510 00a4 1D61     		str	r5, [r3, #16]
 889:Drivers/STM32F4xx_HAL_Driver/Src/stm32f4xx_ll_usb.c ****     {
 2511              		.loc 1 889 5 is_stmt 1 view .LVU875
ARM GAS  /tmp/ccDzXOxq.s 			page 83


 889:Drivers/STM32F4xx_HAL_Driver/Src/stm32f4xx_ll_usb.c ****     {
 2512              		.loc 1 889 8 is_stmt 0 view .LVU876
 2513 00a6 22D0     		beq	.L225
 2514              	.L206:
 902:Drivers/STM32F4xx_HAL_Driver/Src/stm32f4xx_ll_usb.c **** 
 2515              		.loc 1 902 7 is_stmt 1 view .LVU877
 902:Drivers/STM32F4xx_HAL_Driver/Src/stm32f4xx_ll_usb.c **** 
 2516              		.loc 1 902 33 is_stmt 0 view .LVU878
 2517 00a8 1A68     		ldr	r2, [r3]
 2518              	.LVL193:
 905:Drivers/STM32F4xx_HAL_Driver/Src/stm32f4xx_ll_usb.c ****       {
 2519              		.loc 1 905 10 view .LVU879
 2520 00aa 4969     		ldr	r1, [r1, #20]
 2521              	.LVL194:
 902:Drivers/STM32F4xx_HAL_Driver/Src/stm32f4xx_ll_usb.c **** 
 2522              		.loc 1 902 33 view .LVU880
 2523 00ac 42F00442 		orr	r2, r2, #-2080374784
 2524 00b0 1A60     		str	r2, [r3]
 905:Drivers/STM32F4xx_HAL_Driver/Src/stm32f4xx_ll_usb.c ****       {
 2525              		.loc 1 905 7 is_stmt 1 view .LVU881
 905:Drivers/STM32F4xx_HAL_Driver/Src/stm32f4xx_ll_usb.c ****       {
 2526              		.loc 1 905 10 is_stmt 0 view .LVU882
 2527 00b2 0029     		cmp	r1, #0
 2528 00b4 CFD0     		beq	.L208
 907:Drivers/STM32F4xx_HAL_Driver/Src/stm32f4xx_ll_usb.c ****       }
 2529              		.loc 1 907 9 is_stmt 1 view .LVU883
 907:Drivers/STM32F4xx_HAL_Driver/Src/stm32f4xx_ll_usb.c ****       }
 2530              		.loc 1 907 33 is_stmt 0 view .LVU884
 2531 00b6 D0F83438 		ldr	r3, [r0, #2100]
 907:Drivers/STM32F4xx_HAL_Driver/Src/stm32f4xx_ll_usb.c ****       }
 2532              		.loc 1 907 52 view .LVU885
 2533 00ba 04F00F02 		and	r2, r4, #15
 907:Drivers/STM32F4xx_HAL_Driver/Src/stm32f4xx_ll_usb.c ****       }
 2534              		.loc 1 907 40 view .LVU886
 2535 00be 0124     		movs	r4, #1
 2536              	.LVL195:
 907:Drivers/STM32F4xx_HAL_Driver/Src/stm32f4xx_ll_usb.c ****       }
 2537              		.loc 1 907 40 view .LVU887
 2538 00c0 9440     		lsls	r4, r4, r2
 907:Drivers/STM32F4xx_HAL_Driver/Src/stm32f4xx_ll_usb.c ****       }
 2539              		.loc 1 907 33 view .LVU888
 2540 00c2 1C43     		orrs	r4, r4, r3
 2541 00c4 C0F83448 		str	r4, [r0, #2100]
 940:Drivers/STM32F4xx_HAL_Driver/Src/stm32f4xx_ll_usb.c **** }
 2542              		.loc 1 940 3 is_stmt 1 view .LVU889
 941:Drivers/STM32F4xx_HAL_Driver/Src/stm32f4xx_ll_usb.c **** 
 2543              		.loc 1 941 1 is_stmt 0 view .LVU890
 2544 00c8 0020     		movs	r0, #0
 2545              	.LVL196:
 941:Drivers/STM32F4xx_HAL_Driver/Src/stm32f4xx_ll_usb.c **** 
 2546              		.loc 1 941 1 view .LVU891
 2547 00ca F0BC     		pop	{r4, r5, r6, r7}
 2548              	.LCFI27:
 2549              		.cfi_remember_state
 2550              		.cfi_restore 7
 2551              		.cfi_restore 6
 2552              		.cfi_restore 5
ARM GAS  /tmp/ccDzXOxq.s 			page 84


 2553              		.cfi_restore 4
 2554              		.cfi_def_cfa_offset 0
 2555 00cc 7047     		bx	lr
 2556              	.LVL197:
 2557              	.L224:
 2558              	.LCFI28:
 2559              		.cfi_restore_state
 867:Drivers/STM32F4xx_HAL_Driver/Src/stm32f4xx_ll_usb.c ****       USBx_INEP(epnum)->DIEPTSIZ |= (USB_OTG_DIEPTSIZ_PKTCNT & (1U << 19));
 2560              		.loc 1 867 7 is_stmt 1 view .LVU892
 867:Drivers/STM32F4xx_HAL_Driver/Src/stm32f4xx_ll_usb.c ****       USBx_INEP(epnum)->DIEPTSIZ |= (USB_OTG_DIEPTSIZ_PKTCNT & (1U << 19));
 2561              		.loc 1 867 34 is_stmt 0 view .LVU893
 2562 00ce 1D69     		ldr	r5, [r3, #16]
 2563 00d0 25F0FF55 		bic	r5, r5, #534773760
 2564 00d4 25F4C015 		bic	r5, r5, #1572864
 2565 00d8 1D61     		str	r5, [r3, #16]
 868:Drivers/STM32F4xx_HAL_Driver/Src/stm32f4xx_ll_usb.c ****       USBx_INEP(epnum)->DIEPTSIZ &= ~(USB_OTG_DIEPTSIZ_XFRSIZ);
 2566              		.loc 1 868 7 is_stmt 1 view .LVU894
 868:Drivers/STM32F4xx_HAL_Driver/Src/stm32f4xx_ll_usb.c ****       USBx_INEP(epnum)->DIEPTSIZ &= ~(USB_OTG_DIEPTSIZ_XFRSIZ);
 2567              		.loc 1 868 34 is_stmt 0 view .LVU895
 2568 00da 1D69     		ldr	r5, [r3, #16]
 2569 00dc 45F40025 		orr	r5, r5, #524288
 2570 00e0 1D61     		str	r5, [r3, #16]
 869:Drivers/STM32F4xx_HAL_Driver/Src/stm32f4xx_ll_usb.c ****     }
 2571              		.loc 1 869 7 is_stmt 1 view .LVU896
 869:Drivers/STM32F4xx_HAL_Driver/Src/stm32f4xx_ll_usb.c ****     }
 2572              		.loc 1 869 34 is_stmt 0 view .LVU897
 2573 00e2 1D69     		ldr	r5, [r3, #16]
 2574 00e4 ED0C     		lsrs	r5, r5, #19
 2575 00e6 ED04     		lsls	r5, r5, #19
 889:Drivers/STM32F4xx_HAL_Driver/Src/stm32f4xx_ll_usb.c ****     {
 2576              		.loc 1 889 8 view .LVU898
 2577 00e8 012A     		cmp	r2, #1
 869:Drivers/STM32F4xx_HAL_Driver/Src/stm32f4xx_ll_usb.c ****     }
 2578              		.loc 1 869 34 view .LVU899
 2579 00ea 1D61     		str	r5, [r3, #16]
 889:Drivers/STM32F4xx_HAL_Driver/Src/stm32f4xx_ll_usb.c ****     {
 2580              		.loc 1 889 5 is_stmt 1 view .LVU900
 889:Drivers/STM32F4xx_HAL_Driver/Src/stm32f4xx_ll_usb.c ****     {
 2581              		.loc 1 889 8 is_stmt 0 view .LVU901
 2582 00ec DCD1     		bne	.L206
 2583              	.L225:
 891:Drivers/STM32F4xx_HAL_Driver/Src/stm32f4xx_ll_usb.c ****       {
 2584              		.loc 1 891 7 is_stmt 1 view .LVU902
 891:Drivers/STM32F4xx_HAL_Driver/Src/stm32f4xx_ll_usb.c ****       {
 2585              		.loc 1 891 23 is_stmt 0 view .LVU903
 2586 00ee 0A69     		ldr	r2, [r1, #16]
 2587              	.LVL198:
 891:Drivers/STM32F4xx_HAL_Driver/Src/stm32f4xx_ll_usb.c ****       {
 2588              		.loc 1 891 10 view .LVU904
 2589 00f0 02B1     		cbz	r2, .L207
 893:Drivers/STM32F4xx_HAL_Driver/Src/stm32f4xx_ll_usb.c ****       }
 2590              		.loc 1 893 9 is_stmt 1 view .LVU905
 893:Drivers/STM32F4xx_HAL_Driver/Src/stm32f4xx_ll_usb.c ****       }
 2591              		.loc 1 893 35 is_stmt 0 view .LVU906
 2592 00f2 5A61     		str	r2, [r3, #20]
 2593              	.L207:
 897:Drivers/STM32F4xx_HAL_Driver/Src/stm32f4xx_ll_usb.c ****     }
ARM GAS  /tmp/ccDzXOxq.s 			page 85


 2594              		.loc 1 897 7 is_stmt 1 view .LVU907
 897:Drivers/STM32F4xx_HAL_Driver/Src/stm32f4xx_ll_usb.c ****     }
 2595              		.loc 1 897 33 is_stmt 0 view .LVU908
 2596 00f4 1A68     		ldr	r2, [r3]
 2597 00f6 42F00442 		orr	r2, r2, #-2080374784
 941:Drivers/STM32F4xx_HAL_Driver/Src/stm32f4xx_ll_usb.c **** 
 2598              		.loc 1 941 1 view .LVU909
 2599 00fa 0020     		movs	r0, #0
 2600              	.LVL199:
 941:Drivers/STM32F4xx_HAL_Driver/Src/stm32f4xx_ll_usb.c **** 
 2601              		.loc 1 941 1 view .LVU910
 2602 00fc F0BC     		pop	{r4, r5, r6, r7}
 2603              	.LCFI29:
 2604              		.cfi_restore 7
 2605              		.cfi_restore 6
 2606              		.cfi_restore 5
 2607              		.cfi_restore 4
 2608              		.cfi_def_cfa_offset 0
 2609              	.LVL200:
 897:Drivers/STM32F4xx_HAL_Driver/Src/stm32f4xx_ll_usb.c ****     }
 2610              		.loc 1 897 33 view .LVU911
 2611 00fe 1A60     		str	r2, [r3]
 940:Drivers/STM32F4xx_HAL_Driver/Src/stm32f4xx_ll_usb.c **** }
 2612              		.loc 1 940 3 is_stmt 1 view .LVU912
 941:Drivers/STM32F4xx_HAL_Driver/Src/stm32f4xx_ll_usb.c **** 
 2613              		.loc 1 941 1 is_stmt 0 view .LVU913
 2614 0100 7047     		bx	lr
 2615              		.cfi_endproc
 2616              	.LFE145:
 2618 0102 00BF     		.section	.text.USB_WritePacket,"ax",%progbits
 2619              		.align	1
 2620              		.p2align 2,,3
 2621              		.global	USB_WritePacket
 2622              		.syntax unified
 2623              		.thumb
 2624              		.thumb_func
 2625              		.fpu fpv4-sp-d16
 2627              	USB_WritePacket:
 2628              	.LVL201:
 2629              	.LFB146:
 958:Drivers/STM32F4xx_HAL_Driver/Src/stm32f4xx_ll_usb.c ****   uint32_t USBx_BASE = (uint32_t)USBx;
 2630              		.loc 1 958 1 is_stmt 1 view -0
 2631              		.cfi_startproc
 2632              		@ args = 4, pretend = 0, frame = 0
 2633              		@ frame_needed = 0, uses_anonymous_args = 0
 2634              		@ link register save eliminated.
 959:Drivers/STM32F4xx_HAL_Driver/Src/stm32f4xx_ll_usb.c ****   uint32_t *pSrc = (uint32_t *)src;
 2635              		.loc 1 959 3 view .LVU915
 958:Drivers/STM32F4xx_HAL_Driver/Src/stm32f4xx_ll_usb.c ****   uint32_t USBx_BASE = (uint32_t)USBx;
 2636              		.loc 1 958 1 is_stmt 0 view .LVU916
 2637 0000 10B4     		push	{r4}
 2638              	.LCFI30:
 2639              		.cfi_def_cfa_offset 4
 2640              		.cfi_offset 4, -4
 958:Drivers/STM32F4xx_HAL_Driver/Src/stm32f4xx_ll_usb.c ****   uint32_t USBx_BASE = (uint32_t)USBx;
 2641              		.loc 1 958 1 view .LVU917
 2642 0002 9DF80440 		ldrb	r4, [sp, #4]	@ zero_extendqisi2
ARM GAS  /tmp/ccDzXOxq.s 			page 86


 2643              	.LVL202:
 960:Drivers/STM32F4xx_HAL_Driver/Src/stm32f4xx_ll_usb.c ****   uint32_t count32b, i;
 2644              		.loc 1 960 3 is_stmt 1 view .LVU918
 961:Drivers/STM32F4xx_HAL_Driver/Src/stm32f4xx_ll_usb.c **** 
 2645              		.loc 1 961 3 view .LVU919
 963:Drivers/STM32F4xx_HAL_Driver/Src/stm32f4xx_ll_usb.c ****   {
 2646              		.loc 1 963 3 view .LVU920
 963:Drivers/STM32F4xx_HAL_Driver/Src/stm32f4xx_ll_usb.c ****   {
 2647              		.loc 1 963 6 is_stmt 0 view .LVU921
 2648 0006 64B9     		cbnz	r4, .L227
 965:Drivers/STM32F4xx_HAL_Driver/Src/stm32f4xx_ll_usb.c ****     for (i = 0U; i < count32b; i++)
 2649              		.loc 1 965 5 is_stmt 1 view .LVU922
 965:Drivers/STM32F4xx_HAL_Driver/Src/stm32f4xx_ll_usb.c ****     for (i = 0U; i < count32b; i++)
 2650              		.loc 1 965 31 is_stmt 0 view .LVU923
 2651 0008 0333     		adds	r3, r3, #3
 2652              	.LVL203:
 966:Drivers/STM32F4xx_HAL_Driver/Src/stm32f4xx_ll_usb.c ****     {
 2653              		.loc 1 966 5 is_stmt 1 view .LVU924
 966:Drivers/STM32F4xx_HAL_Driver/Src/stm32f4xx_ll_usb.c ****     {
 2654              		.loc 1 966 18 view .LVU925
 966:Drivers/STM32F4xx_HAL_Driver/Src/stm32f4xx_ll_usb.c ****     {
 2655              		.loc 1 966 5 is_stmt 0 view .LVU926
 2656 000a 9B08     		lsrs	r3, r3, #2
 2657              	.LVL204:
 966:Drivers/STM32F4xx_HAL_Driver/Src/stm32f4xx_ll_usb.c ****     {
 2658              		.loc 1 966 5 view .LVU927
 2659 000c 09D0     		beq	.L227
 968:Drivers/STM32F4xx_HAL_Driver/Src/stm32f4xx_ll_usb.c ****       pSrc++;
 2660              		.loc 1 968 7 view .LVU928
 2661 000e 0132     		adds	r2, r2, #1
 2662              	.LVL205:
 968:Drivers/STM32F4xx_HAL_Driver/Src/stm32f4xx_ll_usb.c ****       pSrc++;
 2663              		.loc 1 968 7 view .LVU929
 2664 0010 00EB0230 		add	r0, r0, r2, lsl #12
 2665              	.LVL206:
 968:Drivers/STM32F4xx_HAL_Driver/Src/stm32f4xx_ll_usb.c ****       pSrc++;
 2666              		.loc 1 968 7 view .LVU930
 2667 0014 01EB8303 		add	r3, r1, r3, lsl #2
 2668              	.LVL207:
 2669              	.L228:
 968:Drivers/STM32F4xx_HAL_Driver/Src/stm32f4xx_ll_usb.c ****       pSrc++;
 2670              		.loc 1 968 7 is_stmt 1 discriminator 3 view .LVU931
 968:Drivers/STM32F4xx_HAL_Driver/Src/stm32f4xx_ll_usb.c ****       pSrc++;
 2671              		.loc 1 968 41 is_stmt 0 discriminator 3 view .LVU932
 2672 0018 51F8042B 		ldr	r2, [r1], #4	@ unaligned
 2673              	.LVL208:
 968:Drivers/STM32F4xx_HAL_Driver/Src/stm32f4xx_ll_usb.c ****       pSrc++;
 2674              		.loc 1 968 39 discriminator 3 view .LVU933
 2675 001c 0260     		str	r2, [r0]
 969:Drivers/STM32F4xx_HAL_Driver/Src/stm32f4xx_ll_usb.c ****     }
 2676              		.loc 1 969 7 is_stmt 1 discriminator 3 view .LVU934
 2677              	.LVL209:
 966:Drivers/STM32F4xx_HAL_Driver/Src/stm32f4xx_ll_usb.c ****     {
 2678              		.loc 1 966 32 discriminator 3 view .LVU935
 966:Drivers/STM32F4xx_HAL_Driver/Src/stm32f4xx_ll_usb.c ****     {
 2679              		.loc 1 966 18 discriminator 3 view .LVU936
 966:Drivers/STM32F4xx_HAL_Driver/Src/stm32f4xx_ll_usb.c ****     {
ARM GAS  /tmp/ccDzXOxq.s 			page 87


 2680              		.loc 1 966 5 is_stmt 0 discriminator 3 view .LVU937
 2681 001e 8B42     		cmp	r3, r1
 2682 0020 FAD1     		bne	.L228
 2683              	.L227:
 973:Drivers/STM32F4xx_HAL_Driver/Src/stm32f4xx_ll_usb.c **** }
 2684              		.loc 1 973 3 is_stmt 1 view .LVU938
 974:Drivers/STM32F4xx_HAL_Driver/Src/stm32f4xx_ll_usb.c **** 
 2685              		.loc 1 974 1 is_stmt 0 view .LVU939
 2686 0022 0020     		movs	r0, #0
 2687 0024 5DF8044B 		ldr	r4, [sp], #4
 2688              	.LCFI31:
 2689              		.cfi_restore 4
 2690              		.cfi_def_cfa_offset 0
 2691              	.LVL210:
 974:Drivers/STM32F4xx_HAL_Driver/Src/stm32f4xx_ll_usb.c **** 
 2692              		.loc 1 974 1 view .LVU940
 2693 0028 7047     		bx	lr
 2694              		.cfi_endproc
 2695              	.LFE146:
 2697 002a 00BF     		.section	.text.USB_ReadPacket,"ax",%progbits
 2698              		.align	1
 2699              		.p2align 2,,3
 2700              		.global	USB_ReadPacket
 2701              		.syntax unified
 2702              		.thumb
 2703              		.thumb_func
 2704              		.fpu fpv4-sp-d16
 2706              	USB_ReadPacket:
 2707              	.LVL211:
 2708              	.LFB147:
 984:Drivers/STM32F4xx_HAL_Driver/Src/stm32f4xx_ll_usb.c ****   uint32_t USBx_BASE = (uint32_t)USBx;
 2709              		.loc 1 984 1 is_stmt 1 view -0
 2710              		.cfi_startproc
 2711              		@ args = 0, pretend = 0, frame = 0
 2712              		@ frame_needed = 0, uses_anonymous_args = 0
 2713              		@ link register save eliminated.
 985:Drivers/STM32F4xx_HAL_Driver/Src/stm32f4xx_ll_usb.c ****   uint32_t *pDest = (uint32_t *)dest;
 2714              		.loc 1 985 3 view .LVU942
 988:Drivers/STM32F4xx_HAL_Driver/Src/stm32f4xx_ll_usb.c **** 
 2715              		.loc 1 988 38 is_stmt 0 view .LVU943
 2716 0000 0332     		adds	r2, r2, #3
 2717              	.LVL212:
 986:Drivers/STM32F4xx_HAL_Driver/Src/stm32f4xx_ll_usb.c ****   uint32_t i;
 2718              		.loc 1 986 3 is_stmt 1 view .LVU944
 987:Drivers/STM32F4xx_HAL_Driver/Src/stm32f4xx_ll_usb.c ****   uint32_t count32b = ((uint32_t)len + 3U) / 4U;
 2719              		.loc 1 987 3 view .LVU945
 988:Drivers/STM32F4xx_HAL_Driver/Src/stm32f4xx_ll_usb.c **** 
 2720              		.loc 1 988 3 view .LVU946
 990:Drivers/STM32F4xx_HAL_Driver/Src/stm32f4xx_ll_usb.c ****   {
 2721              		.loc 1 990 3 view .LVU947
 990:Drivers/STM32F4xx_HAL_Driver/Src/stm32f4xx_ll_usb.c ****   {
 2722              		.loc 1 990 16 view .LVU948
 990:Drivers/STM32F4xx_HAL_Driver/Src/stm32f4xx_ll_usb.c ****   {
 2723              		.loc 1 990 3 is_stmt 0 view .LVU949
 2724 0002 9208     		lsrs	r2, r2, #2
 2725              	.LVL213:
 990:Drivers/STM32F4xx_HAL_Driver/Src/stm32f4xx_ll_usb.c ****   {
ARM GAS  /tmp/ccDzXOxq.s 			page 88


 2726              		.loc 1 990 3 view .LVU950
 2727 0004 0CD0     		beq	.L237
 984:Drivers/STM32F4xx_HAL_Driver/Src/stm32f4xx_ll_usb.c ****   uint32_t USBx_BASE = (uint32_t)USBx;
 2728              		.loc 1 984 1 view .LVU951
 2729 0006 10B4     		push	{r4}
 2730              	.LCFI32:
 2731              		.cfi_def_cfa_offset 4
 2732              		.cfi_offset 4, -4
 2733 0008 00F58054 		add	r4, r0, #4096
 2734 000c 01EB8200 		add	r0, r1, r2, lsl #2
 2735              	.LVL214:
 2736              	.L236:
 992:Drivers/STM32F4xx_HAL_Driver/Src/stm32f4xx_ll_usb.c ****     pDest++;
 2737              		.loc 1 992 5 is_stmt 1 discriminator 3 view .LVU952
 2738 0010 2368     		ldr	r3, [r4]
 2739 0012 41F8043B 		str	r3, [r1], #4	@ unaligned
 2740              	.LVL215:
 993:Drivers/STM32F4xx_HAL_Driver/Src/stm32f4xx_ll_usb.c ****   }
 2741              		.loc 1 993 5 discriminator 3 view .LVU953
 990:Drivers/STM32F4xx_HAL_Driver/Src/stm32f4xx_ll_usb.c ****   {
 2742              		.loc 1 990 30 discriminator 3 view .LVU954
 990:Drivers/STM32F4xx_HAL_Driver/Src/stm32f4xx_ll_usb.c ****   {
 2743              		.loc 1 990 16 discriminator 3 view .LVU955
 990:Drivers/STM32F4xx_HAL_Driver/Src/stm32f4xx_ll_usb.c ****   {
 2744              		.loc 1 990 3 is_stmt 0 discriminator 3 view .LVU956
 2745 0016 8142     		cmp	r1, r0
 2746 0018 FAD1     		bne	.L236
 997:Drivers/STM32F4xx_HAL_Driver/Src/stm32f4xx_ll_usb.c **** 
 2747              		.loc 1 997 1 view .LVU957
 2748 001a 5DF8044B 		ldr	r4, [sp], #4
 2749              	.LCFI33:
 2750              		.cfi_restore 4
 2751              		.cfi_def_cfa_offset 0
 2752              	.LVL216:
 997:Drivers/STM32F4xx_HAL_Driver/Src/stm32f4xx_ll_usb.c **** 
 2753              		.loc 1 997 1 view .LVU958
 2754 001e 7047     		bx	lr
 2755              	.LVL217:
 2756              	.L237:
 986:Drivers/STM32F4xx_HAL_Driver/Src/stm32f4xx_ll_usb.c ****   uint32_t i;
 2757              		.loc 1 986 13 view .LVU959
 2758 0020 0846     		mov	r0, r1
 2759              	.LVL218:
 996:Drivers/STM32F4xx_HAL_Driver/Src/stm32f4xx_ll_usb.c **** }
 2760              		.loc 1 996 3 is_stmt 1 view .LVU960
 997:Drivers/STM32F4xx_HAL_Driver/Src/stm32f4xx_ll_usb.c **** 
 2761              		.loc 1 997 1 is_stmt 0 view .LVU961
 2762 0022 7047     		bx	lr
 2763              		.cfi_endproc
 2764              	.LFE147:
 2766              		.section	.text.USB_EPSetStall,"ax",%progbits
 2767              		.align	1
 2768              		.p2align 2,,3
 2769              		.global	USB_EPSetStall
 2770              		.syntax unified
 2771              		.thumb
 2772              		.thumb_func
ARM GAS  /tmp/ccDzXOxq.s 			page 89


 2773              		.fpu fpv4-sp-d16
 2775              	USB_EPSetStall:
 2776              	.LVL219:
 2777              	.LFB148:
1006:Drivers/STM32F4xx_HAL_Driver/Src/stm32f4xx_ll_usb.c ****   uint32_t USBx_BASE = (uint32_t)USBx;
 2778              		.loc 1 1006 1 is_stmt 1 view -0
 2779              		.cfi_startproc
 2780              		@ args = 0, pretend = 0, frame = 0
 2781              		@ frame_needed = 0, uses_anonymous_args = 0
 2782              		@ link register save eliminated.
1007:Drivers/STM32F4xx_HAL_Driver/Src/stm32f4xx_ll_usb.c ****   uint32_t epnum = (uint32_t)ep->num;
 2783              		.loc 1 1007 3 view .LVU963
1010:Drivers/STM32F4xx_HAL_Driver/Src/stm32f4xx_ll_usb.c ****   {
 2784              		.loc 1 1010 6 is_stmt 0 view .LVU964
 2785 0000 4A78     		ldrb	r2, [r1, #1]	@ zero_extendqisi2
1008:Drivers/STM32F4xx_HAL_Driver/Src/stm32f4xx_ll_usb.c **** 
 2786              		.loc 1 1008 32 view .LVU965
 2787 0002 0B78     		ldrb	r3, [r1]	@ zero_extendqisi2
 2788              	.LVL220:
1008:Drivers/STM32F4xx_HAL_Driver/Src/stm32f4xx_ll_usb.c **** 
 2789              		.loc 1 1008 3 is_stmt 1 view .LVU966
1010:Drivers/STM32F4xx_HAL_Driver/Src/stm32f4xx_ll_usb.c ****   {
 2790              		.loc 1 1010 3 view .LVU967
1010:Drivers/STM32F4xx_HAL_Driver/Src/stm32f4xx_ll_usb.c ****   {
 2791              		.loc 1 1010 6 is_stmt 0 view .LVU968
 2792 0004 012A     		cmp	r2, #1
1012:Drivers/STM32F4xx_HAL_Driver/Src/stm32f4xx_ll_usb.c ****     {
 2793              		.loc 1 1012 11 view .LVU969
 2794 0006 00EB4310 		add	r0, r0, r3, lsl #5
 2795              	.LVL221:
1010:Drivers/STM32F4xx_HAL_Driver/Src/stm32f4xx_ll_usb.c ****   {
 2796              		.loc 1 1010 6 view .LVU970
 2797 000a 0CD0     		beq	.L254
1020:Drivers/STM32F4xx_HAL_Driver/Src/stm32f4xx_ll_usb.c ****     {
 2798              		.loc 1 1020 5 is_stmt 1 view .LVU971
1020:Drivers/STM32F4xx_HAL_Driver/Src/stm32f4xx_ll_usb.c ****     {
 2799              		.loc 1 1020 28 is_stmt 0 view .LVU972
 2800 000c D0F8002B 		ldr	r2, [r0, #2816]
1020:Drivers/STM32F4xx_HAL_Driver/Src/stm32f4xx_ll_usb.c ****     {
 2801              		.loc 1 1020 8 view .LVU973
 2802 0010 002A     		cmp	r2, #0
 2803 0012 00DB     		blt	.L247
1020:Drivers/STM32F4xx_HAL_Driver/Src/stm32f4xx_ll_usb.c ****     {
 2804              		.loc 1 1020 70 discriminator 1 view .LVU974
 2805 0014 D3B9     		cbnz	r3, .L255
 2806              	.LVL222:
 2807              	.L247:
1024:Drivers/STM32F4xx_HAL_Driver/Src/stm32f4xx_ll_usb.c ****   }
 2808              		.loc 1 1024 5 is_stmt 1 view .LVU975
1024:Drivers/STM32F4xx_HAL_Driver/Src/stm32f4xx_ll_usb.c ****   }
 2809              		.loc 1 1024 32 is_stmt 0 view .LVU976
 2810 0016 D0F8003B 		ldr	r3, [r0, #2816]
 2811 001a 43F40013 		orr	r3, r3, #2097152
 2812 001e C0F8003B 		str	r3, [r0, #2816]
1027:Drivers/STM32F4xx_HAL_Driver/Src/stm32f4xx_ll_usb.c **** }
 2813              		.loc 1 1027 3 is_stmt 1 view .LVU977
1028:Drivers/STM32F4xx_HAL_Driver/Src/stm32f4xx_ll_usb.c **** 
ARM GAS  /tmp/ccDzXOxq.s 			page 90


 2814              		.loc 1 1028 1 is_stmt 0 view .LVU978
 2815 0022 0020     		movs	r0, #0
 2816 0024 7047     		bx	lr
 2817              	.LVL223:
 2818              	.L254:
1012:Drivers/STM32F4xx_HAL_Driver/Src/stm32f4xx_ll_usb.c ****     {
 2819              		.loc 1 1012 5 is_stmt 1 view .LVU979
1012:Drivers/STM32F4xx_HAL_Driver/Src/stm32f4xx_ll_usb.c ****     {
 2820              		.loc 1 1012 27 is_stmt 0 view .LVU980
 2821 0026 D0F80029 		ldr	r2, [r0, #2304]
1012:Drivers/STM32F4xx_HAL_Driver/Src/stm32f4xx_ll_usb.c ****     {
 2822              		.loc 1 1012 8 view .LVU981
 2823 002a 002A     		cmp	r2, #0
 2824 002c 06DB     		blt	.L245
1012:Drivers/STM32F4xx_HAL_Driver/Src/stm32f4xx_ll_usb.c ****     {
 2825              		.loc 1 1012 69 discriminator 1 view .LVU982
 2826 002e 2BB1     		cbz	r3, .L245
1014:Drivers/STM32F4xx_HAL_Driver/Src/stm32f4xx_ll_usb.c ****     }
 2827              		.loc 1 1014 7 is_stmt 1 view .LVU983
1014:Drivers/STM32F4xx_HAL_Driver/Src/stm32f4xx_ll_usb.c ****     }
 2828              		.loc 1 1014 33 is_stmt 0 view .LVU984
 2829 0030 D0F80039 		ldr	r3, [r0, #2304]
 2830              	.LVL224:
1014:Drivers/STM32F4xx_HAL_Driver/Src/stm32f4xx_ll_usb.c ****     }
 2831              		.loc 1 1014 33 view .LVU985
 2832 0034 23F08043 		bic	r3, r3, #1073741824
 2833 0038 C0F80039 		str	r3, [r0, #2304]
 2834              	.LVL225:
 2835              	.L245:
1016:Drivers/STM32F4xx_HAL_Driver/Src/stm32f4xx_ll_usb.c ****   }
 2836              		.loc 1 1016 5 is_stmt 1 view .LVU986
1016:Drivers/STM32F4xx_HAL_Driver/Src/stm32f4xx_ll_usb.c ****   }
 2837              		.loc 1 1016 31 is_stmt 0 view .LVU987
 2838 003c D0F80039 		ldr	r3, [r0, #2304]
 2839 0040 43F40013 		orr	r3, r3, #2097152
 2840 0044 C0F80039 		str	r3, [r0, #2304]
1027:Drivers/STM32F4xx_HAL_Driver/Src/stm32f4xx_ll_usb.c **** }
 2841              		.loc 1 1027 3 is_stmt 1 view .LVU988
1028:Drivers/STM32F4xx_HAL_Driver/Src/stm32f4xx_ll_usb.c **** 
 2842              		.loc 1 1028 1 is_stmt 0 view .LVU989
 2843 0048 0020     		movs	r0, #0
 2844 004a 7047     		bx	lr
 2845              	.LVL226:
 2846              	.L255:
1022:Drivers/STM32F4xx_HAL_Driver/Src/stm32f4xx_ll_usb.c ****     }
 2847              		.loc 1 1022 7 is_stmt 1 view .LVU990
1022:Drivers/STM32F4xx_HAL_Driver/Src/stm32f4xx_ll_usb.c ****     }
 2848              		.loc 1 1022 34 is_stmt 0 view .LVU991
 2849 004c D0F8003B 		ldr	r3, [r0, #2816]
 2850              	.LVL227:
1022:Drivers/STM32F4xx_HAL_Driver/Src/stm32f4xx_ll_usb.c ****     }
 2851              		.loc 1 1022 34 view .LVU992
 2852 0050 23F08043 		bic	r3, r3, #1073741824
 2853 0054 C0F8003B 		str	r3, [r0, #2816]
 2854              	.LVL228:
1022:Drivers/STM32F4xx_HAL_Driver/Src/stm32f4xx_ll_usb.c ****     }
 2855              		.loc 1 1022 34 view .LVU993
ARM GAS  /tmp/ccDzXOxq.s 			page 91


 2856 0058 DDE7     		b	.L247
 2857              		.cfi_endproc
 2858              	.LFE148:
 2860 005a 00BF     		.section	.text.USB_EPClearStall,"ax",%progbits
 2861              		.align	1
 2862              		.p2align 2,,3
 2863              		.global	USB_EPClearStall
 2864              		.syntax unified
 2865              		.thumb
 2866              		.thumb_func
 2867              		.fpu fpv4-sp-d16
 2869              	USB_EPClearStall:
 2870              	.LVL229:
 2871              	.LFB149:
1037:Drivers/STM32F4xx_HAL_Driver/Src/stm32f4xx_ll_usb.c ****   uint32_t USBx_BASE = (uint32_t)USBx;
 2872              		.loc 1 1037 1 is_stmt 1 view -0
 2873              		.cfi_startproc
 2874              		@ args = 0, pretend = 0, frame = 0
 2875              		@ frame_needed = 0, uses_anonymous_args = 0
 2876              		@ link register save eliminated.
1038:Drivers/STM32F4xx_HAL_Driver/Src/stm32f4xx_ll_usb.c ****   uint32_t epnum = (uint32_t)ep->num;
 2877              		.loc 1 1038 3 view .LVU995
1041:Drivers/STM32F4xx_HAL_Driver/Src/stm32f4xx_ll_usb.c ****   {
 2878              		.loc 1 1041 6 is_stmt 0 view .LVU996
 2879 0000 4A78     		ldrb	r2, [r1, #1]	@ zero_extendqisi2
1039:Drivers/STM32F4xx_HAL_Driver/Src/stm32f4xx_ll_usb.c **** 
 2880              		.loc 1 1039 32 view .LVU997
 2881 0002 0B78     		ldrb	r3, [r1]	@ zero_extendqisi2
 2882              	.LVL230:
1039:Drivers/STM32F4xx_HAL_Driver/Src/stm32f4xx_ll_usb.c **** 
 2883              		.loc 1 1039 3 is_stmt 1 view .LVU998
1041:Drivers/STM32F4xx_HAL_Driver/Src/stm32f4xx_ll_usb.c ****   {
 2884              		.loc 1 1041 3 view .LVU999
1041:Drivers/STM32F4xx_HAL_Driver/Src/stm32f4xx_ll_usb.c ****   {
 2885              		.loc 1 1041 6 is_stmt 0 view .LVU1000
 2886 0004 012A     		cmp	r2, #1
1043:Drivers/STM32F4xx_HAL_Driver/Src/stm32f4xx_ll_usb.c ****     if ((ep->type == EP_TYPE_INTR) || (ep->type == EP_TYPE_BULK))
 2887              		.loc 1 1043 31 view .LVU1001
 2888 0006 00EB4310 		add	r0, r0, r3, lsl #5
 2889              	.LVL231:
1041:Drivers/STM32F4xx_HAL_Driver/Src/stm32f4xx_ll_usb.c ****   {
 2890              		.loc 1 1041 6 view .LVU1002
 2891 000a 13D0     		beq	.L261
1051:Drivers/STM32F4xx_HAL_Driver/Src/stm32f4xx_ll_usb.c ****     if ((ep->type == EP_TYPE_INTR) || (ep->type == EP_TYPE_BULK))
 2892              		.loc 1 1051 5 is_stmt 1 view .LVU1003
1051:Drivers/STM32F4xx_HAL_Driver/Src/stm32f4xx_ll_usb.c ****     if ((ep->type == EP_TYPE_INTR) || (ep->type == EP_TYPE_BULK))
 2893              		.loc 1 1051 32 is_stmt 0 view .LVU1004
 2894 000c D0F8003B 		ldr	r3, [r0, #2816]
 2895              	.LVL232:
1051:Drivers/STM32F4xx_HAL_Driver/Src/stm32f4xx_ll_usb.c ****     if ((ep->type == EP_TYPE_INTR) || (ep->type == EP_TYPE_BULK))
 2896              		.loc 1 1051 32 view .LVU1005
 2897 0010 23F40013 		bic	r3, r3, #2097152
 2898 0014 C0F8003B 		str	r3, [r0, #2816]
 2899              	.LVL233:
1052:Drivers/STM32F4xx_HAL_Driver/Src/stm32f4xx_ll_usb.c ****     {
 2900              		.loc 1 1052 5 is_stmt 1 view .LVU1006
1052:Drivers/STM32F4xx_HAL_Driver/Src/stm32f4xx_ll_usb.c ****     {
ARM GAS  /tmp/ccDzXOxq.s 			page 92


 2901              		.loc 1 1052 36 is_stmt 0 view .LVU1007
 2902 0018 CB78     		ldrb	r3, [r1, #3]	@ zero_extendqisi2
1052:Drivers/STM32F4xx_HAL_Driver/Src/stm32f4xx_ll_usb.c ****     {
 2903              		.loc 1 1052 8 view .LVU1008
 2904 001a 023B     		subs	r3, r3, #2
 2905 001c 012B     		cmp	r3, #1
 2906 001e 01D9     		bls	.L262
 2907              	.L259:
1057:Drivers/STM32F4xx_HAL_Driver/Src/stm32f4xx_ll_usb.c **** }
 2908              		.loc 1 1057 3 is_stmt 1 view .LVU1009
1058:Drivers/STM32F4xx_HAL_Driver/Src/stm32f4xx_ll_usb.c **** 
 2909              		.loc 1 1058 1 is_stmt 0 view .LVU1010
 2910 0020 0020     		movs	r0, #0
 2911 0022 7047     		bx	lr
 2912              	.L262:
1054:Drivers/STM32F4xx_HAL_Driver/Src/stm32f4xx_ll_usb.c ****     }
 2913              		.loc 1 1054 7 is_stmt 1 view .LVU1011
1054:Drivers/STM32F4xx_HAL_Driver/Src/stm32f4xx_ll_usb.c ****     }
 2914              		.loc 1 1054 34 is_stmt 0 view .LVU1012
 2915 0024 D0F8003B 		ldr	r3, [r0, #2816]
 2916 0028 43F08053 		orr	r3, r3, #268435456
 2917 002c C0F8003B 		str	r3, [r0, #2816]
1057:Drivers/STM32F4xx_HAL_Driver/Src/stm32f4xx_ll_usb.c **** }
 2918              		.loc 1 1057 3 is_stmt 1 view .LVU1013
1058:Drivers/STM32F4xx_HAL_Driver/Src/stm32f4xx_ll_usb.c **** 
 2919              		.loc 1 1058 1 is_stmt 0 view .LVU1014
 2920 0030 0020     		movs	r0, #0
 2921 0032 7047     		bx	lr
 2922              	.LVL234:
 2923              	.L261:
1043:Drivers/STM32F4xx_HAL_Driver/Src/stm32f4xx_ll_usb.c ****     if ((ep->type == EP_TYPE_INTR) || (ep->type == EP_TYPE_BULK))
 2924              		.loc 1 1043 5 is_stmt 1 view .LVU1015
1043:Drivers/STM32F4xx_HAL_Driver/Src/stm32f4xx_ll_usb.c ****     if ((ep->type == EP_TYPE_INTR) || (ep->type == EP_TYPE_BULK))
 2925              		.loc 1 1043 31 is_stmt 0 view .LVU1016
 2926 0034 D0F80039 		ldr	r3, [r0, #2304]
 2927              	.LVL235:
1043:Drivers/STM32F4xx_HAL_Driver/Src/stm32f4xx_ll_usb.c ****     if ((ep->type == EP_TYPE_INTR) || (ep->type == EP_TYPE_BULK))
 2928              		.loc 1 1043 31 view .LVU1017
 2929 0038 23F40013 		bic	r3, r3, #2097152
 2930 003c C0F80039 		str	r3, [r0, #2304]
 2931              	.LVL236:
1044:Drivers/STM32F4xx_HAL_Driver/Src/stm32f4xx_ll_usb.c ****     {
 2932              		.loc 1 1044 5 is_stmt 1 view .LVU1018
1044:Drivers/STM32F4xx_HAL_Driver/Src/stm32f4xx_ll_usb.c ****     {
 2933              		.loc 1 1044 36 is_stmt 0 view .LVU1019
 2934 0040 CB78     		ldrb	r3, [r1, #3]	@ zero_extendqisi2
1044:Drivers/STM32F4xx_HAL_Driver/Src/stm32f4xx_ll_usb.c ****     {
 2935              		.loc 1 1044 8 view .LVU1020
 2936 0042 023B     		subs	r3, r3, #2
 2937 0044 012B     		cmp	r3, #1
 2938 0046 EBD8     		bhi	.L259
1046:Drivers/STM32F4xx_HAL_Driver/Src/stm32f4xx_ll_usb.c ****     }
 2939              		.loc 1 1046 7 is_stmt 1 view .LVU1021
1046:Drivers/STM32F4xx_HAL_Driver/Src/stm32f4xx_ll_usb.c ****     }
 2940              		.loc 1 1046 33 is_stmt 0 view .LVU1022
 2941 0048 D0F80039 		ldr	r3, [r0, #2304]
 2942 004c 43F08053 		orr	r3, r3, #268435456
ARM GAS  /tmp/ccDzXOxq.s 			page 93


 2943 0050 C0F80039 		str	r3, [r0, #2304]
1057:Drivers/STM32F4xx_HAL_Driver/Src/stm32f4xx_ll_usb.c **** }
 2944              		.loc 1 1057 3 is_stmt 1 view .LVU1023
1058:Drivers/STM32F4xx_HAL_Driver/Src/stm32f4xx_ll_usb.c **** 
 2945              		.loc 1 1058 1 is_stmt 0 view .LVU1024
 2946 0054 0020     		movs	r0, #0
 2947 0056 7047     		bx	lr
 2948              		.cfi_endproc
 2949              	.LFE149:
 2951              		.section	.text.USB_StopDevice,"ax",%progbits
 2952              		.align	1
 2953              		.p2align 2,,3
 2954              		.global	USB_StopDevice
 2955              		.syntax unified
 2956              		.thumb
 2957              		.thumb_func
 2958              		.fpu fpv4-sp-d16
 2960              	USB_StopDevice:
 2961              	.LVL237:
 2962              	.LFB150:
1066:Drivers/STM32F4xx_HAL_Driver/Src/stm32f4xx_ll_usb.c ****   HAL_StatusTypeDef ret;
 2963              		.loc 1 1066 1 is_stmt 1 view -0
 2964              		.cfi_startproc
 2965              		@ args = 0, pretend = 0, frame = 0
 2966              		@ frame_needed = 0, uses_anonymous_args = 0
 2967              		@ link register save eliminated.
1067:Drivers/STM32F4xx_HAL_Driver/Src/stm32f4xx_ll_usb.c ****   uint32_t USBx_BASE = (uint32_t)USBx;
 2968              		.loc 1 1067 3 view .LVU1026
1068:Drivers/STM32F4xx_HAL_Driver/Src/stm32f4xx_ll_usb.c ****   uint32_t i;
 2969              		.loc 1 1068 3 view .LVU1027
1069:Drivers/STM32F4xx_HAL_Driver/Src/stm32f4xx_ll_usb.c **** 
 2970              		.loc 1 1069 3 view .LVU1028
1072:Drivers/STM32F4xx_HAL_Driver/Src/stm32f4xx_ll_usb.c ****   {
 2971              		.loc 1 1072 3 view .LVU1029
1072:Drivers/STM32F4xx_HAL_Driver/Src/stm32f4xx_ll_usb.c ****   {
 2972              		.loc 1 1072 16 view .LVU1030
1066:Drivers/STM32F4xx_HAL_Driver/Src/stm32f4xx_ll_usb.c ****   HAL_StatusTypeDef ret;
 2973              		.loc 1 1066 1 is_stmt 0 view .LVU1031
 2974 0000 10B4     		push	{r4}
 2975              	.LCFI34:
 2976              		.cfi_def_cfa_offset 4
 2977              		.cfi_offset 4, -4
 2978 0002 00F51063 		add	r3, r0, #2304
 2979 0006 00F52E64 		add	r4, r0, #2784
1074:Drivers/STM32F4xx_HAL_Driver/Src/stm32f4xx_ll_usb.c ****     USBx_OUTEP(i)->DOEPINT = 0xFB7FU;
 2980              		.loc 1 1074 27 view .LVU1032
 2981 000a 4FF67F32 		movw	r2, #64383
 2982              	.LVL238:
 2983              	.L264:
1074:Drivers/STM32F4xx_HAL_Driver/Src/stm32f4xx_ll_usb.c ****     USBx_OUTEP(i)->DOEPINT = 0xFB7FU;
 2984              		.loc 1 1074 5 is_stmt 1 discriminator 3 view .LVU1033
1074:Drivers/STM32F4xx_HAL_Driver/Src/stm32f4xx_ll_usb.c ****     USBx_OUTEP(i)->DOEPINT = 0xFB7FU;
 2985              		.loc 1 1074 27 is_stmt 0 discriminator 3 view .LVU1034
 2986 000e 9A60     		str	r2, [r3, #8]
1075:Drivers/STM32F4xx_HAL_Driver/Src/stm32f4xx_ll_usb.c ****   }
 2987              		.loc 1 1075 5 is_stmt 1 discriminator 3 view .LVU1035
 2988 0010 03F50071 		add	r1, r3, #512
ARM GAS  /tmp/ccDzXOxq.s 			page 94


 2989 0014 2033     		adds	r3, r3, #32
1072:Drivers/STM32F4xx_HAL_Driver/Src/stm32f4xx_ll_usb.c ****   {
 2990              		.loc 1 1072 3 is_stmt 0 discriminator 3 view .LVU1036
 2991 0016 A342     		cmp	r3, r4
1075:Drivers/STM32F4xx_HAL_Driver/Src/stm32f4xx_ll_usb.c ****   }
 2992              		.loc 1 1075 28 discriminator 3 view .LVU1037
 2993 0018 8A60     		str	r2, [r1, #8]
1072:Drivers/STM32F4xx_HAL_Driver/Src/stm32f4xx_ll_usb.c ****   {
 2994              		.loc 1 1072 25 is_stmt 1 discriminator 3 view .LVU1038
1072:Drivers/STM32F4xx_HAL_Driver/Src/stm32f4xx_ll_usb.c ****   {
 2995              		.loc 1 1072 16 discriminator 3 view .LVU1039
1072:Drivers/STM32F4xx_HAL_Driver/Src/stm32f4xx_ll_usb.c ****   {
 2996              		.loc 1 1072 3 is_stmt 0 discriminator 3 view .LVU1040
 2997 001a F8D1     		bne	.L264
1079:Drivers/STM32F4xx_HAL_Driver/Src/stm32f4xx_ll_usb.c ****   USBx_DEVICE->DOEPMSK  = 0U;
 2998              		.loc 1 1079 3 is_stmt 1 view .LVU1041
1079:Drivers/STM32F4xx_HAL_Driver/Src/stm32f4xx_ll_usb.c ****   USBx_DEVICE->DOEPMSK  = 0U;
 2999              		.loc 1 1079 25 is_stmt 0 view .LVU1042
 3000 001c 0021     		movs	r1, #0
 3001              	.LBB56:
 3002              	.LBB57:
 479:Drivers/STM32F4xx_HAL_Driver/Src/stm32f4xx_ll_usb.c **** 
 3003              		.loc 1 479 17 view .LVU1043
 3004 001e 1024     		movs	r4, #16
 3005              	.LBE57:
 3006              	.LBE56:
1079:Drivers/STM32F4xx_HAL_Driver/Src/stm32f4xx_ll_usb.c ****   USBx_DEVICE->DOEPMSK  = 0U;
 3007              		.loc 1 1079 25 view .LVU1044
 3008 0020 C0F81018 		str	r1, [r0, #2064]
1080:Drivers/STM32F4xx_HAL_Driver/Src/stm32f4xx_ll_usb.c ****   USBx_DEVICE->DAINTMSK = 0U;
 3009              		.loc 1 1080 3 is_stmt 1 view .LVU1045
 3010              	.LBB61:
 3011              	.LBB58:
 479:Drivers/STM32F4xx_HAL_Driver/Src/stm32f4xx_ll_usb.c **** 
 3012              		.loc 1 479 17 is_stmt 0 view .LVU1046
 3013 0024 0F4B     		ldr	r3, .L281
 3014              	.LBE58:
 3015              	.LBE61:
1080:Drivers/STM32F4xx_HAL_Driver/Src/stm32f4xx_ll_usb.c ****   USBx_DEVICE->DAINTMSK = 0U;
 3016              		.loc 1 1080 25 view .LVU1047
 3017 0026 C0F81418 		str	r1, [r0, #2068]
1081:Drivers/STM32F4xx_HAL_Driver/Src/stm32f4xx_ll_usb.c **** 
 3018              		.loc 1 1081 3 is_stmt 1 view .LVU1048
1081:Drivers/STM32F4xx_HAL_Driver/Src/stm32f4xx_ll_usb.c **** 
 3019              		.loc 1 1081 25 is_stmt 0 view .LVU1049
 3020 002a C0F81C18 		str	r1, [r0, #2076]
1084:Drivers/STM32F4xx_HAL_Driver/Src/stm32f4xx_ll_usb.c ****   if (ret != HAL_OK)
 3021              		.loc 1 1084 3 is_stmt 1 view .LVU1050
 3022              	.LVL239:
 3023              	.LBB62:
 3024              	.LBI56:
 475:Drivers/STM32F4xx_HAL_Driver/Src/stm32f4xx_ll_usb.c **** {
 3025              		.loc 1 475 19 view .LVU1051
 3026              	.LBB59:
 477:Drivers/STM32F4xx_HAL_Driver/Src/stm32f4xx_ll_usb.c **** 
 3027              		.loc 1 477 3 view .LVU1052
 479:Drivers/STM32F4xx_HAL_Driver/Src/stm32f4xx_ll_usb.c **** 
ARM GAS  /tmp/ccDzXOxq.s 			page 95


 3028              		.loc 1 479 3 view .LVU1053
 479:Drivers/STM32F4xx_HAL_Driver/Src/stm32f4xx_ll_usb.c **** 
 3029              		.loc 1 479 17 is_stmt 0 view .LVU1054
 3030 002e 0461     		str	r4, [r0, #16]
 481:Drivers/STM32F4xx_HAL_Driver/Src/stm32f4xx_ll_usb.c ****   {
 3031              		.loc 1 481 3 is_stmt 1 view .LVU1055
 483:Drivers/STM32F4xx_HAL_Driver/Src/stm32f4xx_ll_usb.c ****     {
 3032              		.loc 1 483 5 view .LVU1056
 3033              	.LVL240:
 483:Drivers/STM32F4xx_HAL_Driver/Src/stm32f4xx_ll_usb.c ****     {
 3034              		.loc 1 483 5 is_stmt 0 view .LVU1057
 3035 0030 01E0     		b	.L265
 3036              	.LVL241:
 3037              	.L267:
 483:Drivers/STM32F4xx_HAL_Driver/Src/stm32f4xx_ll_usb.c ****     {
 3038              		.loc 1 483 8 view .LVU1058
 3039 0032 013B     		subs	r3, r3, #1
 3040              	.LVL242:
 483:Drivers/STM32F4xx_HAL_Driver/Src/stm32f4xx_ll_usb.c ****     {
 3041              		.loc 1 483 8 view .LVU1059
 3042 0034 11D0     		beq	.L269
 3043              	.LVL243:
 3044              	.L265:
 481:Drivers/STM32F4xx_HAL_Driver/Src/stm32f4xx_ll_usb.c ****   {
 3045              		.loc 1 481 3 is_stmt 1 view .LVU1060
 483:Drivers/STM32F4xx_HAL_Driver/Src/stm32f4xx_ll_usb.c ****     {
 3046              		.loc 1 483 5 view .LVU1061
 487:Drivers/STM32F4xx_HAL_Driver/Src/stm32f4xx_ll_usb.c **** 
 3047              		.loc 1 487 11 view .LVU1062
 487:Drivers/STM32F4xx_HAL_Driver/Src/stm32f4xx_ll_usb.c **** 
 3048              		.loc 1 487 17 is_stmt 0 view .LVU1063
 3049 0036 0269     		ldr	r2, [r0, #16]
 487:Drivers/STM32F4xx_HAL_Driver/Src/stm32f4xx_ll_usb.c **** 
 3050              		.loc 1 487 3 view .LVU1064
 3051 0038 D206     		lsls	r2, r2, #27
 3052 003a FAD4     		bmi	.L267
 3053              	.LVL244:
 487:Drivers/STM32F4xx_HAL_Driver/Src/stm32f4xx_ll_usb.c **** 
 3054              		.loc 1 487 3 view .LVU1065
 3055              	.LBE59:
 3056              	.LBE62:
1085:Drivers/STM32F4xx_HAL_Driver/Src/stm32f4xx_ll_usb.c ****   {
 3057              		.loc 1 1085 3 is_stmt 1 view .LVU1066
1090:Drivers/STM32F4xx_HAL_Driver/Src/stm32f4xx_ll_usb.c ****   if (ret != HAL_OK)
 3058              		.loc 1 1090 3 view .LVU1067
 3059              	.LBB63:
 3060              	.LBI63:
 453:Drivers/STM32F4xx_HAL_Driver/Src/stm32f4xx_ll_usb.c **** {
 3061              		.loc 1 453 19 view .LVU1068
 3062              	.LBB64:
 455:Drivers/STM32F4xx_HAL_Driver/Src/stm32f4xx_ll_usb.c **** 
 3063              		.loc 1 455 3 view .LVU1069
 457:Drivers/STM32F4xx_HAL_Driver/Src/stm32f4xx_ll_usb.c **** 
 3064              		.loc 1 457 3 view .LVU1070
 457:Drivers/STM32F4xx_HAL_Driver/Src/stm32f4xx_ll_usb.c **** 
 3065              		.loc 1 457 17 is_stmt 0 view .LVU1071
 3066 003c 4FF48463 		mov	r3, #1056
ARM GAS  /tmp/ccDzXOxq.s 			page 96


 3067 0040 084A     		ldr	r2, .L281
 3068 0042 0361     		str	r3, [r0, #16]
 459:Drivers/STM32F4xx_HAL_Driver/Src/stm32f4xx_ll_usb.c ****   {
 3069              		.loc 1 459 3 is_stmt 1 view .LVU1072
 461:Drivers/STM32F4xx_HAL_Driver/Src/stm32f4xx_ll_usb.c ****     {
 3070              		.loc 1 461 5 view .LVU1073
 3071              	.LVL245:
 461:Drivers/STM32F4xx_HAL_Driver/Src/stm32f4xx_ll_usb.c ****     {
 3072              		.loc 1 461 5 is_stmt 0 view .LVU1074
 3073 0044 01E0     		b	.L271
 3074              	.LVL246:
 3075              	.L270:
 461:Drivers/STM32F4xx_HAL_Driver/Src/stm32f4xx_ll_usb.c ****     {
 3076              		.loc 1 461 8 view .LVU1075
 3077 0046 013A     		subs	r2, r2, #1
 3078              	.LVL247:
 461:Drivers/STM32F4xx_HAL_Driver/Src/stm32f4xx_ll_usb.c ****     {
 3079              		.loc 1 461 8 view .LVU1076
 3080 0048 07D0     		beq	.L269
 3081              	.LVL248:
 3082              	.L271:
 459:Drivers/STM32F4xx_HAL_Driver/Src/stm32f4xx_ll_usb.c ****   {
 3083              		.loc 1 459 3 is_stmt 1 view .LVU1077
 461:Drivers/STM32F4xx_HAL_Driver/Src/stm32f4xx_ll_usb.c ****     {
 3084              		.loc 1 461 5 view .LVU1078
 465:Drivers/STM32F4xx_HAL_Driver/Src/stm32f4xx_ll_usb.c **** 
 3085              		.loc 1 465 11 view .LVU1079
 465:Drivers/STM32F4xx_HAL_Driver/Src/stm32f4xx_ll_usb.c **** 
 3086              		.loc 1 465 17 is_stmt 0 view .LVU1080
 3087 004a 0369     		ldr	r3, [r0, #16]
 465:Drivers/STM32F4xx_HAL_Driver/Src/stm32f4xx_ll_usb.c **** 
 3088              		.loc 1 465 3 view .LVU1081
 3089 004c 13F02003 		ands	r3, r3, #32
 3090 0050 F9D1     		bne	.L270
 467:Drivers/STM32F4xx_HAL_Driver/Src/stm32f4xx_ll_usb.c **** }
 3091              		.loc 1 467 10 view .LVU1082
 3092 0052 1846     		mov	r0, r3
 3093              	.LVL249:
 467:Drivers/STM32F4xx_HAL_Driver/Src/stm32f4xx_ll_usb.c **** }
 3094              		.loc 1 467 10 view .LVU1083
 3095              	.LBE64:
 3096              	.LBE63:
1097:Drivers/STM32F4xx_HAL_Driver/Src/stm32f4xx_ll_usb.c **** 
 3097              		.loc 1 1097 1 view .LVU1084
 3098 0054 5DF8044B 		ldr	r4, [sp], #4
 3099              	.LCFI35:
 3100              		.cfi_remember_state
 3101              		.cfi_restore 4
 3102              		.cfi_def_cfa_offset 0
 3103 0058 7047     		bx	lr
 3104              	.LVL250:
 3105              	.L269:
 3106              	.LCFI36:
 3107              		.cfi_restore_state
 3108              	.LBB65:
 3109              	.LBB60:
 485:Drivers/STM32F4xx_HAL_Driver/Src/stm32f4xx_ll_usb.c ****     }
ARM GAS  /tmp/ccDzXOxq.s 			page 97


 3110              		.loc 1 485 14 view .LVU1085
 3111 005a 0320     		movs	r0, #3
 3112              	.LVL251:
 485:Drivers/STM32F4xx_HAL_Driver/Src/stm32f4xx_ll_usb.c ****     }
 3113              		.loc 1 485 14 view .LVU1086
 3114              	.LBE60:
 3115              	.LBE65:
1097:Drivers/STM32F4xx_HAL_Driver/Src/stm32f4xx_ll_usb.c **** 
 3116              		.loc 1 1097 1 view .LVU1087
 3117 005c 5DF8044B 		ldr	r4, [sp], #4
 3118              	.LCFI37:
 3119              		.cfi_restore 4
 3120              		.cfi_def_cfa_offset 0
 3121 0060 7047     		bx	lr
 3122              	.L282:
 3123 0062 00BF     		.align	2
 3124              	.L281:
 3125 0064 400D0300 		.word	200000
 3126              		.cfi_endproc
 3127              	.LFE150:
 3129              		.section	.text.USB_SetDevAddress,"ax",%progbits
 3130              		.align	1
 3131              		.p2align 2,,3
 3132              		.global	USB_SetDevAddress
 3133              		.syntax unified
 3134              		.thumb
 3135              		.thumb_func
 3136              		.fpu fpv4-sp-d16
 3138              	USB_SetDevAddress:
 3139              	.LVL252:
 3140              	.LFB151:
1107:Drivers/STM32F4xx_HAL_Driver/Src/stm32f4xx_ll_usb.c ****   uint32_t USBx_BASE = (uint32_t)USBx;
 3141              		.loc 1 1107 1 is_stmt 1 view -0
 3142              		.cfi_startproc
 3143              		@ args = 0, pretend = 0, frame = 0
 3144              		@ frame_needed = 0, uses_anonymous_args = 0
 3145              		@ link register save eliminated.
1108:Drivers/STM32F4xx_HAL_Driver/Src/stm32f4xx_ll_usb.c **** 
 3146              		.loc 1 1108 3 view .LVU1089
1110:Drivers/STM32F4xx_HAL_Driver/Src/stm32f4xx_ll_usb.c ****   USBx_DEVICE->DCFG |= ((uint32_t)address << 4) & USB_OTG_DCFG_DAD;
 3147              		.loc 1 1110 3 view .LVU1090
1110:Drivers/STM32F4xx_HAL_Driver/Src/stm32f4xx_ll_usb.c ****   USBx_DEVICE->DCFG |= ((uint32_t)address << 4) & USB_OTG_DCFG_DAD;
 3148              		.loc 1 1110 21 is_stmt 0 view .LVU1091
 3149 0000 D0F80038 		ldr	r3, [r0, #2048]
 3150 0004 23F4FE63 		bic	r3, r3, #2032
 3151 0008 C0F80038 		str	r3, [r0, #2048]
1111:Drivers/STM32F4xx_HAL_Driver/Src/stm32f4xx_ll_usb.c **** 
 3152              		.loc 1 1111 3 is_stmt 1 view .LVU1092
1111:Drivers/STM32F4xx_HAL_Driver/Src/stm32f4xx_ll_usb.c **** 
 3153              		.loc 1 1111 21 is_stmt 0 view .LVU1093
 3154 000c D0F80038 		ldr	r3, [r0, #2048]
1111:Drivers/STM32F4xx_HAL_Driver/Src/stm32f4xx_ll_usb.c **** 
 3155              		.loc 1 1111 43 view .LVU1094
 3156 0010 0901     		lsls	r1, r1, #4
 3157              	.LVL253:
1111:Drivers/STM32F4xx_HAL_Driver/Src/stm32f4xx_ll_usb.c **** 
 3158              		.loc 1 1111 49 view .LVU1095
ARM GAS  /tmp/ccDzXOxq.s 			page 98


 3159 0012 01F4FE61 		and	r1, r1, #2032
1111:Drivers/STM32F4xx_HAL_Driver/Src/stm32f4xx_ll_usb.c **** 
 3160              		.loc 1 1111 21 view .LVU1096
 3161 0016 1943     		orrs	r1, r1, r3
 3162 0018 C0F80018 		str	r1, [r0, #2048]
1113:Drivers/STM32F4xx_HAL_Driver/Src/stm32f4xx_ll_usb.c **** }
 3163              		.loc 1 1113 3 is_stmt 1 view .LVU1097
1114:Drivers/STM32F4xx_HAL_Driver/Src/stm32f4xx_ll_usb.c **** 
 3164              		.loc 1 1114 1 is_stmt 0 view .LVU1098
 3165 001c 0020     		movs	r0, #0
 3166              	.LVL254:
1114:Drivers/STM32F4xx_HAL_Driver/Src/stm32f4xx_ll_usb.c **** 
 3167              		.loc 1 1114 1 view .LVU1099
 3168 001e 7047     		bx	lr
 3169              		.cfi_endproc
 3170              	.LFE151:
 3172              		.section	.text.USB_DevConnect,"ax",%progbits
 3173              		.align	1
 3174              		.p2align 2,,3
 3175              		.global	USB_DevConnect
 3176              		.syntax unified
 3177              		.thumb
 3178              		.thumb_func
 3179              		.fpu fpv4-sp-d16
 3181              	USB_DevConnect:
 3182              	.LVL255:
 3183              	.LFB152:
1122:Drivers/STM32F4xx_HAL_Driver/Src/stm32f4xx_ll_usb.c ****   uint32_t USBx_BASE = (uint32_t)USBx;
 3184              		.loc 1 1122 1 is_stmt 1 view -0
 3185              		.cfi_startproc
 3186              		@ args = 0, pretend = 0, frame = 0
 3187              		@ frame_needed = 0, uses_anonymous_args = 0
 3188              		@ link register save eliminated.
1123:Drivers/STM32F4xx_HAL_Driver/Src/stm32f4xx_ll_usb.c **** 
 3189              		.loc 1 1123 3 view .LVU1101
1126:Drivers/STM32F4xx_HAL_Driver/Src/stm32f4xx_ll_usb.c **** 
 3190              		.loc 1 1126 3 view .LVU1102
1126:Drivers/STM32F4xx_HAL_Driver/Src/stm32f4xx_ll_usb.c **** 
 3191              		.loc 1 1126 16 is_stmt 0 view .LVU1103
 3192 0000 D0F8003E 		ldr	r3, [r0, #3584]
 3193 0004 23F00303 		bic	r3, r3, #3
 3194 0008 C0F8003E 		str	r3, [r0, #3584]
1128:Drivers/STM32F4xx_HAL_Driver/Src/stm32f4xx_ll_usb.c **** 
 3195              		.loc 1 1128 3 is_stmt 1 view .LVU1104
1128:Drivers/STM32F4xx_HAL_Driver/Src/stm32f4xx_ll_usb.c **** 
 3196              		.loc 1 1128 21 is_stmt 0 view .LVU1105
 3197 000c D0F80438 		ldr	r3, [r0, #2052]
 3198 0010 23F00203 		bic	r3, r3, #2
 3199 0014 C0F80438 		str	r3, [r0, #2052]
1130:Drivers/STM32F4xx_HAL_Driver/Src/stm32f4xx_ll_usb.c **** }
 3200              		.loc 1 1130 3 is_stmt 1 view .LVU1106
1131:Drivers/STM32F4xx_HAL_Driver/Src/stm32f4xx_ll_usb.c **** 
 3201              		.loc 1 1131 1 is_stmt 0 view .LVU1107
 3202 0018 0020     		movs	r0, #0
 3203              	.LVL256:
1131:Drivers/STM32F4xx_HAL_Driver/Src/stm32f4xx_ll_usb.c **** 
 3204              		.loc 1 1131 1 view .LVU1108
ARM GAS  /tmp/ccDzXOxq.s 			page 99


 3205 001a 7047     		bx	lr
 3206              		.cfi_endproc
 3207              	.LFE152:
 3209              		.section	.text.USB_DevDisconnect,"ax",%progbits
 3210              		.align	1
 3211              		.p2align 2,,3
 3212              		.global	USB_DevDisconnect
 3213              		.syntax unified
 3214              		.thumb
 3215              		.thumb_func
 3216              		.fpu fpv4-sp-d16
 3218              	USB_DevDisconnect:
 3219              	.LVL257:
 3220              	.LFB153:
1139:Drivers/STM32F4xx_HAL_Driver/Src/stm32f4xx_ll_usb.c ****   uint32_t USBx_BASE = (uint32_t)USBx;
 3221              		.loc 1 1139 1 is_stmt 1 view -0
 3222              		.cfi_startproc
 3223              		@ args = 0, pretend = 0, frame = 0
 3224              		@ frame_needed = 0, uses_anonymous_args = 0
 3225              		@ link register save eliminated.
1140:Drivers/STM32F4xx_HAL_Driver/Src/stm32f4xx_ll_usb.c **** 
 3226              		.loc 1 1140 3 view .LVU1110
1143:Drivers/STM32F4xx_HAL_Driver/Src/stm32f4xx_ll_usb.c **** 
 3227              		.loc 1 1143 3 view .LVU1111
1143:Drivers/STM32F4xx_HAL_Driver/Src/stm32f4xx_ll_usb.c **** 
 3228              		.loc 1 1143 16 is_stmt 0 view .LVU1112
 3229 0000 D0F8003E 		ldr	r3, [r0, #3584]
 3230 0004 23F00303 		bic	r3, r3, #3
 3231 0008 C0F8003E 		str	r3, [r0, #3584]
1145:Drivers/STM32F4xx_HAL_Driver/Src/stm32f4xx_ll_usb.c **** 
 3232              		.loc 1 1145 3 is_stmt 1 view .LVU1113
1145:Drivers/STM32F4xx_HAL_Driver/Src/stm32f4xx_ll_usb.c **** 
 3233              		.loc 1 1145 21 is_stmt 0 view .LVU1114
 3234 000c D0F80438 		ldr	r3, [r0, #2052]
 3235 0010 43F00203 		orr	r3, r3, #2
 3236 0014 C0F80438 		str	r3, [r0, #2052]
1147:Drivers/STM32F4xx_HAL_Driver/Src/stm32f4xx_ll_usb.c **** }
 3237              		.loc 1 1147 3 is_stmt 1 view .LVU1115
1148:Drivers/STM32F4xx_HAL_Driver/Src/stm32f4xx_ll_usb.c **** 
 3238              		.loc 1 1148 1 is_stmt 0 view .LVU1116
 3239 0018 0020     		movs	r0, #0
 3240              	.LVL258:
1148:Drivers/STM32F4xx_HAL_Driver/Src/stm32f4xx_ll_usb.c **** 
 3241              		.loc 1 1148 1 view .LVU1117
 3242 001a 7047     		bx	lr
 3243              		.cfi_endproc
 3244              	.LFE153:
 3246              		.section	.text.USB_ReadInterrupts,"ax",%progbits
 3247              		.align	1
 3248              		.p2align 2,,3
 3249              		.global	USB_ReadInterrupts
 3250              		.syntax unified
 3251              		.thumb
 3252              		.thumb_func
 3253              		.fpu fpv4-sp-d16
 3255              	USB_ReadInterrupts:
 3256              	.LVL259:
ARM GAS  /tmp/ccDzXOxq.s 			page 100


 3257              	.LFB154:
1156:Drivers/STM32F4xx_HAL_Driver/Src/stm32f4xx_ll_usb.c ****   uint32_t tmpreg;
 3258              		.loc 1 1156 1 is_stmt 1 view -0
 3259              		.cfi_startproc
 3260              		@ args = 0, pretend = 0, frame = 0
 3261              		@ frame_needed = 0, uses_anonymous_args = 0
 3262              		@ link register save eliminated.
1157:Drivers/STM32F4xx_HAL_Driver/Src/stm32f4xx_ll_usb.c **** 
 3263              		.loc 1 1157 3 view .LVU1119
1159:Drivers/STM32F4xx_HAL_Driver/Src/stm32f4xx_ll_usb.c ****   tmpreg &= USBx->GINTMSK;
 3264              		.loc 1 1159 3 view .LVU1120
1159:Drivers/STM32F4xx_HAL_Driver/Src/stm32f4xx_ll_usb.c ****   tmpreg &= USBx->GINTMSK;
 3265              		.loc 1 1159 10 is_stmt 0 view .LVU1121
 3266 0000 4269     		ldr	r2, [r0, #20]
 3267              	.LVL260:
1160:Drivers/STM32F4xx_HAL_Driver/Src/stm32f4xx_ll_usb.c **** 
 3268              		.loc 1 1160 3 is_stmt 1 view .LVU1122
1160:Drivers/STM32F4xx_HAL_Driver/Src/stm32f4xx_ll_usb.c **** 
 3269              		.loc 1 1160 17 is_stmt 0 view .LVU1123
 3270 0002 8069     		ldr	r0, [r0, #24]
 3271              	.LVL261:
1162:Drivers/STM32F4xx_HAL_Driver/Src/stm32f4xx_ll_usb.c **** }
 3272              		.loc 1 1162 3 is_stmt 1 view .LVU1124
1163:Drivers/STM32F4xx_HAL_Driver/Src/stm32f4xx_ll_usb.c **** 
 3273              		.loc 1 1163 1 is_stmt 0 view .LVU1125
 3274 0004 1040     		ands	r0, r0, r2
 3275              	.LVL262:
1163:Drivers/STM32F4xx_HAL_Driver/Src/stm32f4xx_ll_usb.c **** 
 3276              		.loc 1 1163 1 view .LVU1126
 3277 0006 7047     		bx	lr
 3278              		.cfi_endproc
 3279              	.LFE154:
 3281              		.section	.text.USB_ReadDevAllOutEpInterrupt,"ax",%progbits
 3282              		.align	1
 3283              		.p2align 2,,3
 3284              		.global	USB_ReadDevAllOutEpInterrupt
 3285              		.syntax unified
 3286              		.thumb
 3287              		.thumb_func
 3288              		.fpu fpv4-sp-d16
 3290              	USB_ReadDevAllOutEpInterrupt:
 3291              	.LVL263:
 3292              	.LFB155:
1171:Drivers/STM32F4xx_HAL_Driver/Src/stm32f4xx_ll_usb.c ****   uint32_t USBx_BASE = (uint32_t)USBx;
 3293              		.loc 1 1171 1 is_stmt 1 view -0
 3294              		.cfi_startproc
 3295              		@ args = 0, pretend = 0, frame = 0
 3296              		@ frame_needed = 0, uses_anonymous_args = 0
 3297              		@ link register save eliminated.
1172:Drivers/STM32F4xx_HAL_Driver/Src/stm32f4xx_ll_usb.c ****   uint32_t tmpreg;
 3298              		.loc 1 1172 3 view .LVU1128
1173:Drivers/STM32F4xx_HAL_Driver/Src/stm32f4xx_ll_usb.c **** 
 3299              		.loc 1 1173 3 view .LVU1129
1175:Drivers/STM32F4xx_HAL_Driver/Src/stm32f4xx_ll_usb.c ****   tmpreg &= USBx_DEVICE->DAINTMSK;
 3300              		.loc 1 1175 3 view .LVU1130
1175:Drivers/STM32F4xx_HAL_Driver/Src/stm32f4xx_ll_usb.c ****   tmpreg &= USBx_DEVICE->DAINTMSK;
 3301              		.loc 1 1175 11 is_stmt 0 view .LVU1131
ARM GAS  /tmp/ccDzXOxq.s 			page 101


 3302 0000 D0F81838 		ldr	r3, [r0, #2072]
1175:Drivers/STM32F4xx_HAL_Driver/Src/stm32f4xx_ll_usb.c ****   tmpreg &= USBx_DEVICE->DAINTMSK;
 3303              		.loc 1 1175 13 view .LVU1132
 3304 0004 00F50060 		add	r0, r0, #2048
 3305              	.LVL264:
1176:Drivers/STM32F4xx_HAL_Driver/Src/stm32f4xx_ll_usb.c **** 
 3306              		.loc 1 1176 3 is_stmt 1 view .LVU1133
1176:Drivers/STM32F4xx_HAL_Driver/Src/stm32f4xx_ll_usb.c **** 
 3307              		.loc 1 1176 24 is_stmt 0 view .LVU1134
 3308 0008 C069     		ldr	r0, [r0, #28]
 3309              	.LVL265:
1178:Drivers/STM32F4xx_HAL_Driver/Src/stm32f4xx_ll_usb.c **** }
 3310              		.loc 1 1178 3 is_stmt 1 view .LVU1135
1176:Drivers/STM32F4xx_HAL_Driver/Src/stm32f4xx_ll_usb.c **** 
 3311              		.loc 1 1176 10 is_stmt 0 view .LVU1136
 3312 000a 1840     		ands	r0, r0, r3
 3313              	.LVL266:
1179:Drivers/STM32F4xx_HAL_Driver/Src/stm32f4xx_ll_usb.c **** 
 3314              		.loc 1 1179 1 view .LVU1137
 3315 000c 000C     		lsrs	r0, r0, #16
 3316              	.LVL267:
1179:Drivers/STM32F4xx_HAL_Driver/Src/stm32f4xx_ll_usb.c **** 
 3317              		.loc 1 1179 1 view .LVU1138
 3318 000e 7047     		bx	lr
 3319              		.cfi_endproc
 3320              	.LFE155:
 3322              		.section	.text.USB_ReadDevAllInEpInterrupt,"ax",%progbits
 3323              		.align	1
 3324              		.p2align 2,,3
 3325              		.global	USB_ReadDevAllInEpInterrupt
 3326              		.syntax unified
 3327              		.thumb
 3328              		.thumb_func
 3329              		.fpu fpv4-sp-d16
 3331              	USB_ReadDevAllInEpInterrupt:
 3332              	.LVL268:
 3333              	.LFB156:
1187:Drivers/STM32F4xx_HAL_Driver/Src/stm32f4xx_ll_usb.c ****   uint32_t USBx_BASE = (uint32_t)USBx;
 3334              		.loc 1 1187 1 is_stmt 1 view -0
 3335              		.cfi_startproc
 3336              		@ args = 0, pretend = 0, frame = 0
 3337              		@ frame_needed = 0, uses_anonymous_args = 0
 3338              		@ link register save eliminated.
1188:Drivers/STM32F4xx_HAL_Driver/Src/stm32f4xx_ll_usb.c ****   uint32_t tmpreg;
 3339              		.loc 1 1188 3 view .LVU1140
1189:Drivers/STM32F4xx_HAL_Driver/Src/stm32f4xx_ll_usb.c **** 
 3340              		.loc 1 1189 3 view .LVU1141
1191:Drivers/STM32F4xx_HAL_Driver/Src/stm32f4xx_ll_usb.c ****   tmpreg &= USBx_DEVICE->DAINTMSK;
 3341              		.loc 1 1191 3 view .LVU1142
1191:Drivers/STM32F4xx_HAL_Driver/Src/stm32f4xx_ll_usb.c ****   tmpreg &= USBx_DEVICE->DAINTMSK;
 3342              		.loc 1 1191 11 is_stmt 0 view .LVU1143
 3343 0000 D0F81838 		ldr	r3, [r0, #2072]
1191:Drivers/STM32F4xx_HAL_Driver/Src/stm32f4xx_ll_usb.c ****   tmpreg &= USBx_DEVICE->DAINTMSK;
 3344              		.loc 1 1191 13 view .LVU1144
 3345 0004 00F50060 		add	r0, r0, #2048
 3346              	.LVL269:
1192:Drivers/STM32F4xx_HAL_Driver/Src/stm32f4xx_ll_usb.c **** 
ARM GAS  /tmp/ccDzXOxq.s 			page 102


 3347              		.loc 1 1192 3 is_stmt 1 view .LVU1145
1192:Drivers/STM32F4xx_HAL_Driver/Src/stm32f4xx_ll_usb.c **** 
 3348              		.loc 1 1192 24 is_stmt 0 view .LVU1146
 3349 0008 C069     		ldr	r0, [r0, #28]
 3350              	.LVL270:
1194:Drivers/STM32F4xx_HAL_Driver/Src/stm32f4xx_ll_usb.c **** }
 3351              		.loc 1 1194 3 is_stmt 1 view .LVU1147
1192:Drivers/STM32F4xx_HAL_Driver/Src/stm32f4xx_ll_usb.c **** 
 3352              		.loc 1 1192 10 is_stmt 0 view .LVU1148
 3353 000a 1840     		ands	r0, r0, r3
 3354              	.LVL271:
1195:Drivers/STM32F4xx_HAL_Driver/Src/stm32f4xx_ll_usb.c **** 
 3355              		.loc 1 1195 1 view .LVU1149
 3356 000c 80B2     		uxth	r0, r0
 3357              	.LVL272:
1195:Drivers/STM32F4xx_HAL_Driver/Src/stm32f4xx_ll_usb.c **** 
 3358              		.loc 1 1195 1 view .LVU1150
 3359 000e 7047     		bx	lr
 3360              		.cfi_endproc
 3361              	.LFE156:
 3363              		.section	.text.USB_ReadDevOutEPInterrupt,"ax",%progbits
 3364              		.align	1
 3365              		.p2align 2,,3
 3366              		.global	USB_ReadDevOutEPInterrupt
 3367              		.syntax unified
 3368              		.thumb
 3369              		.thumb_func
 3370              		.fpu fpv4-sp-d16
 3372              	USB_ReadDevOutEPInterrupt:
 3373              	.LVL273:
 3374              	.LFB157:
1205:Drivers/STM32F4xx_HAL_Driver/Src/stm32f4xx_ll_usb.c ****   uint32_t USBx_BASE = (uint32_t)USBx;
 3375              		.loc 1 1205 1 is_stmt 1 view -0
 3376              		.cfi_startproc
 3377              		@ args = 0, pretend = 0, frame = 0
 3378              		@ frame_needed = 0, uses_anonymous_args = 0
 3379              		@ link register save eliminated.
1206:Drivers/STM32F4xx_HAL_Driver/Src/stm32f4xx_ll_usb.c ****   uint32_t tmpreg;
 3380              		.loc 1 1206 3 view .LVU1152
1207:Drivers/STM32F4xx_HAL_Driver/Src/stm32f4xx_ll_usb.c **** 
 3381              		.loc 1 1207 3 view .LVU1153
1209:Drivers/STM32F4xx_HAL_Driver/Src/stm32f4xx_ll_usb.c ****   tmpreg &= USBx_DEVICE->DOEPMSK;
 3382              		.loc 1 1209 3 view .LVU1154
1209:Drivers/STM32F4xx_HAL_Driver/Src/stm32f4xx_ll_usb.c ****   tmpreg &= USBx_DEVICE->DOEPMSK;
 3383              		.loc 1 1209 13 is_stmt 0 view .LVU1155
 3384 0000 00EB4111 		add	r1, r0, r1, lsl #5
 3385              	.LVL274:
1210:Drivers/STM32F4xx_HAL_Driver/Src/stm32f4xx_ll_usb.c **** 
 3386              		.loc 1 1210 13 view .LVU1156
 3387 0004 00F50060 		add	r0, r0, #2048
 3388              	.LVL275:
1209:Drivers/STM32F4xx_HAL_Driver/Src/stm32f4xx_ll_usb.c ****   tmpreg &= USBx_DEVICE->DOEPMSK;
 3389              		.loc 1 1209 11 view .LVU1157
 3390 0008 D1F8082B 		ldr	r2, [r1, #2824]
 3391              	.LVL276:
1210:Drivers/STM32F4xx_HAL_Driver/Src/stm32f4xx_ll_usb.c **** 
 3392              		.loc 1 1210 3 is_stmt 1 view .LVU1158
ARM GAS  /tmp/ccDzXOxq.s 			page 103


1210:Drivers/STM32F4xx_HAL_Driver/Src/stm32f4xx_ll_usb.c **** 
 3393              		.loc 1 1210 24 is_stmt 0 view .LVU1159
 3394 000c 4069     		ldr	r0, [r0, #20]
 3395              	.LVL277:
1212:Drivers/STM32F4xx_HAL_Driver/Src/stm32f4xx_ll_usb.c **** }
 3396              		.loc 1 1212 3 is_stmt 1 view .LVU1160
1213:Drivers/STM32F4xx_HAL_Driver/Src/stm32f4xx_ll_usb.c **** 
 3397              		.loc 1 1213 1 is_stmt 0 view .LVU1161
 3398 000e 1040     		ands	r0, r0, r2
 3399              	.LVL278:
1213:Drivers/STM32F4xx_HAL_Driver/Src/stm32f4xx_ll_usb.c **** 
 3400              		.loc 1 1213 1 view .LVU1162
 3401 0010 7047     		bx	lr
 3402              		.cfi_endproc
 3403              	.LFE157:
 3405 0012 00BF     		.section	.text.USB_ReadDevInEPInterrupt,"ax",%progbits
 3406              		.align	1
 3407              		.p2align 2,,3
 3408              		.global	USB_ReadDevInEPInterrupt
 3409              		.syntax unified
 3410              		.thumb
 3411              		.thumb_func
 3412              		.fpu fpv4-sp-d16
 3414              	USB_ReadDevInEPInterrupt:
 3415              	.LVL279:
 3416              	.LFB158:
1223:Drivers/STM32F4xx_HAL_Driver/Src/stm32f4xx_ll_usb.c ****   uint32_t USBx_BASE = (uint32_t)USBx;
 3417              		.loc 1 1223 1 is_stmt 1 view -0
 3418              		.cfi_startproc
 3419              		@ args = 0, pretend = 0, frame = 0
 3420              		@ frame_needed = 0, uses_anonymous_args = 0
 3421              		@ link register save eliminated.
1224:Drivers/STM32F4xx_HAL_Driver/Src/stm32f4xx_ll_usb.c ****   uint32_t tmpreg, msk, emp;
 3422              		.loc 1 1224 3 view .LVU1164
1225:Drivers/STM32F4xx_HAL_Driver/Src/stm32f4xx_ll_usb.c **** 
 3423              		.loc 1 1225 3 view .LVU1165
1227:Drivers/STM32F4xx_HAL_Driver/Src/stm32f4xx_ll_usb.c ****   emp = USBx_DEVICE->DIEPEMPMSK;
 3424              		.loc 1 1227 3 view .LVU1166
1223:Drivers/STM32F4xx_HAL_Driver/Src/stm32f4xx_ll_usb.c ****   uint32_t USBx_BASE = (uint32_t)USBx;
 3425              		.loc 1 1223 1 is_stmt 0 view .LVU1167
 3426 0000 10B4     		push	{r4}
 3427              	.LCFI38:
 3428              		.cfi_def_cfa_offset 4
 3429              		.cfi_offset 4, -4
1227:Drivers/STM32F4xx_HAL_Driver/Src/stm32f4xx_ll_usb.c ****   emp = USBx_DEVICE->DIEPEMPMSK;
 3430              		.loc 1 1227 7 view .LVU1168
 3431 0002 D0F81048 		ldr	r4, [r0, #2064]
 3432              	.LVL280:
1228:Drivers/STM32F4xx_HAL_Driver/Src/stm32f4xx_ll_usb.c ****   msk |= ((emp >> (epnum & EP_ADDR_MSK)) & 0x1U) << 7;
 3433              		.loc 1 1228 3 is_stmt 1 view .LVU1169
1228:Drivers/STM32F4xx_HAL_Driver/Src/stm32f4xx_ll_usb.c ****   msk |= ((emp >> (epnum & EP_ADDR_MSK)) & 0x1U) << 7;
 3434              		.loc 1 1228 7 is_stmt 0 view .LVU1170
 3435 0006 D0F83438 		ldr	r3, [r0, #2100]
 3436              	.LVL281:
1229:Drivers/STM32F4xx_HAL_Driver/Src/stm32f4xx_ll_usb.c ****   tmpreg = USBx_INEP((uint32_t)epnum)->DIEPINT & msk;
 3437              		.loc 1 1229 3 is_stmt 1 view .LVU1171
1230:Drivers/STM32F4xx_HAL_Driver/Src/stm32f4xx_ll_usb.c **** 
ARM GAS  /tmp/ccDzXOxq.s 			page 104


 3438              		.loc 1 1230 3 view .LVU1172
1230:Drivers/STM32F4xx_HAL_Driver/Src/stm32f4xx_ll_usb.c **** 
 3439              		.loc 1 1230 12 is_stmt 0 view .LVU1173
 3440 000a 00EB4110 		add	r0, r0, r1, lsl #5
 3441              	.LVL282:
1229:Drivers/STM32F4xx_HAL_Driver/Src/stm32f4xx_ll_usb.c ****   tmpreg = USBx_INEP((uint32_t)epnum)->DIEPINT & msk;
 3442              		.loc 1 1229 26 view .LVU1174
 3443 000e 01F00F01 		and	r1, r1, #15
 3444              	.LVL283:
1230:Drivers/STM32F4xx_HAL_Driver/Src/stm32f4xx_ll_usb.c **** 
 3445              		.loc 1 1230 12 view .LVU1175
 3446 0012 00F51060 		add	r0, r0, #2304
1229:Drivers/STM32F4xx_HAL_Driver/Src/stm32f4xx_ll_usb.c ****   tmpreg = USBx_INEP((uint32_t)epnum)->DIEPINT & msk;
 3447              		.loc 1 1229 16 view .LVU1176
 3448 0016 CB40     		lsrs	r3, r3, r1
 3449              	.LVL284:
1229:Drivers/STM32F4xx_HAL_Driver/Src/stm32f4xx_ll_usb.c ****   tmpreg = USBx_INEP((uint32_t)epnum)->DIEPINT & msk;
 3450              		.loc 1 1229 50 view .LVU1177
 3451 0018 DB01     		lsls	r3, r3, #7
1230:Drivers/STM32F4xx_HAL_Driver/Src/stm32f4xx_ll_usb.c **** 
 3452              		.loc 1 1230 38 view .LVU1178
 3453 001a 8068     		ldr	r0, [r0, #8]
 3454              	.LVL285:
1232:Drivers/STM32F4xx_HAL_Driver/Src/stm32f4xx_ll_usb.c **** }
 3455              		.loc 1 1232 3 is_stmt 1 view .LVU1179
1229:Drivers/STM32F4xx_HAL_Driver/Src/stm32f4xx_ll_usb.c ****   tmpreg = USBx_INEP((uint32_t)epnum)->DIEPINT & msk;
 3456              		.loc 1 1229 50 is_stmt 0 view .LVU1180
 3457 001c DBB2     		uxtb	r3, r3
1229:Drivers/STM32F4xx_HAL_Driver/Src/stm32f4xx_ll_usb.c ****   tmpreg = USBx_INEP((uint32_t)epnum)->DIEPINT & msk;
 3458              		.loc 1 1229 7 view .LVU1181
 3459 001e 2343     		orrs	r3, r3, r4
1233:Drivers/STM32F4xx_HAL_Driver/Src/stm32f4xx_ll_usb.c **** 
 3460              		.loc 1 1233 1 view .LVU1182
 3461 0020 1840     		ands	r0, r0, r3
 3462 0022 5DF8044B 		ldr	r4, [sp], #4
 3463              	.LCFI39:
 3464              		.cfi_restore 4
 3465              		.cfi_def_cfa_offset 0
 3466 0026 7047     		bx	lr
 3467              		.cfi_endproc
 3468              	.LFE158:
 3470              		.section	.text.USB_ClearInterrupts,"ax",%progbits
 3471              		.align	1
 3472              		.p2align 2,,3
 3473              		.global	USB_ClearInterrupts
 3474              		.syntax unified
 3475              		.thumb
 3476              		.thumb_func
 3477              		.fpu fpv4-sp-d16
 3479              	USB_ClearInterrupts:
 3480              	.LVL286:
 3481              	.LFB159:
1242:Drivers/STM32F4xx_HAL_Driver/Src/stm32f4xx_ll_usb.c ****   USBx->GINTSTS |= interrupt;
 3482              		.loc 1 1242 1 is_stmt 1 view -0
 3483              		.cfi_startproc
 3484              		@ args = 0, pretend = 0, frame = 0
 3485              		@ frame_needed = 0, uses_anonymous_args = 0
ARM GAS  /tmp/ccDzXOxq.s 			page 105


 3486              		@ link register save eliminated.
1243:Drivers/STM32F4xx_HAL_Driver/Src/stm32f4xx_ll_usb.c **** }
 3487              		.loc 1 1243 3 view .LVU1184
1243:Drivers/STM32F4xx_HAL_Driver/Src/stm32f4xx_ll_usb.c **** }
 3488              		.loc 1 1243 17 is_stmt 0 view .LVU1185
 3489 0000 4369     		ldr	r3, [r0, #20]
 3490 0002 1943     		orrs	r1, r1, r3
 3491              	.LVL287:
1243:Drivers/STM32F4xx_HAL_Driver/Src/stm32f4xx_ll_usb.c **** }
 3492              		.loc 1 1243 17 view .LVU1186
 3493 0004 4161     		str	r1, [r0, #20]
1244:Drivers/STM32F4xx_HAL_Driver/Src/stm32f4xx_ll_usb.c **** 
 3494              		.loc 1 1244 1 view .LVU1187
 3495 0006 7047     		bx	lr
 3496              		.cfi_endproc
 3497              	.LFE159:
 3499              		.section	.text.USB_GetMode,"ax",%progbits
 3500              		.align	1
 3501              		.p2align 2,,3
 3502              		.global	USB_GetMode
 3503              		.syntax unified
 3504              		.thumb
 3505              		.thumb_func
 3506              		.fpu fpv4-sp-d16
 3508              	USB_GetMode:
 3509              	.LVL288:
 3510              	.LFB160:
1255:Drivers/STM32F4xx_HAL_Driver/Src/stm32f4xx_ll_usb.c ****   return ((USBx->GINTSTS) & 0x1U);
 3511              		.loc 1 1255 1 is_stmt 1 view -0
 3512              		.cfi_startproc
 3513              		@ args = 0, pretend = 0, frame = 0
 3514              		@ frame_needed = 0, uses_anonymous_args = 0
 3515              		@ link register save eliminated.
1256:Drivers/STM32F4xx_HAL_Driver/Src/stm32f4xx_ll_usb.c **** }
 3516              		.loc 1 1256 3 view .LVU1189
1256:Drivers/STM32F4xx_HAL_Driver/Src/stm32f4xx_ll_usb.c **** }
 3517              		.loc 1 1256 16 is_stmt 0 view .LVU1190
 3518 0000 4069     		ldr	r0, [r0, #20]
 3519              	.LVL289:
1257:Drivers/STM32F4xx_HAL_Driver/Src/stm32f4xx_ll_usb.c **** 
 3520              		.loc 1 1257 1 view .LVU1191
 3521 0002 00F00100 		and	r0, r0, #1
 3522 0006 7047     		bx	lr
 3523              		.cfi_endproc
 3524              	.LFE160:
 3526              		.section	.text.USB_ActivateSetup,"ax",%progbits
 3527              		.align	1
 3528              		.p2align 2,,3
 3529              		.global	USB_ActivateSetup
 3530              		.syntax unified
 3531              		.thumb
 3532              		.thumb_func
 3533              		.fpu fpv4-sp-d16
 3535              	USB_ActivateSetup:
 3536              	.LVL290:
 3537              	.LFB161:
1265:Drivers/STM32F4xx_HAL_Driver/Src/stm32f4xx_ll_usb.c ****   uint32_t USBx_BASE = (uint32_t)USBx;
ARM GAS  /tmp/ccDzXOxq.s 			page 106


 3538              		.loc 1 1265 1 is_stmt 1 view -0
 3539              		.cfi_startproc
 3540              		@ args = 0, pretend = 0, frame = 0
 3541              		@ frame_needed = 0, uses_anonymous_args = 0
 3542              		@ link register save eliminated.
1266:Drivers/STM32F4xx_HAL_Driver/Src/stm32f4xx_ll_usb.c **** 
 3543              		.loc 1 1266 3 view .LVU1193
1269:Drivers/STM32F4xx_HAL_Driver/Src/stm32f4xx_ll_usb.c **** 
 3544              		.loc 1 1269 3 view .LVU1194
1269:Drivers/STM32F4xx_HAL_Driver/Src/stm32f4xx_ll_usb.c **** 
 3545              		.loc 1 1269 26 is_stmt 0 view .LVU1195
 3546 0000 D0F80039 		ldr	r3, [r0, #2304]
 3547 0004 23F4FF63 		bic	r3, r3, #2040
 3548 0008 23F00703 		bic	r3, r3, #7
 3549 000c C0F80039 		str	r3, [r0, #2304]
1271:Drivers/STM32F4xx_HAL_Driver/Src/stm32f4xx_ll_usb.c **** 
 3550              		.loc 1 1271 3 is_stmt 1 view .LVU1196
1271:Drivers/STM32F4xx_HAL_Driver/Src/stm32f4xx_ll_usb.c **** 
 3551              		.loc 1 1271 21 is_stmt 0 view .LVU1197
 3552 0010 D0F80438 		ldr	r3, [r0, #2052]
 3553 0014 43F48073 		orr	r3, r3, #256
 3554 0018 C0F80438 		str	r3, [r0, #2052]
1273:Drivers/STM32F4xx_HAL_Driver/Src/stm32f4xx_ll_usb.c **** }
 3555              		.loc 1 1273 3 is_stmt 1 view .LVU1198
1274:Drivers/STM32F4xx_HAL_Driver/Src/stm32f4xx_ll_usb.c **** 
 3556              		.loc 1 1274 1 is_stmt 0 view .LVU1199
 3557 001c 0020     		movs	r0, #0
 3558              	.LVL291:
1274:Drivers/STM32F4xx_HAL_Driver/Src/stm32f4xx_ll_usb.c **** 
 3559              		.loc 1 1274 1 view .LVU1200
 3560 001e 7047     		bx	lr
 3561              		.cfi_endproc
 3562              	.LFE161:
 3564              		.section	.text.USB_EP0_OutStart,"ax",%progbits
 3565              		.align	1
 3566              		.p2align 2,,3
 3567              		.global	USB_EP0_OutStart
 3568              		.syntax unified
 3569              		.thumb
 3570              		.thumb_func
 3571              		.fpu fpv4-sp-d16
 3573              	USB_EP0_OutStart:
 3574              	.LVL292:
 3575              	.LFB162:
1287:Drivers/STM32F4xx_HAL_Driver/Src/stm32f4xx_ll_usb.c ****   uint32_t USBx_BASE = (uint32_t)USBx;
 3576              		.loc 1 1287 1 is_stmt 1 view -0
 3577              		.cfi_startproc
 3578              		@ args = 0, pretend = 0, frame = 0
 3579              		@ frame_needed = 0, uses_anonymous_args = 0
 3580              		@ link register save eliminated.
1288:Drivers/STM32F4xx_HAL_Driver/Src/stm32f4xx_ll_usb.c ****   uint32_t gSNPSiD = *(__IO uint32_t *)(&USBx->CID + 0x1U);
 3581              		.loc 1 1288 3 view .LVU1202
1289:Drivers/STM32F4xx_HAL_Driver/Src/stm32f4xx_ll_usb.c **** 
 3582              		.loc 1 1289 3 view .LVU1203
1287:Drivers/STM32F4xx_HAL_Driver/Src/stm32f4xx_ll_usb.c ****   uint32_t USBx_BASE = (uint32_t)USBx;
 3583              		.loc 1 1287 1 is_stmt 0 view .LVU1204
 3584 0000 10B4     		push	{r4}
ARM GAS  /tmp/ccDzXOxq.s 			page 107


 3585              	.LCFI40:
 3586              		.cfi_def_cfa_offset 4
 3587              		.cfi_offset 4, -4
1291:Drivers/STM32F4xx_HAL_Driver/Src/stm32f4xx_ll_usb.c ****   {
 3588              		.loc 1 1291 6 view .LVU1205
 3589 0002 144B     		ldr	r3, .L302
1289:Drivers/STM32F4xx_HAL_Driver/Src/stm32f4xx_ll_usb.c **** 
 3590              		.loc 1 1289 12 view .LVU1206
 3591 0004 046C     		ldr	r4, [r0, #64]
 3592              	.LVL293:
1291:Drivers/STM32F4xx_HAL_Driver/Src/stm32f4xx_ll_usb.c ****   {
 3593              		.loc 1 1291 3 is_stmt 1 view .LVU1207
1291:Drivers/STM32F4xx_HAL_Driver/Src/stm32f4xx_ll_usb.c ****   {
 3594              		.loc 1 1291 6 is_stmt 0 view .LVU1208
 3595 0006 9C42     		cmp	r4, r3
 3596 0008 1AD8     		bhi	.L296
 3597 000a 00F53060 		add	r0, r0, #2816
 3598              	.LVL294:
 3599              	.L297:
1299:Drivers/STM32F4xx_HAL_Driver/Src/stm32f4xx_ll_usb.c ****   USBx_OUTEP(0U)->DOEPTSIZ |= (USB_OTG_DOEPTSIZ_PKTCNT & (1U << 19));
 3600              		.loc 1 1299 3 is_stmt 1 view .LVU1209
1299:Drivers/STM32F4xx_HAL_Driver/Src/stm32f4xx_ll_usb.c ****   USBx_OUTEP(0U)->DOEPTSIZ |= (USB_OTG_DOEPTSIZ_PKTCNT & (1U << 19));
 3601              		.loc 1 1299 28 is_stmt 0 view .LVU1210
 3602 000e 0023     		movs	r3, #0
 3603 0010 0361     		str	r3, [r0, #16]
1300:Drivers/STM32F4xx_HAL_Driver/Src/stm32f4xx_ll_usb.c ****   USBx_OUTEP(0U)->DOEPTSIZ |= (3U * 8U);
 3604              		.loc 1 1300 3 is_stmt 1 view .LVU1211
1300:Drivers/STM32F4xx_HAL_Driver/Src/stm32f4xx_ll_usb.c ****   USBx_OUTEP(0U)->DOEPTSIZ |= (3U * 8U);
 3605              		.loc 1 1300 28 is_stmt 0 view .LVU1212
 3606 0012 0369     		ldr	r3, [r0, #16]
 3607 0014 43F40023 		orr	r3, r3, #524288
 3608 0018 0361     		str	r3, [r0, #16]
1301:Drivers/STM32F4xx_HAL_Driver/Src/stm32f4xx_ll_usb.c ****   USBx_OUTEP(0U)->DOEPTSIZ |=  USB_OTG_DOEPTSIZ_STUPCNT;
 3609              		.loc 1 1301 3 is_stmt 1 view .LVU1213
1301:Drivers/STM32F4xx_HAL_Driver/Src/stm32f4xx_ll_usb.c ****   USBx_OUTEP(0U)->DOEPTSIZ |=  USB_OTG_DOEPTSIZ_STUPCNT;
 3610              		.loc 1 1301 28 is_stmt 0 view .LVU1214
 3611 001a 0369     		ldr	r3, [r0, #16]
 3612 001c 43F01803 		orr	r3, r3, #24
 3613 0020 0361     		str	r3, [r0, #16]
1302:Drivers/STM32F4xx_HAL_Driver/Src/stm32f4xx_ll_usb.c **** 
 3614              		.loc 1 1302 3 is_stmt 1 view .LVU1215
1302:Drivers/STM32F4xx_HAL_Driver/Src/stm32f4xx_ll_usb.c **** 
 3615              		.loc 1 1302 28 is_stmt 0 view .LVU1216
 3616 0022 0369     		ldr	r3, [r0, #16]
1304:Drivers/STM32F4xx_HAL_Driver/Src/stm32f4xx_ll_usb.c ****   {
 3617              		.loc 1 1304 6 view .LVU1217
 3618 0024 0129     		cmp	r1, #1
1302:Drivers/STM32F4xx_HAL_Driver/Src/stm32f4xx_ll_usb.c **** 
 3619              		.loc 1 1302 28 view .LVU1218
 3620 0026 43F0C043 		orr	r3, r3, #1610612736
 3621 002a 0361     		str	r3, [r0, #16]
1304:Drivers/STM32F4xx_HAL_Driver/Src/stm32f4xx_ll_usb.c ****   {
 3622              		.loc 1 1304 3 is_stmt 1 view .LVU1219
1304:Drivers/STM32F4xx_HAL_Driver/Src/stm32f4xx_ll_usb.c ****   {
 3623              		.loc 1 1304 6 is_stmt 0 view .LVU1220
 3624 002c 04D1     		bne	.L298
1306:Drivers/STM32F4xx_HAL_Driver/Src/stm32f4xx_ll_usb.c ****     /* EP enable */
ARM GAS  /tmp/ccDzXOxq.s 			page 108


 3625              		.loc 1 1306 5 is_stmt 1 view .LVU1221
1306:Drivers/STM32F4xx_HAL_Driver/Src/stm32f4xx_ll_usb.c ****     /* EP enable */
 3626              		.loc 1 1306 29 is_stmt 0 view .LVU1222
 3627 002e 4261     		str	r2, [r0, #20]
1308:Drivers/STM32F4xx_HAL_Driver/Src/stm32f4xx_ll_usb.c ****   }
 3628              		.loc 1 1308 5 is_stmt 1 view .LVU1223
1308:Drivers/STM32F4xx_HAL_Driver/Src/stm32f4xx_ll_usb.c ****   }
 3629              		.loc 1 1308 29 is_stmt 0 view .LVU1224
 3630 0030 0368     		ldr	r3, [r0]
 3631 0032 43F08023 		orr	r3, r3, #-2147450880
 3632 0036 0360     		str	r3, [r0]
 3633              	.L298:
1312:Drivers/STM32F4xx_HAL_Driver/Src/stm32f4xx_ll_usb.c **** 
 3634              		.loc 1 1312 1 view .LVU1225
 3635 0038 0020     		movs	r0, #0
 3636 003a 5DF8044B 		ldr	r4, [sp], #4
 3637              	.LCFI41:
 3638              		.cfi_remember_state
 3639              		.cfi_restore 4
 3640              		.cfi_def_cfa_offset 0
 3641              	.LVL295:
1312:Drivers/STM32F4xx_HAL_Driver/Src/stm32f4xx_ll_usb.c **** 
 3642              		.loc 1 1312 1 view .LVU1226
 3643 003e 7047     		bx	lr
 3644              	.LVL296:
 3645              	.L296:
 3646              	.LCFI42:
 3647              		.cfi_restore_state
1293:Drivers/STM32F4xx_HAL_Driver/Src/stm32f4xx_ll_usb.c ****     {
 3648              		.loc 1 1293 5 is_stmt 1 view .LVU1227
1293:Drivers/STM32F4xx_HAL_Driver/Src/stm32f4xx_ll_usb.c ****     {
 3649              		.loc 1 1293 24 is_stmt 0 view .LVU1228
 3650 0040 D0F8003B 		ldr	r3, [r0, #2816]
1293:Drivers/STM32F4xx_HAL_Driver/Src/stm32f4xx_ll_usb.c ****     {
 3651              		.loc 1 1293 8 view .LVU1229
 3652 0044 002B     		cmp	r3, #0
1293:Drivers/STM32F4xx_HAL_Driver/Src/stm32f4xx_ll_usb.c ****     {
 3653              		.loc 1 1293 10 view .LVU1230
 3654 0046 00F53060 		add	r0, r0, #2816
 3655              	.LVL297:
1293:Drivers/STM32F4xx_HAL_Driver/Src/stm32f4xx_ll_usb.c ****     {
 3656              		.loc 1 1293 8 view .LVU1231
 3657 004a E0DA     		bge	.L297
1312:Drivers/STM32F4xx_HAL_Driver/Src/stm32f4xx_ll_usb.c **** 
 3658              		.loc 1 1312 1 view .LVU1232
 3659 004c 0020     		movs	r0, #0
 3660              	.LVL298:
1312:Drivers/STM32F4xx_HAL_Driver/Src/stm32f4xx_ll_usb.c **** 
 3661              		.loc 1 1312 1 view .LVU1233
 3662 004e 5DF8044B 		ldr	r4, [sp], #4
 3663              	.LCFI43:
 3664              		.cfi_restore 4
 3665              		.cfi_def_cfa_offset 0
 3666              	.LVL299:
1312:Drivers/STM32F4xx_HAL_Driver/Src/stm32f4xx_ll_usb.c **** 
 3667              		.loc 1 1312 1 view .LVU1234
 3668 0052 7047     		bx	lr
ARM GAS  /tmp/ccDzXOxq.s 			page 109


 3669              	.L303:
 3670              		.align	2
 3671              	.L302:
 3672 0054 0A30544F 		.word	1330917386
 3673              		.cfi_endproc
 3674              	.LFE162:
 3676              		.section	.text.USB_InitFSLSPClkSel,"ax",%progbits
 3677              		.align	1
 3678              		.p2align 2,,3
 3679              		.global	USB_InitFSLSPClkSel
 3680              		.syntax unified
 3681              		.thumb
 3682              		.thumb_func
 3683              		.fpu fpv4-sp-d16
 3685              	USB_InitFSLSPClkSel:
 3686              	.LVL300:
 3687              	.LFB165:
1346:Drivers/STM32F4xx_HAL_Driver/Src/stm32f4xx_ll_usb.c **** 
1347:Drivers/STM32F4xx_HAL_Driver/Src/stm32f4xx_ll_usb.c **** /**
1348:Drivers/STM32F4xx_HAL_Driver/Src/stm32f4xx_ll_usb.c ****   * @brief  USB_HostInit : Initializes the USB OTG controller registers
1349:Drivers/STM32F4xx_HAL_Driver/Src/stm32f4xx_ll_usb.c ****   *         for Host mode
1350:Drivers/STM32F4xx_HAL_Driver/Src/stm32f4xx_ll_usb.c ****   * @param  USBx  Selected device
1351:Drivers/STM32F4xx_HAL_Driver/Src/stm32f4xx_ll_usb.c ****   * @param  cfg   pointer to a USB_OTG_CfgTypeDef structure that contains
1352:Drivers/STM32F4xx_HAL_Driver/Src/stm32f4xx_ll_usb.c ****   *         the configuration information for the specified USBx peripheral.
1353:Drivers/STM32F4xx_HAL_Driver/Src/stm32f4xx_ll_usb.c ****   * @retval HAL status
1354:Drivers/STM32F4xx_HAL_Driver/Src/stm32f4xx_ll_usb.c ****   */
1355:Drivers/STM32F4xx_HAL_Driver/Src/stm32f4xx_ll_usb.c **** HAL_StatusTypeDef USB_HostInit(USB_OTG_GlobalTypeDef *USBx, USB_OTG_CfgTypeDef cfg)
1356:Drivers/STM32F4xx_HAL_Driver/Src/stm32f4xx_ll_usb.c **** {
1357:Drivers/STM32F4xx_HAL_Driver/Src/stm32f4xx_ll_usb.c ****   uint32_t USBx_BASE = (uint32_t)USBx;
1358:Drivers/STM32F4xx_HAL_Driver/Src/stm32f4xx_ll_usb.c ****   uint32_t i;
1359:Drivers/STM32F4xx_HAL_Driver/Src/stm32f4xx_ll_usb.c **** 
1360:Drivers/STM32F4xx_HAL_Driver/Src/stm32f4xx_ll_usb.c ****   /* Restart the Phy Clock */
1361:Drivers/STM32F4xx_HAL_Driver/Src/stm32f4xx_ll_usb.c ****   USBx_PCGCCTL = 0U;
1362:Drivers/STM32F4xx_HAL_Driver/Src/stm32f4xx_ll_usb.c **** 
1363:Drivers/STM32F4xx_HAL_Driver/Src/stm32f4xx_ll_usb.c **** #if defined(STM32F446xx) || defined(STM32F469xx) || defined(STM32F479xx) || defined(STM32F412Zx) ||
1364:Drivers/STM32F4xx_HAL_Driver/Src/stm32f4xx_ll_usb.c ****   /* Disable HW VBUS sensing */
1365:Drivers/STM32F4xx_HAL_Driver/Src/stm32f4xx_ll_usb.c ****   USBx->GCCFG &= ~(USB_OTG_GCCFG_VBDEN);
1366:Drivers/STM32F4xx_HAL_Driver/Src/stm32f4xx_ll_usb.c **** #else
1367:Drivers/STM32F4xx_HAL_Driver/Src/stm32f4xx_ll_usb.c ****   /*
1368:Drivers/STM32F4xx_HAL_Driver/Src/stm32f4xx_ll_usb.c ****   * Disable HW VBUS sensing. VBUS is internally considered to be always
1369:Drivers/STM32F4xx_HAL_Driver/Src/stm32f4xx_ll_usb.c ****   * at VBUS-Valid level (5V).
1370:Drivers/STM32F4xx_HAL_Driver/Src/stm32f4xx_ll_usb.c ****   */
1371:Drivers/STM32F4xx_HAL_Driver/Src/stm32f4xx_ll_usb.c ****   USBx->GCCFG |= USB_OTG_GCCFG_NOVBUSSENS;
1372:Drivers/STM32F4xx_HAL_Driver/Src/stm32f4xx_ll_usb.c ****   USBx->GCCFG &= ~USB_OTG_GCCFG_VBUSBSEN;
1373:Drivers/STM32F4xx_HAL_Driver/Src/stm32f4xx_ll_usb.c ****   USBx->GCCFG &= ~USB_OTG_GCCFG_VBUSASEN;
1374:Drivers/STM32F4xx_HAL_Driver/Src/stm32f4xx_ll_usb.c **** #endif /* defined(STM32F446xx) || defined(STM32F469xx) || defined(STM32F479xx) || defined(STM32F412
1375:Drivers/STM32F4xx_HAL_Driver/Src/stm32f4xx_ll_usb.c **** #if defined(STM32F412Zx) || defined(STM32F412Vx) || defined(STM32F412Rx) || defined(STM32F412Cx) ||
1376:Drivers/STM32F4xx_HAL_Driver/Src/stm32f4xx_ll_usb.c ****   /* Disable Battery chargin detector */
1377:Drivers/STM32F4xx_HAL_Driver/Src/stm32f4xx_ll_usb.c ****   USBx->GCCFG &= ~(USB_OTG_GCCFG_BCDEN);
1378:Drivers/STM32F4xx_HAL_Driver/Src/stm32f4xx_ll_usb.c **** #endif /* defined(STM32F412Zx) || defined(STM32F412Vx) || defined(STM32F412Rx) || defined(STM32F412
1379:Drivers/STM32F4xx_HAL_Driver/Src/stm32f4xx_ll_usb.c **** 
1380:Drivers/STM32F4xx_HAL_Driver/Src/stm32f4xx_ll_usb.c ****   if ((USBx->CID & (0x1U << 8)) != 0U)
1381:Drivers/STM32F4xx_HAL_Driver/Src/stm32f4xx_ll_usb.c ****   {
1382:Drivers/STM32F4xx_HAL_Driver/Src/stm32f4xx_ll_usb.c ****     if (cfg.speed == USBH_FSLS_SPEED)
1383:Drivers/STM32F4xx_HAL_Driver/Src/stm32f4xx_ll_usb.c ****     {
1384:Drivers/STM32F4xx_HAL_Driver/Src/stm32f4xx_ll_usb.c ****       /* Force Device Enumeration to FS/LS mode only */
1385:Drivers/STM32F4xx_HAL_Driver/Src/stm32f4xx_ll_usb.c ****       USBx_HOST->HCFG |= USB_OTG_HCFG_FSLSS;
ARM GAS  /tmp/ccDzXOxq.s 			page 110


1386:Drivers/STM32F4xx_HAL_Driver/Src/stm32f4xx_ll_usb.c ****     }
1387:Drivers/STM32F4xx_HAL_Driver/Src/stm32f4xx_ll_usb.c ****     else
1388:Drivers/STM32F4xx_HAL_Driver/Src/stm32f4xx_ll_usb.c ****     {
1389:Drivers/STM32F4xx_HAL_Driver/Src/stm32f4xx_ll_usb.c ****       /* Set default Max speed support */
1390:Drivers/STM32F4xx_HAL_Driver/Src/stm32f4xx_ll_usb.c ****       USBx_HOST->HCFG &= ~(USB_OTG_HCFG_FSLSS);
1391:Drivers/STM32F4xx_HAL_Driver/Src/stm32f4xx_ll_usb.c ****     }
1392:Drivers/STM32F4xx_HAL_Driver/Src/stm32f4xx_ll_usb.c ****   }
1393:Drivers/STM32F4xx_HAL_Driver/Src/stm32f4xx_ll_usb.c ****   else
1394:Drivers/STM32F4xx_HAL_Driver/Src/stm32f4xx_ll_usb.c ****   {
1395:Drivers/STM32F4xx_HAL_Driver/Src/stm32f4xx_ll_usb.c ****     /* Set default Max speed support */
1396:Drivers/STM32F4xx_HAL_Driver/Src/stm32f4xx_ll_usb.c ****     USBx_HOST->HCFG &= ~(USB_OTG_HCFG_FSLSS);
1397:Drivers/STM32F4xx_HAL_Driver/Src/stm32f4xx_ll_usb.c ****   }
1398:Drivers/STM32F4xx_HAL_Driver/Src/stm32f4xx_ll_usb.c **** 
1399:Drivers/STM32F4xx_HAL_Driver/Src/stm32f4xx_ll_usb.c ****   /* Make sure the FIFOs are flushed. */
1400:Drivers/STM32F4xx_HAL_Driver/Src/stm32f4xx_ll_usb.c ****   (void)USB_FlushTxFifo(USBx, 0x10U); /* all Tx FIFOs */
1401:Drivers/STM32F4xx_HAL_Driver/Src/stm32f4xx_ll_usb.c ****   (void)USB_FlushRxFifo(USBx);
1402:Drivers/STM32F4xx_HAL_Driver/Src/stm32f4xx_ll_usb.c **** 
1403:Drivers/STM32F4xx_HAL_Driver/Src/stm32f4xx_ll_usb.c ****   /* Clear all pending HC Interrupts */
1404:Drivers/STM32F4xx_HAL_Driver/Src/stm32f4xx_ll_usb.c ****   for (i = 0U; i < cfg.Host_channels; i++)
1405:Drivers/STM32F4xx_HAL_Driver/Src/stm32f4xx_ll_usb.c ****   {
1406:Drivers/STM32F4xx_HAL_Driver/Src/stm32f4xx_ll_usb.c ****     USBx_HC(i)->HCINT = 0xFFFFFFFFU;
1407:Drivers/STM32F4xx_HAL_Driver/Src/stm32f4xx_ll_usb.c ****     USBx_HC(i)->HCINTMSK = 0U;
1408:Drivers/STM32F4xx_HAL_Driver/Src/stm32f4xx_ll_usb.c ****   }
1409:Drivers/STM32F4xx_HAL_Driver/Src/stm32f4xx_ll_usb.c **** 
1410:Drivers/STM32F4xx_HAL_Driver/Src/stm32f4xx_ll_usb.c ****   /* Enable VBUS driving */
1411:Drivers/STM32F4xx_HAL_Driver/Src/stm32f4xx_ll_usb.c ****   (void)USB_DriveVbus(USBx, 1U);
1412:Drivers/STM32F4xx_HAL_Driver/Src/stm32f4xx_ll_usb.c **** 
1413:Drivers/STM32F4xx_HAL_Driver/Src/stm32f4xx_ll_usb.c ****   HAL_Delay(200U);
1414:Drivers/STM32F4xx_HAL_Driver/Src/stm32f4xx_ll_usb.c **** 
1415:Drivers/STM32F4xx_HAL_Driver/Src/stm32f4xx_ll_usb.c ****   /* Disable all interrupts. */
1416:Drivers/STM32F4xx_HAL_Driver/Src/stm32f4xx_ll_usb.c ****   USBx->GINTMSK = 0U;
1417:Drivers/STM32F4xx_HAL_Driver/Src/stm32f4xx_ll_usb.c **** 
1418:Drivers/STM32F4xx_HAL_Driver/Src/stm32f4xx_ll_usb.c ****   /* Clear any pending interrupts */
1419:Drivers/STM32F4xx_HAL_Driver/Src/stm32f4xx_ll_usb.c ****   USBx->GINTSTS = 0xFFFFFFFFU;
1420:Drivers/STM32F4xx_HAL_Driver/Src/stm32f4xx_ll_usb.c **** 
1421:Drivers/STM32F4xx_HAL_Driver/Src/stm32f4xx_ll_usb.c ****   if ((USBx->CID & (0x1U << 8)) != 0U)
1422:Drivers/STM32F4xx_HAL_Driver/Src/stm32f4xx_ll_usb.c ****   {
1423:Drivers/STM32F4xx_HAL_Driver/Src/stm32f4xx_ll_usb.c ****     /* set Rx FIFO size */
1424:Drivers/STM32F4xx_HAL_Driver/Src/stm32f4xx_ll_usb.c ****     USBx->GRXFSIZ  = 0x200U;
1425:Drivers/STM32F4xx_HAL_Driver/Src/stm32f4xx_ll_usb.c ****     USBx->DIEPTXF0_HNPTXFSIZ = (uint32_t)(((0x100U << 16) & USB_OTG_NPTXFD) | 0x200U);
1426:Drivers/STM32F4xx_HAL_Driver/Src/stm32f4xx_ll_usb.c ****     USBx->HPTXFSIZ = (uint32_t)(((0xE0U << 16) & USB_OTG_HPTXFSIZ_PTXFD) | 0x300U);
1427:Drivers/STM32F4xx_HAL_Driver/Src/stm32f4xx_ll_usb.c ****   }
1428:Drivers/STM32F4xx_HAL_Driver/Src/stm32f4xx_ll_usb.c ****   else
1429:Drivers/STM32F4xx_HAL_Driver/Src/stm32f4xx_ll_usb.c ****   {
1430:Drivers/STM32F4xx_HAL_Driver/Src/stm32f4xx_ll_usb.c ****     /* set Rx FIFO size */
1431:Drivers/STM32F4xx_HAL_Driver/Src/stm32f4xx_ll_usb.c ****     USBx->GRXFSIZ  = 0x80U;
1432:Drivers/STM32F4xx_HAL_Driver/Src/stm32f4xx_ll_usb.c ****     USBx->DIEPTXF0_HNPTXFSIZ = (uint32_t)(((0x60U << 16) & USB_OTG_NPTXFD) | 0x80U);
1433:Drivers/STM32F4xx_HAL_Driver/Src/stm32f4xx_ll_usb.c ****     USBx->HPTXFSIZ = (uint32_t)(((0x40U << 16)& USB_OTG_HPTXFSIZ_PTXFD) | 0xE0U);
1434:Drivers/STM32F4xx_HAL_Driver/Src/stm32f4xx_ll_usb.c ****   }
1435:Drivers/STM32F4xx_HAL_Driver/Src/stm32f4xx_ll_usb.c **** 
1436:Drivers/STM32F4xx_HAL_Driver/Src/stm32f4xx_ll_usb.c ****   /* Enable the common interrupts */
1437:Drivers/STM32F4xx_HAL_Driver/Src/stm32f4xx_ll_usb.c ****   if (cfg.dma_enable == 0U)
1438:Drivers/STM32F4xx_HAL_Driver/Src/stm32f4xx_ll_usb.c ****   {
1439:Drivers/STM32F4xx_HAL_Driver/Src/stm32f4xx_ll_usb.c ****     USBx->GINTMSK |= USB_OTG_GINTMSK_RXFLVLM;
1440:Drivers/STM32F4xx_HAL_Driver/Src/stm32f4xx_ll_usb.c ****   }
1441:Drivers/STM32F4xx_HAL_Driver/Src/stm32f4xx_ll_usb.c **** 
1442:Drivers/STM32F4xx_HAL_Driver/Src/stm32f4xx_ll_usb.c ****   /* Enable interrupts matching to the Host mode ONLY */
ARM GAS  /tmp/ccDzXOxq.s 			page 111


1443:Drivers/STM32F4xx_HAL_Driver/Src/stm32f4xx_ll_usb.c ****   USBx->GINTMSK |= (USB_OTG_GINTMSK_PRTIM            | USB_OTG_GINTMSK_HCIM | \
1444:Drivers/STM32F4xx_HAL_Driver/Src/stm32f4xx_ll_usb.c ****                     USB_OTG_GINTMSK_SOFM             | USB_OTG_GINTSTS_DISCINT | \
1445:Drivers/STM32F4xx_HAL_Driver/Src/stm32f4xx_ll_usb.c ****                     USB_OTG_GINTMSK_PXFRM_IISOOXFRM  | USB_OTG_GINTMSK_WUIM);
1446:Drivers/STM32F4xx_HAL_Driver/Src/stm32f4xx_ll_usb.c **** 
1447:Drivers/STM32F4xx_HAL_Driver/Src/stm32f4xx_ll_usb.c ****   return HAL_OK;
1448:Drivers/STM32F4xx_HAL_Driver/Src/stm32f4xx_ll_usb.c **** }
1449:Drivers/STM32F4xx_HAL_Driver/Src/stm32f4xx_ll_usb.c **** 
1450:Drivers/STM32F4xx_HAL_Driver/Src/stm32f4xx_ll_usb.c **** /**
1451:Drivers/STM32F4xx_HAL_Driver/Src/stm32f4xx_ll_usb.c ****   * @brief  USB_InitFSLSPClkSel : Initializes the FSLSPClkSel field of the
1452:Drivers/STM32F4xx_HAL_Driver/Src/stm32f4xx_ll_usb.c ****   *         HCFG register on the PHY type and set the right frame interval
1453:Drivers/STM32F4xx_HAL_Driver/Src/stm32f4xx_ll_usb.c ****   * @param  USBx  Selected device
1454:Drivers/STM32F4xx_HAL_Driver/Src/stm32f4xx_ll_usb.c ****   * @param  freq  clock frequency
1455:Drivers/STM32F4xx_HAL_Driver/Src/stm32f4xx_ll_usb.c ****   *          This parameter can be one of these values:
1456:Drivers/STM32F4xx_HAL_Driver/Src/stm32f4xx_ll_usb.c ****   *           HCFG_48_MHZ : Full Speed 48 MHz Clock
1457:Drivers/STM32F4xx_HAL_Driver/Src/stm32f4xx_ll_usb.c ****   *           HCFG_6_MHZ : Low Speed 6 MHz Clock
1458:Drivers/STM32F4xx_HAL_Driver/Src/stm32f4xx_ll_usb.c ****   * @retval HAL status
1459:Drivers/STM32F4xx_HAL_Driver/Src/stm32f4xx_ll_usb.c ****   */
1460:Drivers/STM32F4xx_HAL_Driver/Src/stm32f4xx_ll_usb.c **** HAL_StatusTypeDef USB_InitFSLSPClkSel(USB_OTG_GlobalTypeDef *USBx, uint8_t freq)
1461:Drivers/STM32F4xx_HAL_Driver/Src/stm32f4xx_ll_usb.c **** {
 3688              		.loc 1 1461 1 is_stmt 1 view -0
 3689              		.cfi_startproc
 3690              		@ args = 0, pretend = 0, frame = 0
 3691              		@ frame_needed = 0, uses_anonymous_args = 0
 3692              		@ link register save eliminated.
1462:Drivers/STM32F4xx_HAL_Driver/Src/stm32f4xx_ll_usb.c ****   uint32_t USBx_BASE = (uint32_t)USBx;
 3693              		.loc 1 1462 3 view .LVU1236
1463:Drivers/STM32F4xx_HAL_Driver/Src/stm32f4xx_ll_usb.c **** 
1464:Drivers/STM32F4xx_HAL_Driver/Src/stm32f4xx_ll_usb.c ****   USBx_HOST->HCFG &= ~(USB_OTG_HCFG_FSLSPCS);
 3694              		.loc 1 1464 3 view .LVU1237
 3695              		.loc 1 1464 19 is_stmt 0 view .LVU1238
 3696 0000 D0F80034 		ldr	r3, [r0, #1024]
 3697 0004 23F00303 		bic	r3, r3, #3
 3698 0008 C0F80034 		str	r3, [r0, #1024]
1465:Drivers/STM32F4xx_HAL_Driver/Src/stm32f4xx_ll_usb.c ****   USBx_HOST->HCFG |= (uint32_t)freq & USB_OTG_HCFG_FSLSPCS;
 3699              		.loc 1 1465 3 is_stmt 1 view .LVU1239
 3700              		.loc 1 1465 19 is_stmt 0 view .LVU1240
 3701 000c D0F80024 		ldr	r2, [r0, #1024]
 3702              		.loc 1 1465 37 view .LVU1241
 3703 0010 01F00303 		and	r3, r1, #3
 3704              		.loc 1 1465 19 view .LVU1242
 3705 0014 1343     		orrs	r3, r3, r2
1466:Drivers/STM32F4xx_HAL_Driver/Src/stm32f4xx_ll_usb.c **** 
1467:Drivers/STM32F4xx_HAL_Driver/Src/stm32f4xx_ll_usb.c ****   if (freq == HCFG_48_MHZ)
 3706              		.loc 1 1467 6 view .LVU1243
 3707 0016 0129     		cmp	r1, #1
1465:Drivers/STM32F4xx_HAL_Driver/Src/stm32f4xx_ll_usb.c ****   USBx_HOST->HCFG |= (uint32_t)freq & USB_OTG_HCFG_FSLSPCS;
 3708              		.loc 1 1465 19 view .LVU1244
 3709 0018 C0F80034 		str	r3, [r0, #1024]
 3710              		.loc 1 1467 3 is_stmt 1 view .LVU1245
1464:Drivers/STM32F4xx_HAL_Driver/Src/stm32f4xx_ll_usb.c ****   USBx_HOST->HCFG |= (uint32_t)freq & USB_OTG_HCFG_FSLSPCS;
 3711              		.loc 1 1464 19 is_stmt 0 view .LVU1246
 3712 001c 00F58060 		add	r0, r0, #1024
 3713              	.LVL301:
 3714              		.loc 1 1467 6 view .LVU1247
 3715 0020 06D0     		beq	.L307
1468:Drivers/STM32F4xx_HAL_Driver/Src/stm32f4xx_ll_usb.c ****   {
1469:Drivers/STM32F4xx_HAL_Driver/Src/stm32f4xx_ll_usb.c ****     USBx_HOST->HFIR = 48000U;
ARM GAS  /tmp/ccDzXOxq.s 			page 112


1470:Drivers/STM32F4xx_HAL_Driver/Src/stm32f4xx_ll_usb.c ****   }
1471:Drivers/STM32F4xx_HAL_Driver/Src/stm32f4xx_ll_usb.c ****   else if (freq == HCFG_6_MHZ)
 3716              		.loc 1 1471 8 is_stmt 1 view .LVU1248
 3717              		.loc 1 1471 11 is_stmt 0 view .LVU1249
 3718 0022 0229     		cmp	r1, #2
1472:Drivers/STM32F4xx_HAL_Driver/Src/stm32f4xx_ll_usb.c ****   {
1473:Drivers/STM32F4xx_HAL_Driver/Src/stm32f4xx_ll_usb.c ****     USBx_HOST->HFIR = 6000U;
 3719              		.loc 1 1473 5 is_stmt 1 view .LVU1250
 3720              		.loc 1 1473 21 is_stmt 0 view .LVU1251
 3721 0024 04BF     		itt	eq
 3722 0026 41F27073 		movweq	r3, #6000
 3723 002a 4360     		streq	r3, [r0, #4]
1474:Drivers/STM32F4xx_HAL_Driver/Src/stm32f4xx_ll_usb.c ****   }
1475:Drivers/STM32F4xx_HAL_Driver/Src/stm32f4xx_ll_usb.c ****   else
1476:Drivers/STM32F4xx_HAL_Driver/Src/stm32f4xx_ll_usb.c ****   {
1477:Drivers/STM32F4xx_HAL_Driver/Src/stm32f4xx_ll_usb.c ****     /* ... */
1478:Drivers/STM32F4xx_HAL_Driver/Src/stm32f4xx_ll_usb.c ****   }
 3724              		.loc 1 1478 3 is_stmt 1 view .LVU1252
1479:Drivers/STM32F4xx_HAL_Driver/Src/stm32f4xx_ll_usb.c **** 
1480:Drivers/STM32F4xx_HAL_Driver/Src/stm32f4xx_ll_usb.c ****   return HAL_OK;
 3725              		.loc 1 1480 3 view .LVU1253
1481:Drivers/STM32F4xx_HAL_Driver/Src/stm32f4xx_ll_usb.c **** }
 3726              		.loc 1 1481 1 is_stmt 0 view .LVU1254
 3727 002c 0020     		movs	r0, #0
 3728              	.LVL302:
 3729              		.loc 1 1481 1 view .LVU1255
 3730 002e 7047     		bx	lr
 3731              	.L307:
1469:Drivers/STM32F4xx_HAL_Driver/Src/stm32f4xx_ll_usb.c ****   }
 3732              		.loc 1 1469 5 is_stmt 1 view .LVU1256
1469:Drivers/STM32F4xx_HAL_Driver/Src/stm32f4xx_ll_usb.c ****   }
 3733              		.loc 1 1469 21 is_stmt 0 view .LVU1257
 3734 0030 4BF68033 		movw	r3, #48000
 3735 0034 4360     		str	r3, [r0, #4]
1478:Drivers/STM32F4xx_HAL_Driver/Src/stm32f4xx_ll_usb.c **** 
 3736              		.loc 1 1478 3 is_stmt 1 view .LVU1258
1480:Drivers/STM32F4xx_HAL_Driver/Src/stm32f4xx_ll_usb.c **** }
 3737              		.loc 1 1480 3 view .LVU1259
 3738              		.loc 1 1481 1 is_stmt 0 view .LVU1260
 3739 0036 0020     		movs	r0, #0
 3740 0038 7047     		bx	lr
 3741              		.cfi_endproc
 3742              	.LFE165:
 3744 003a 00BF     		.section	.text.USB_ResetPort,"ax",%progbits
 3745              		.align	1
 3746              		.p2align 2,,3
 3747              		.global	USB_ResetPort
 3748              		.syntax unified
 3749              		.thumb
 3750              		.thumb_func
 3751              		.fpu fpv4-sp-d16
 3753              	USB_ResetPort:
 3754              	.LVL303:
 3755              	.LFB166:
1482:Drivers/STM32F4xx_HAL_Driver/Src/stm32f4xx_ll_usb.c **** 
1483:Drivers/STM32F4xx_HAL_Driver/Src/stm32f4xx_ll_usb.c **** /**
1484:Drivers/STM32F4xx_HAL_Driver/Src/stm32f4xx_ll_usb.c ****   * @brief  USB_OTG_ResetPort : Reset Host Port
ARM GAS  /tmp/ccDzXOxq.s 			page 113


1485:Drivers/STM32F4xx_HAL_Driver/Src/stm32f4xx_ll_usb.c ****   * @param  USBx  Selected device
1486:Drivers/STM32F4xx_HAL_Driver/Src/stm32f4xx_ll_usb.c ****   * @retval HAL status
1487:Drivers/STM32F4xx_HAL_Driver/Src/stm32f4xx_ll_usb.c ****   * @note (1)The application must wait at least 10 ms
1488:Drivers/STM32F4xx_HAL_Driver/Src/stm32f4xx_ll_usb.c ****   *   before clearing the reset bit.
1489:Drivers/STM32F4xx_HAL_Driver/Src/stm32f4xx_ll_usb.c ****   */
1490:Drivers/STM32F4xx_HAL_Driver/Src/stm32f4xx_ll_usb.c **** HAL_StatusTypeDef USB_ResetPort(USB_OTG_GlobalTypeDef *USBx)
1491:Drivers/STM32F4xx_HAL_Driver/Src/stm32f4xx_ll_usb.c **** {
 3756              		.loc 1 1491 1 is_stmt 1 view -0
 3757              		.cfi_startproc
 3758              		@ args = 0, pretend = 0, frame = 8
 3759              		@ frame_needed = 0, uses_anonymous_args = 0
1492:Drivers/STM32F4xx_HAL_Driver/Src/stm32f4xx_ll_usb.c ****   uint32_t USBx_BASE = (uint32_t)USBx;
 3760              		.loc 1 1492 3 view .LVU1262
1491:Drivers/STM32F4xx_HAL_Driver/Src/stm32f4xx_ll_usb.c ****   uint32_t USBx_BASE = (uint32_t)USBx;
 3761              		.loc 1 1491 1 is_stmt 0 view .LVU1263
 3762 0000 30B5     		push	{r4, r5, lr}
 3763              	.LCFI44:
 3764              		.cfi_def_cfa_offset 12
 3765              		.cfi_offset 4, -12
 3766              		.cfi_offset 5, -8
 3767              		.cfi_offset 14, -4
 3768 0002 83B0     		sub	sp, sp, #12
 3769              	.LCFI45:
 3770              		.cfi_def_cfa_offset 24
1493:Drivers/STM32F4xx_HAL_Driver/Src/stm32f4xx_ll_usb.c **** 
1494:Drivers/STM32F4xx_HAL_Driver/Src/stm32f4xx_ll_usb.c ****   __IO uint32_t hprt0 = 0U;
 3771              		.loc 1 1494 17 view .LVU1264
 3772 0004 0025     		movs	r5, #0
 3773 0006 0195     		str	r5, [sp, #4]
1495:Drivers/STM32F4xx_HAL_Driver/Src/stm32f4xx_ll_usb.c **** 
1496:Drivers/STM32F4xx_HAL_Driver/Src/stm32f4xx_ll_usb.c ****   hprt0 = USBx_HPRT0;
 3774              		.loc 1 1496 11 view .LVU1265
 3775 0008 D0F84034 		ldr	r3, [r0, #1088]
 3776              		.loc 1 1496 9 view .LVU1266
 3777 000c 0193     		str	r3, [sp, #4]
1497:Drivers/STM32F4xx_HAL_Driver/Src/stm32f4xx_ll_usb.c **** 
1498:Drivers/STM32F4xx_HAL_Driver/Src/stm32f4xx_ll_usb.c ****   hprt0 &= ~(USB_OTG_HPRT_PENA | USB_OTG_HPRT_PCDET |
 3778              		.loc 1 1498 9 view .LVU1267
 3779 000e 019B     		ldr	r3, [sp, #4]
 3780 0010 23F02E03 		bic	r3, r3, #46
 3781 0014 0193     		str	r3, [sp, #4]
1499:Drivers/STM32F4xx_HAL_Driver/Src/stm32f4xx_ll_usb.c ****              USB_OTG_HPRT_PENCHNG | USB_OTG_HPRT_POCCHNG);
1500:Drivers/STM32F4xx_HAL_Driver/Src/stm32f4xx_ll_usb.c **** 
1501:Drivers/STM32F4xx_HAL_Driver/Src/stm32f4xx_ll_usb.c ****   USBx_HPRT0 = (USB_OTG_HPRT_PRST | hprt0);
 3782              		.loc 1 1501 35 view .LVU1268
 3783 0016 019B     		ldr	r3, [sp, #4]
 3784 0018 43F48073 		orr	r3, r3, #256
1491:Drivers/STM32F4xx_HAL_Driver/Src/stm32f4xx_ll_usb.c ****   uint32_t USBx_BASE = (uint32_t)USBx;
 3785              		.loc 1 1491 1 view .LVU1269
 3786 001c 0446     		mov	r4, r0
 3787              	.LVL304:
1494:Drivers/STM32F4xx_HAL_Driver/Src/stm32f4xx_ll_usb.c **** 
 3788              		.loc 1 1494 3 is_stmt 1 view .LVU1270
1496:Drivers/STM32F4xx_HAL_Driver/Src/stm32f4xx_ll_usb.c **** 
 3789              		.loc 1 1496 3 view .LVU1271
1498:Drivers/STM32F4xx_HAL_Driver/Src/stm32f4xx_ll_usb.c ****              USB_OTG_HPRT_PENCHNG | USB_OTG_HPRT_POCCHNG);
 3790              		.loc 1 1498 3 view .LVU1272
ARM GAS  /tmp/ccDzXOxq.s 			page 114


 3791              		.loc 1 1501 3 view .LVU1273
 3792              		.loc 1 1501 14 is_stmt 0 view .LVU1274
 3793 001e C0F84034 		str	r3, [r0, #1088]
1502:Drivers/STM32F4xx_HAL_Driver/Src/stm32f4xx_ll_usb.c ****   HAL_Delay(100U);                                 /* See Note #1 */
 3794              		.loc 1 1502 3 is_stmt 1 view .LVU1275
 3795 0022 6420     		movs	r0, #100
 3796              	.LVL305:
 3797              		.loc 1 1502 3 is_stmt 0 view .LVU1276
 3798 0024 FFF7FEFF 		bl	HAL_Delay
 3799              	.LVL306:
1503:Drivers/STM32F4xx_HAL_Driver/Src/stm32f4xx_ll_usb.c ****   USBx_HPRT0 = ((~USB_OTG_HPRT_PRST) & hprt0);
 3800              		.loc 1 1503 3 is_stmt 1 view .LVU1277
 3801              		.loc 1 1503 38 is_stmt 0 view .LVU1278
 3802 0028 019B     		ldr	r3, [sp, #4]
 3803 002a 23F48073 		bic	r3, r3, #256
 3804              		.loc 1 1503 14 view .LVU1279
 3805 002e C4F84034 		str	r3, [r4, #1088]
1504:Drivers/STM32F4xx_HAL_Driver/Src/stm32f4xx_ll_usb.c ****   HAL_Delay(10U);
 3806              		.loc 1 1504 3 is_stmt 1 view .LVU1280
 3807 0032 0A20     		movs	r0, #10
 3808 0034 FFF7FEFF 		bl	HAL_Delay
 3809              	.LVL307:
1505:Drivers/STM32F4xx_HAL_Driver/Src/stm32f4xx_ll_usb.c **** 
1506:Drivers/STM32F4xx_HAL_Driver/Src/stm32f4xx_ll_usb.c ****   return HAL_OK;
 3810              		.loc 1 1506 3 view .LVU1281
1507:Drivers/STM32F4xx_HAL_Driver/Src/stm32f4xx_ll_usb.c **** }
 3811              		.loc 1 1507 1 is_stmt 0 view .LVU1282
 3812 0038 2846     		mov	r0, r5
 3813 003a 03B0     		add	sp, sp, #12
 3814              	.LCFI46:
 3815              		.cfi_def_cfa_offset 12
 3816              		@ sp needed
 3817 003c 30BD     		pop	{r4, r5, pc}
 3818              		.loc 1 1507 1 view .LVU1283
 3819              		.cfi_endproc
 3820              	.LFE166:
 3822 003e 00BF     		.section	.text.USB_DriveVbus,"ax",%progbits
 3823              		.align	1
 3824              		.p2align 2,,3
 3825              		.global	USB_DriveVbus
 3826              		.syntax unified
 3827              		.thumb
 3828              		.thumb_func
 3829              		.fpu fpv4-sp-d16
 3831              	USB_DriveVbus:
 3832              	.LVL308:
 3833              	.LFB167:
1508:Drivers/STM32F4xx_HAL_Driver/Src/stm32f4xx_ll_usb.c **** 
1509:Drivers/STM32F4xx_HAL_Driver/Src/stm32f4xx_ll_usb.c **** /**
1510:Drivers/STM32F4xx_HAL_Driver/Src/stm32f4xx_ll_usb.c ****   * @brief  USB_DriveVbus : activate or de-activate vbus
1511:Drivers/STM32F4xx_HAL_Driver/Src/stm32f4xx_ll_usb.c ****   * @param  state  VBUS state
1512:Drivers/STM32F4xx_HAL_Driver/Src/stm32f4xx_ll_usb.c ****   *          This parameter can be one of these values:
1513:Drivers/STM32F4xx_HAL_Driver/Src/stm32f4xx_ll_usb.c ****   *           0 : Deactivate VBUS
1514:Drivers/STM32F4xx_HAL_Driver/Src/stm32f4xx_ll_usb.c ****   *           1 : Activate VBUS
1515:Drivers/STM32F4xx_HAL_Driver/Src/stm32f4xx_ll_usb.c ****   * @retval HAL status
1516:Drivers/STM32F4xx_HAL_Driver/Src/stm32f4xx_ll_usb.c ****   */
1517:Drivers/STM32F4xx_HAL_Driver/Src/stm32f4xx_ll_usb.c **** HAL_StatusTypeDef USB_DriveVbus(USB_OTG_GlobalTypeDef *USBx, uint8_t state)
ARM GAS  /tmp/ccDzXOxq.s 			page 115


1518:Drivers/STM32F4xx_HAL_Driver/Src/stm32f4xx_ll_usb.c **** {
 3834              		.loc 1 1518 1 is_stmt 1 view -0
 3835              		.cfi_startproc
 3836              		@ args = 0, pretend = 0, frame = 8
 3837              		@ frame_needed = 0, uses_anonymous_args = 0
 3838              		@ link register save eliminated.
1519:Drivers/STM32F4xx_HAL_Driver/Src/stm32f4xx_ll_usb.c ****   uint32_t USBx_BASE = (uint32_t)USBx;
 3839              		.loc 1 1519 3 view .LVU1285
1520:Drivers/STM32F4xx_HAL_Driver/Src/stm32f4xx_ll_usb.c ****   __IO uint32_t hprt0 = 0U;
 3840              		.loc 1 1520 3 view .LVU1286
1518:Drivers/STM32F4xx_HAL_Driver/Src/stm32f4xx_ll_usb.c ****   uint32_t USBx_BASE = (uint32_t)USBx;
 3841              		.loc 1 1518 1 is_stmt 0 view .LVU1287
 3842 0000 82B0     		sub	sp, sp, #8
 3843              	.LCFI47:
 3844              		.cfi_def_cfa_offset 8
 3845              		.loc 1 1520 17 view .LVU1288
 3846 0002 0023     		movs	r3, #0
 3847 0004 0193     		str	r3, [sp, #4]
1521:Drivers/STM32F4xx_HAL_Driver/Src/stm32f4xx_ll_usb.c **** 
1522:Drivers/STM32F4xx_HAL_Driver/Src/stm32f4xx_ll_usb.c ****   hprt0 = USBx_HPRT0;
 3848              		.loc 1 1522 3 is_stmt 1 view .LVU1289
 3849              		.loc 1 1522 11 is_stmt 0 view .LVU1290
 3850 0006 D0F84034 		ldr	r3, [r0, #1088]
 3851              		.loc 1 1522 9 view .LVU1291
 3852 000a 0193     		str	r3, [sp, #4]
1523:Drivers/STM32F4xx_HAL_Driver/Src/stm32f4xx_ll_usb.c **** 
1524:Drivers/STM32F4xx_HAL_Driver/Src/stm32f4xx_ll_usb.c ****   hprt0 &= ~(USB_OTG_HPRT_PENA | USB_OTG_HPRT_PCDET |
 3853              		.loc 1 1524 3 is_stmt 1 view .LVU1292
 3854              		.loc 1 1524 9 is_stmt 0 view .LVU1293
 3855 000c 019B     		ldr	r3, [sp, #4]
 3856 000e 23F02E03 		bic	r3, r3, #46
 3857 0012 0193     		str	r3, [sp, #4]
1525:Drivers/STM32F4xx_HAL_Driver/Src/stm32f4xx_ll_usb.c ****              USB_OTG_HPRT_PENCHNG | USB_OTG_HPRT_POCCHNG);
1526:Drivers/STM32F4xx_HAL_Driver/Src/stm32f4xx_ll_usb.c **** 
1527:Drivers/STM32F4xx_HAL_Driver/Src/stm32f4xx_ll_usb.c ****   if (((hprt0 & USB_OTG_HPRT_PPWR) == 0U) && (state == 1U))
 3858              		.loc 1 1527 3 is_stmt 1 view .LVU1294
 3859              		.loc 1 1527 15 is_stmt 0 view .LVU1295
 3860 0014 019B     		ldr	r3, [sp, #4]
 3861              		.loc 1 1527 6 view .LVU1296
 3862 0016 13F4805F 		tst	r3, #4096
1528:Drivers/STM32F4xx_HAL_Driver/Src/stm32f4xx_ll_usb.c ****   {
1529:Drivers/STM32F4xx_HAL_Driver/Src/stm32f4xx_ll_usb.c ****     USBx_HPRT0 = (USB_OTG_HPRT_PPWR | hprt0);
 3863              		.loc 1 1529 37 view .LVU1297
 3864 001a 019B     		ldr	r3, [sp, #4]
1527:Drivers/STM32F4xx_HAL_Driver/Src/stm32f4xx_ll_usb.c ****   {
 3865              		.loc 1 1527 6 view .LVU1298
 3866 001c 01D1     		bne	.L311
1527:Drivers/STM32F4xx_HAL_Driver/Src/stm32f4xx_ll_usb.c ****   {
 3867              		.loc 1 1527 43 discriminator 1 view .LVU1299
 3868 001e 0129     		cmp	r1, #1
 3869 0020 0AD0     		beq	.L317
 3870              	.L311:
1530:Drivers/STM32F4xx_HAL_Driver/Src/stm32f4xx_ll_usb.c ****   }
1531:Drivers/STM32F4xx_HAL_Driver/Src/stm32f4xx_ll_usb.c ****   if (((hprt0 & USB_OTG_HPRT_PPWR) == USB_OTG_HPRT_PPWR) && (state == 0U))
 3871              		.loc 1 1531 3 is_stmt 1 view .LVU1300
 3872              		.loc 1 1531 6 is_stmt 0 view .LVU1301
 3873 0022 DB04     		lsls	r3, r3, #19
ARM GAS  /tmp/ccDzXOxq.s 			page 116


 3874 0024 05D5     		bpl	.L312
 3875              		.loc 1 1531 58 discriminator 1 view .LVU1302
 3876 0026 21B9     		cbnz	r1, .L312
1532:Drivers/STM32F4xx_HAL_Driver/Src/stm32f4xx_ll_usb.c ****   {
1533:Drivers/STM32F4xx_HAL_Driver/Src/stm32f4xx_ll_usb.c ****     USBx_HPRT0 = ((~USB_OTG_HPRT_PPWR) & hprt0);
 3877              		.loc 1 1533 5 is_stmt 1 view .LVU1303
 3878              		.loc 1 1533 40 is_stmt 0 view .LVU1304
 3879 0028 019B     		ldr	r3, [sp, #4]
 3880 002a 23F48053 		bic	r3, r3, #4096
 3881              		.loc 1 1533 16 view .LVU1305
 3882 002e C0F84034 		str	r3, [r0, #1088]
 3883              	.L312:
1534:Drivers/STM32F4xx_HAL_Driver/Src/stm32f4xx_ll_usb.c ****   }
1535:Drivers/STM32F4xx_HAL_Driver/Src/stm32f4xx_ll_usb.c ****   return HAL_OK;
 3884              		.loc 1 1535 3 is_stmt 1 view .LVU1306
1536:Drivers/STM32F4xx_HAL_Driver/Src/stm32f4xx_ll_usb.c **** }
 3885              		.loc 1 1536 1 is_stmt 0 view .LVU1307
 3886 0032 0020     		movs	r0, #0
 3887              	.LVL309:
 3888              		.loc 1 1536 1 view .LVU1308
 3889 0034 02B0     		add	sp, sp, #8
 3890              	.LCFI48:
 3891              		.cfi_remember_state
 3892              		.cfi_def_cfa_offset 0
 3893              		@ sp needed
 3894 0036 7047     		bx	lr
 3895              	.LVL310:
 3896              	.L317:
 3897              	.LCFI49:
 3898              		.cfi_restore_state
1529:Drivers/STM32F4xx_HAL_Driver/Src/stm32f4xx_ll_usb.c ****   }
 3899              		.loc 1 1529 5 is_stmt 1 view .LVU1309
1529:Drivers/STM32F4xx_HAL_Driver/Src/stm32f4xx_ll_usb.c ****   }
 3900              		.loc 1 1529 37 is_stmt 0 view .LVU1310
 3901 0038 43F48053 		orr	r3, r3, #4096
1529:Drivers/STM32F4xx_HAL_Driver/Src/stm32f4xx_ll_usb.c ****   }
 3902              		.loc 1 1529 16 view .LVU1311
 3903 003c C0F84034 		str	r3, [r0, #1088]
1531:Drivers/STM32F4xx_HAL_Driver/Src/stm32f4xx_ll_usb.c ****   {
 3904              		.loc 1 1531 3 is_stmt 1 view .LVU1312
1531:Drivers/STM32F4xx_HAL_Driver/Src/stm32f4xx_ll_usb.c ****   {
 3905              		.loc 1 1531 15 is_stmt 0 view .LVU1313
 3906 0040 019B     		ldr	r3, [sp, #4]
1535:Drivers/STM32F4xx_HAL_Driver/Src/stm32f4xx_ll_usb.c **** }
 3907              		.loc 1 1535 3 is_stmt 1 view .LVU1314
 3908              		.loc 1 1536 1 is_stmt 0 view .LVU1315
 3909 0042 0020     		movs	r0, #0
 3910              	.LVL311:
 3911              		.loc 1 1536 1 view .LVU1316
 3912 0044 02B0     		add	sp, sp, #8
 3913              	.LCFI50:
 3914              		.cfi_def_cfa_offset 0
 3915              		@ sp needed
 3916 0046 7047     		bx	lr
 3917              		.cfi_endproc
 3918              	.LFE167:
 3920              		.section	.text.USB_HostInit,"ax",%progbits
ARM GAS  /tmp/ccDzXOxq.s 			page 117


 3921              		.align	1
 3922              		.p2align 2,,3
 3923              		.global	USB_HostInit
 3924              		.syntax unified
 3925              		.thumb
 3926              		.thumb_func
 3927              		.fpu fpv4-sp-d16
 3929              	USB_HostInit:
 3930              	.LVL312:
 3931              	.LFB164:
1356:Drivers/STM32F4xx_HAL_Driver/Src/stm32f4xx_ll_usb.c ****   uint32_t USBx_BASE = (uint32_t)USBx;
 3932              		.loc 1 1356 1 is_stmt 1 view -0
 3933              		.cfi_startproc
 3934              		@ args = 56, pretend = 16, frame = 0
 3935              		@ frame_needed = 0, uses_anonymous_args = 0
1356:Drivers/STM32F4xx_HAL_Driver/Src/stm32f4xx_ll_usb.c ****   uint32_t USBx_BASE = (uint32_t)USBx;
 3936              		.loc 1 1356 1 is_stmt 0 view .LVU1318
 3937 0000 84B0     		sub	sp, sp, #16
 3938              	.LCFI51:
 3939              		.cfi_def_cfa_offset 16
 3940 0002 38B5     		push	{r3, r4, r5, lr}
 3941              	.LCFI52:
 3942              		.cfi_def_cfa_offset 32
 3943              		.cfi_offset 3, -32
 3944              		.cfi_offset 4, -28
 3945              		.cfi_offset 5, -24
 3946              		.cfi_offset 14, -20
1356:Drivers/STM32F4xx_HAL_Driver/Src/stm32f4xx_ll_usb.c ****   uint32_t USBx_BASE = (uint32_t)USBx;
 3947              		.loc 1 1356 1 view .LVU1319
 3948 0004 0446     		mov	r4, r0
1361:Drivers/STM32F4xx_HAL_Driver/Src/stm32f4xx_ll_usb.c **** 
 3949              		.loc 1 1361 16 view .LVU1320
 3950 0006 0020     		movs	r0, #0
 3951              	.LVL313:
1361:Drivers/STM32F4xx_HAL_Driver/Src/stm32f4xx_ll_usb.c **** 
 3952              		.loc 1 1361 16 view .LVU1321
 3953 0008 C4F8000E 		str	r0, [r4, #3584]
1371:Drivers/STM32F4xx_HAL_Driver/Src/stm32f4xx_ll_usb.c ****   USBx->GCCFG &= ~USB_OTG_GCCFG_VBUSBSEN;
 3954              		.loc 1 1371 15 view .LVU1322
 3955 000c A06B     		ldr	r0, [r4, #56]
 3956 000e 40F40010 		orr	r0, r0, #2097152
 3957 0012 A063     		str	r0, [r4, #56]
1372:Drivers/STM32F4xx_HAL_Driver/Src/stm32f4xx_ll_usb.c ****   USBx->GCCFG &= ~USB_OTG_GCCFG_VBUSASEN;
 3958              		.loc 1 1372 15 view .LVU1323
 3959 0014 A06B     		ldr	r0, [r4, #56]
 3960 0016 20F40020 		bic	r0, r0, #524288
 3961 001a A063     		str	r0, [r4, #56]
1373:Drivers/STM32F4xx_HAL_Driver/Src/stm32f4xx_ll_usb.c **** #endif /* defined(STM32F446xx) || defined(STM32F469xx) || defined(STM32F479xx) || defined(STM32F412
 3962              		.loc 1 1373 15 view .LVU1324
 3963 001c A06B     		ldr	r0, [r4, #56]
1356:Drivers/STM32F4xx_HAL_Driver/Src/stm32f4xx_ll_usb.c ****   uint32_t USBx_BASE = (uint32_t)USBx;
 3964              		.loc 1 1356 1 view .LVU1325
 3965 001e 05AD     		add	r5, sp, #20
1373:Drivers/STM32F4xx_HAL_Driver/Src/stm32f4xx_ll_usb.c **** #endif /* defined(STM32F446xx) || defined(STM32F469xx) || defined(STM32F479xx) || defined(STM32F412
 3966              		.loc 1 1373 15 view .LVU1326
 3967 0020 20F48020 		bic	r0, r0, #262144
1356:Drivers/STM32F4xx_HAL_Driver/Src/stm32f4xx_ll_usb.c ****   uint32_t USBx_BASE = (uint32_t)USBx;
ARM GAS  /tmp/ccDzXOxq.s 			page 118


 3968              		.loc 1 1356 1 view .LVU1327
 3969 0024 85E80E00 		stm	r5, {r1, r2, r3}
1373:Drivers/STM32F4xx_HAL_Driver/Src/stm32f4xx_ll_usb.c **** #endif /* defined(STM32F446xx) || defined(STM32F469xx) || defined(STM32F479xx) || defined(STM32F412
 3970              		.loc 1 1373 15 view .LVU1328
 3971 0028 A063     		str	r0, [r4, #56]
1380:Drivers/STM32F4xx_HAL_Driver/Src/stm32f4xx_ll_usb.c ****   {
 3972              		.loc 1 1380 12 view .LVU1329
 3973 002a E36B     		ldr	r3, [r4, #60]
 3974 002c 0699     		ldr	r1, [sp, #24]
 3975              	.LVL314:
1357:Drivers/STM32F4xx_HAL_Driver/Src/stm32f4xx_ll_usb.c ****   uint32_t i;
 3976              		.loc 1 1357 3 is_stmt 1 view .LVU1330
1358:Drivers/STM32F4xx_HAL_Driver/Src/stm32f4xx_ll_usb.c **** 
 3977              		.loc 1 1358 3 view .LVU1331
1361:Drivers/STM32F4xx_HAL_Driver/Src/stm32f4xx_ll_usb.c **** 
 3978              		.loc 1 1361 3 view .LVU1332
1371:Drivers/STM32F4xx_HAL_Driver/Src/stm32f4xx_ll_usb.c ****   USBx->GCCFG &= ~USB_OTG_GCCFG_VBUSBSEN;
 3979              		.loc 1 1371 3 view .LVU1333
1372:Drivers/STM32F4xx_HAL_Driver/Src/stm32f4xx_ll_usb.c ****   USBx->GCCFG &= ~USB_OTG_GCCFG_VBUSASEN;
 3980              		.loc 1 1372 3 view .LVU1334
1373:Drivers/STM32F4xx_HAL_Driver/Src/stm32f4xx_ll_usb.c **** #endif /* defined(STM32F446xx) || defined(STM32F469xx) || defined(STM32F479xx) || defined(STM32F412
 3981              		.loc 1 1373 3 view .LVU1335
1380:Drivers/STM32F4xx_HAL_Driver/Src/stm32f4xx_ll_usb.c ****   {
 3982              		.loc 1 1380 3 view .LVU1336
1380:Drivers/STM32F4xx_HAL_Driver/Src/stm32f4xx_ll_usb.c ****   {
 3983              		.loc 1 1380 6 is_stmt 0 view .LVU1337
 3984 002e DD05     		lsls	r5, r3, #23
 3985 0030 57D5     		bpl	.L319
1382:Drivers/STM32F4xx_HAL_Driver/Src/stm32f4xx_ll_usb.c ****     {
 3986              		.loc 1 1382 5 is_stmt 1 view .LVU1338
1382:Drivers/STM32F4xx_HAL_Driver/Src/stm32f4xx_ll_usb.c ****     {
 3987              		.loc 1 1382 8 is_stmt 0 view .LVU1339
 3988 0032 079B     		ldr	r3, [sp, #28]
 3989 0034 012B     		cmp	r3, #1
1385:Drivers/STM32F4xx_HAL_Driver/Src/stm32f4xx_ll_usb.c ****     }
 3990              		.loc 1 1385 23 view .LVU1340
 3991 0036 D4F80034 		ldr	r3, [r4, #1024]
1382:Drivers/STM32F4xx_HAL_Driver/Src/stm32f4xx_ll_usb.c ****     {
 3992              		.loc 1 1382 8 view .LVU1341
 3993 003a 55D0     		beq	.L347
 3994              	.L346:
1396:Drivers/STM32F4xx_HAL_Driver/Src/stm32f4xx_ll_usb.c ****   }
 3995              		.loc 1 1396 21 view .LVU1342
 3996 003c 23F00403 		bic	r3, r3, #4
 3997 0040 C4F80034 		str	r3, [r4, #1024]
 3998              	.L321:
1400:Drivers/STM32F4xx_HAL_Driver/Src/stm32f4xx_ll_usb.c ****   (void)USB_FlushRxFifo(USBx);
 3999              		.loc 1 1400 3 is_stmt 1 view .LVU1343
 4000              	.LVL315:
 4001              	.LBB66:
 4002              	.LBI66:
 453:Drivers/STM32F4xx_HAL_Driver/Src/stm32f4xx_ll_usb.c **** {
 4003              		.loc 1 453 19 view .LVU1344
 4004              	.LBB67:
 455:Drivers/STM32F4xx_HAL_Driver/Src/stm32f4xx_ll_usb.c **** 
 4005              		.loc 1 455 3 view .LVU1345
 457:Drivers/STM32F4xx_HAL_Driver/Src/stm32f4xx_ll_usb.c **** 
ARM GAS  /tmp/ccDzXOxq.s 			page 119


 4006              		.loc 1 457 3 view .LVU1346
 457:Drivers/STM32F4xx_HAL_Driver/Src/stm32f4xx_ll_usb.c **** 
 4007              		.loc 1 457 17 is_stmt 0 view .LVU1347
 4008 0044 4FF48463 		mov	r3, #1056
 4009 0048 2361     		str	r3, [r4, #16]
 459:Drivers/STM32F4xx_HAL_Driver/Src/stm32f4xx_ll_usb.c ****   {
 4010              		.loc 1 459 3 is_stmt 1 view .LVU1348
 461:Drivers/STM32F4xx_HAL_Driver/Src/stm32f4xx_ll_usb.c ****     {
 4011              		.loc 1 461 5 view .LVU1349
 4012              	.LVL316:
 457:Drivers/STM32F4xx_HAL_Driver/Src/stm32f4xx_ll_usb.c **** 
 4013              		.loc 1 457 17 is_stmt 0 view .LVU1350
 4014 004a 2A4B     		ldr	r3, .L349
 4015 004c 01E0     		b	.L322
 4016              	.LVL317:
 4017              	.L324:
 461:Drivers/STM32F4xx_HAL_Driver/Src/stm32f4xx_ll_usb.c ****     {
 4018              		.loc 1 461 8 view .LVU1351
 4019 004e 013B     		subs	r3, r3, #1
 4020              	.LVL318:
 461:Drivers/STM32F4xx_HAL_Driver/Src/stm32f4xx_ll_usb.c ****     {
 4021              		.loc 1 461 8 view .LVU1352
 4022 0050 02D0     		beq	.L323
 4023              	.LVL319:
 4024              	.L322:
 459:Drivers/STM32F4xx_HAL_Driver/Src/stm32f4xx_ll_usb.c ****   {
 4025              		.loc 1 459 3 is_stmt 1 view .LVU1353
 461:Drivers/STM32F4xx_HAL_Driver/Src/stm32f4xx_ll_usb.c ****     {
 4026              		.loc 1 461 5 view .LVU1354
 465:Drivers/STM32F4xx_HAL_Driver/Src/stm32f4xx_ll_usb.c **** 
 4027              		.loc 1 465 11 view .LVU1355
 465:Drivers/STM32F4xx_HAL_Driver/Src/stm32f4xx_ll_usb.c **** 
 4028              		.loc 1 465 17 is_stmt 0 view .LVU1356
 4029 0052 2269     		ldr	r2, [r4, #16]
 465:Drivers/STM32F4xx_HAL_Driver/Src/stm32f4xx_ll_usb.c **** 
 4030              		.loc 1 465 3 view .LVU1357
 4031 0054 9006     		lsls	r0, r2, #26
 4032 0056 FAD4     		bmi	.L324
 4033              	.LVL320:
 4034              	.L323:
 465:Drivers/STM32F4xx_HAL_Driver/Src/stm32f4xx_ll_usb.c **** 
 4035              		.loc 1 465 3 view .LVU1358
 4036              	.LBE67:
 4037              	.LBE66:
1401:Drivers/STM32F4xx_HAL_Driver/Src/stm32f4xx_ll_usb.c **** 
 4038              		.loc 1 1401 3 is_stmt 1 view .LVU1359
 4039              	.LBB68:
 4040              	.LBI68:
 475:Drivers/STM32F4xx_HAL_Driver/Src/stm32f4xx_ll_usb.c **** {
 4041              		.loc 1 475 19 view .LVU1360
 4042              	.LBB69:
 477:Drivers/STM32F4xx_HAL_Driver/Src/stm32f4xx_ll_usb.c **** 
 4043              		.loc 1 477 3 view .LVU1361
 479:Drivers/STM32F4xx_HAL_Driver/Src/stm32f4xx_ll_usb.c **** 
 4044              		.loc 1 479 3 view .LVU1362
 479:Drivers/STM32F4xx_HAL_Driver/Src/stm32f4xx_ll_usb.c **** 
 4045              		.loc 1 479 17 is_stmt 0 view .LVU1363
ARM GAS  /tmp/ccDzXOxq.s 			page 120


 4046 0058 1023     		movs	r3, #16
 4047 005a 2361     		str	r3, [r4, #16]
 481:Drivers/STM32F4xx_HAL_Driver/Src/stm32f4xx_ll_usb.c ****   {
 4048              		.loc 1 481 3 is_stmt 1 view .LVU1364
 483:Drivers/STM32F4xx_HAL_Driver/Src/stm32f4xx_ll_usb.c ****     {
 4049              		.loc 1 483 5 view .LVU1365
 4050              	.LVL321:
 479:Drivers/STM32F4xx_HAL_Driver/Src/stm32f4xx_ll_usb.c **** 
 4051              		.loc 1 479 17 is_stmt 0 view .LVU1366
 4052 005c 254B     		ldr	r3, .L349
 4053 005e 01E0     		b	.L325
 4054              	.LVL322:
 4055              	.L327:
 483:Drivers/STM32F4xx_HAL_Driver/Src/stm32f4xx_ll_usb.c ****     {
 4056              		.loc 1 483 8 view .LVU1367
 4057 0060 013B     		subs	r3, r3, #1
 4058              	.LVL323:
 483:Drivers/STM32F4xx_HAL_Driver/Src/stm32f4xx_ll_usb.c ****     {
 4059              		.loc 1 483 8 view .LVU1368
 4060 0062 02D0     		beq	.L326
 4061              	.LVL324:
 4062              	.L325:
 481:Drivers/STM32F4xx_HAL_Driver/Src/stm32f4xx_ll_usb.c ****   {
 4063              		.loc 1 481 3 is_stmt 1 view .LVU1369
 483:Drivers/STM32F4xx_HAL_Driver/Src/stm32f4xx_ll_usb.c ****     {
 4064              		.loc 1 483 5 view .LVU1370
 487:Drivers/STM32F4xx_HAL_Driver/Src/stm32f4xx_ll_usb.c **** 
 4065              		.loc 1 487 11 view .LVU1371
 487:Drivers/STM32F4xx_HAL_Driver/Src/stm32f4xx_ll_usb.c **** 
 4066              		.loc 1 487 17 is_stmt 0 view .LVU1372
 4067 0064 2269     		ldr	r2, [r4, #16]
 487:Drivers/STM32F4xx_HAL_Driver/Src/stm32f4xx_ll_usb.c **** 
 4068              		.loc 1 487 3 view .LVU1373
 4069 0066 D206     		lsls	r2, r2, #27
 4070 0068 FAD4     		bmi	.L327
 4071              	.LVL325:
 4072              	.L326:
 487:Drivers/STM32F4xx_HAL_Driver/Src/stm32f4xx_ll_usb.c **** 
 4073              		.loc 1 487 3 view .LVU1374
 4074              	.LBE69:
 4075              	.LBE68:
1404:Drivers/STM32F4xx_HAL_Driver/Src/stm32f4xx_ll_usb.c ****   {
 4076              		.loc 1 1404 16 is_stmt 1 discriminator 1 view .LVU1375
1404:Drivers/STM32F4xx_HAL_Driver/Src/stm32f4xx_ll_usb.c ****   {
 4077              		.loc 1 1404 3 is_stmt 0 discriminator 1 view .LVU1376
 4078 006a 61B1     		cbz	r1, .L332
1404:Drivers/STM32F4xx_HAL_Driver/Src/stm32f4xx_ll_usb.c ****   {
 4079              		.loc 1 1404 3 view .LVU1377
 4080 006c 0022     		movs	r2, #0
1407:Drivers/STM32F4xx_HAL_Driver/Src/stm32f4xx_ll_usb.c ****   }
 4081              		.loc 1 1407 26 view .LVU1378
 4082 006e 1546     		mov	r5, r2
 4083 0070 04F5A063 		add	r3, r4, #1280
1406:Drivers/STM32F4xx_HAL_Driver/Src/stm32f4xx_ll_usb.c ****     USBx_HC(i)->HCINTMSK = 0U;
 4084              		.loc 1 1406 23 view .LVU1379
 4085 0074 4FF0FF30 		mov	r0, #-1
 4086              	.LVL326:
ARM GAS  /tmp/ccDzXOxq.s 			page 121


 4087              	.L331:
1406:Drivers/STM32F4xx_HAL_Driver/Src/stm32f4xx_ll_usb.c ****     USBx_HC(i)->HCINTMSK = 0U;
 4088              		.loc 1 1406 5 is_stmt 1 discriminator 3 view .LVU1380
1404:Drivers/STM32F4xx_HAL_Driver/Src/stm32f4xx_ll_usb.c ****   {
 4089              		.loc 1 1404 40 is_stmt 0 discriminator 3 view .LVU1381
 4090 0078 0132     		adds	r2, r2, #1
 4091              	.LVL327:
1404:Drivers/STM32F4xx_HAL_Driver/Src/stm32f4xx_ll_usb.c ****   {
 4092              		.loc 1 1404 3 discriminator 3 view .LVU1382
 4093 007a 8A42     		cmp	r2, r1
1406:Drivers/STM32F4xx_HAL_Driver/Src/stm32f4xx_ll_usb.c ****     USBx_HC(i)->HCINTMSK = 0U;
 4094              		.loc 1 1406 23 discriminator 3 view .LVU1383
 4095 007c 9860     		str	r0, [r3, #8]
1407:Drivers/STM32F4xx_HAL_Driver/Src/stm32f4xx_ll_usb.c ****   }
 4096              		.loc 1 1407 5 is_stmt 1 discriminator 3 view .LVU1384
1407:Drivers/STM32F4xx_HAL_Driver/Src/stm32f4xx_ll_usb.c ****   }
 4097              		.loc 1 1407 26 is_stmt 0 discriminator 3 view .LVU1385
 4098 007e DD60     		str	r5, [r3, #12]
1404:Drivers/STM32F4xx_HAL_Driver/Src/stm32f4xx_ll_usb.c ****   {
 4099              		.loc 1 1404 39 is_stmt 1 discriminator 3 view .LVU1386
 4100              	.LVL328:
1404:Drivers/STM32F4xx_HAL_Driver/Src/stm32f4xx_ll_usb.c ****   {
 4101              		.loc 1 1404 16 discriminator 3 view .LVU1387
 4102 0080 03F12003 		add	r3, r3, #32
1404:Drivers/STM32F4xx_HAL_Driver/Src/stm32f4xx_ll_usb.c ****   {
 4103              		.loc 1 1404 3 is_stmt 0 discriminator 3 view .LVU1388
 4104 0084 F8D1     		bne	.L331
 4105              	.LVL329:
 4106              	.L332:
1411:Drivers/STM32F4xx_HAL_Driver/Src/stm32f4xx_ll_usb.c **** 
 4107              		.loc 1 1411 3 is_stmt 1 view .LVU1389
1411:Drivers/STM32F4xx_HAL_Driver/Src/stm32f4xx_ll_usb.c **** 
 4108              		.loc 1 1411 9 is_stmt 0 view .LVU1390
 4109 0086 0121     		movs	r1, #1
 4110              	.LVL330:
1411:Drivers/STM32F4xx_HAL_Driver/Src/stm32f4xx_ll_usb.c **** 
 4111              		.loc 1 1411 9 view .LVU1391
 4112 0088 2046     		mov	r0, r4
 4113 008a FFF7FEFF 		bl	USB_DriveVbus
 4114              	.LVL331:
1413:Drivers/STM32F4xx_HAL_Driver/Src/stm32f4xx_ll_usb.c **** 
 4115              		.loc 1 1413 3 is_stmt 1 view .LVU1392
 4116 008e C820     		movs	r0, #200
 4117 0090 FFF7FEFF 		bl	HAL_Delay
 4118              	.LVL332:
1416:Drivers/STM32F4xx_HAL_Driver/Src/stm32f4xx_ll_usb.c **** 
 4119              		.loc 1 1416 3 view .LVU1393
1419:Drivers/STM32F4xx_HAL_Driver/Src/stm32f4xx_ll_usb.c **** 
 4120              		.loc 1 1419 17 is_stmt 0 view .LVU1394
 4121 0094 4FF0FF33 		mov	r3, #-1
1416:Drivers/STM32F4xx_HAL_Driver/Src/stm32f4xx_ll_usb.c **** 
 4122              		.loc 1 1416 17 view .LVU1395
 4123 0098 0022     		movs	r2, #0
 4124 009a A261     		str	r2, [r4, #24]
1419:Drivers/STM32F4xx_HAL_Driver/Src/stm32f4xx_ll_usb.c **** 
 4125              		.loc 1 1419 3 is_stmt 1 view .LVU1396
1419:Drivers/STM32F4xx_HAL_Driver/Src/stm32f4xx_ll_usb.c **** 
ARM GAS  /tmp/ccDzXOxq.s 			page 122


 4126              		.loc 1 1419 17 is_stmt 0 view .LVU1397
 4127 009c 6361     		str	r3, [r4, #20]
1421:Drivers/STM32F4xx_HAL_Driver/Src/stm32f4xx_ll_usb.c ****   {
 4128              		.loc 1 1421 3 is_stmt 1 view .LVU1398
1421:Drivers/STM32F4xx_HAL_Driver/Src/stm32f4xx_ll_usb.c ****   {
 4129              		.loc 1 1421 12 is_stmt 0 view .LVU1399
 4130 009e E36B     		ldr	r3, [r4, #60]
1421:Drivers/STM32F4xx_HAL_Driver/Src/stm32f4xx_ll_usb.c ****   {
 4131              		.loc 1 1421 6 view .LVU1400
 4132 00a0 DB05     		lsls	r3, r3, #23
 4133 00a2 16D5     		bpl	.L348
1424:Drivers/STM32F4xx_HAL_Driver/Src/stm32f4xx_ll_usb.c ****     USBx->DIEPTXF0_HNPTXFSIZ = (uint32_t)(((0x100U << 16) & USB_OTG_NPTXFD) | 0x200U);
 4134              		.loc 1 1424 5 is_stmt 1 view .LVU1401
1425:Drivers/STM32F4xx_HAL_Driver/Src/stm32f4xx_ll_usb.c ****     USBx->HPTXFSIZ = (uint32_t)(((0xE0U << 16) & USB_OTG_HPTXFSIZ_PTXFD) | 0x300U);
 4135              		.loc 1 1425 30 is_stmt 0 view .LVU1402
 4136 00a4 144A     		ldr	r2, .L349+4
1426:Drivers/STM32F4xx_HAL_Driver/Src/stm32f4xx_ll_usb.c ****   }
 4137              		.loc 1 1426 20 view .LVU1403
 4138 00a6 154B     		ldr	r3, .L349+8
1424:Drivers/STM32F4xx_HAL_Driver/Src/stm32f4xx_ll_usb.c ****     USBx->DIEPTXF0_HNPTXFSIZ = (uint32_t)(((0x100U << 16) & USB_OTG_NPTXFD) | 0x200U);
 4139              		.loc 1 1424 20 view .LVU1404
 4140 00a8 4FF40071 		mov	r1, #512
 4141 00ac 6162     		str	r1, [r4, #36]
1425:Drivers/STM32F4xx_HAL_Driver/Src/stm32f4xx_ll_usb.c ****     USBx->HPTXFSIZ = (uint32_t)(((0xE0U << 16) & USB_OTG_HPTXFSIZ_PTXFD) | 0x300U);
 4142              		.loc 1 1425 5 is_stmt 1 view .LVU1405
1425:Drivers/STM32F4xx_HAL_Driver/Src/stm32f4xx_ll_usb.c ****     USBx->HPTXFSIZ = (uint32_t)(((0xE0U << 16) & USB_OTG_HPTXFSIZ_PTXFD) | 0x300U);
 4143              		.loc 1 1425 30 is_stmt 0 view .LVU1406
 4144 00ae A262     		str	r2, [r4, #40]
1426:Drivers/STM32F4xx_HAL_Driver/Src/stm32f4xx_ll_usb.c ****   }
 4145              		.loc 1 1426 5 is_stmt 1 view .LVU1407
1426:Drivers/STM32F4xx_HAL_Driver/Src/stm32f4xx_ll_usb.c ****   }
 4146              		.loc 1 1426 20 is_stmt 0 view .LVU1408
 4147 00b0 C4F80031 		str	r3, [r4, #256]
 4148              	.L333:
1437:Drivers/STM32F4xx_HAL_Driver/Src/stm32f4xx_ll_usb.c ****   {
 4149              		.loc 1 1437 3 is_stmt 1 view .LVU1409
1437:Drivers/STM32F4xx_HAL_Driver/Src/stm32f4xx_ll_usb.c ****   {
 4150              		.loc 1 1437 6 is_stmt 0 view .LVU1410
 4151 00b4 089B     		ldr	r3, [sp, #32]
 4152 00b6 1BB9     		cbnz	r3, .L334
1439:Drivers/STM32F4xx_HAL_Driver/Src/stm32f4xx_ll_usb.c ****   }
 4153              		.loc 1 1439 5 is_stmt 1 view .LVU1411
1439:Drivers/STM32F4xx_HAL_Driver/Src/stm32f4xx_ll_usb.c ****   }
 4154              		.loc 1 1439 19 is_stmt 0 view .LVU1412
 4155 00b8 A369     		ldr	r3, [r4, #24]
 4156 00ba 43F01003 		orr	r3, r3, #16
 4157 00be A361     		str	r3, [r4, #24]
 4158              	.L334:
1443:Drivers/STM32F4xx_HAL_Driver/Src/stm32f4xx_ll_usb.c ****                     USB_OTG_GINTMSK_SOFM             | USB_OTG_GINTSTS_DISCINT | \
 4159              		.loc 1 1443 3 is_stmt 1 view .LVU1413
1443:Drivers/STM32F4xx_HAL_Driver/Src/stm32f4xx_ll_usb.c ****                     USB_OTG_GINTMSK_SOFM             | USB_OTG_GINTSTS_DISCINT | \
 4160              		.loc 1 1443 17 is_stmt 0 view .LVU1414
 4161 00c0 A269     		ldr	r2, [r4, #24]
 4162 00c2 0F4B     		ldr	r3, .L349+12
 4163 00c4 1343     		orrs	r3, r3, r2
 4164 00c6 A361     		str	r3, [r4, #24]
1447:Drivers/STM32F4xx_HAL_Driver/Src/stm32f4xx_ll_usb.c **** }
ARM GAS  /tmp/ccDzXOxq.s 			page 123


 4165              		.loc 1 1447 3 is_stmt 1 view .LVU1415
1448:Drivers/STM32F4xx_HAL_Driver/Src/stm32f4xx_ll_usb.c **** 
 4166              		.loc 1 1448 1 is_stmt 0 view .LVU1416
 4167 00c8 BDE83840 		pop	{r3, r4, r5, lr}
 4168              	.LCFI53:
 4169              		.cfi_remember_state
 4170              		.cfi_restore 14
 4171              		.cfi_restore 5
 4172              		.cfi_restore 4
 4173              		.cfi_restore 3
 4174              		.cfi_def_cfa_offset 16
 4175              	.LVL333:
1448:Drivers/STM32F4xx_HAL_Driver/Src/stm32f4xx_ll_usb.c **** 
 4176              		.loc 1 1448 1 view .LVU1417
 4177 00cc 0020     		movs	r0, #0
 4178 00ce 04B0     		add	sp, sp, #16
 4179              	.LCFI54:
 4180              		.cfi_def_cfa_offset 0
 4181 00d0 7047     		bx	lr
 4182              	.LVL334:
 4183              	.L348:
 4184              	.LCFI55:
 4185              		.cfi_restore_state
1431:Drivers/STM32F4xx_HAL_Driver/Src/stm32f4xx_ll_usb.c ****     USBx->DIEPTXF0_HNPTXFSIZ = (uint32_t)(((0x60U << 16) & USB_OTG_NPTXFD) | 0x80U);
 4186              		.loc 1 1431 5 is_stmt 1 view .LVU1418
1432:Drivers/STM32F4xx_HAL_Driver/Src/stm32f4xx_ll_usb.c ****     USBx->HPTXFSIZ = (uint32_t)(((0x40U << 16)& USB_OTG_HPTXFSIZ_PTXFD) | 0xE0U);
 4187              		.loc 1 1432 30 is_stmt 0 view .LVU1419
 4188 00d2 0C4A     		ldr	r2, .L349+16
1433:Drivers/STM32F4xx_HAL_Driver/Src/stm32f4xx_ll_usb.c ****   }
 4189              		.loc 1 1433 20 view .LVU1420
 4190 00d4 0C4B     		ldr	r3, .L349+20
1431:Drivers/STM32F4xx_HAL_Driver/Src/stm32f4xx_ll_usb.c ****     USBx->DIEPTXF0_HNPTXFSIZ = (uint32_t)(((0x60U << 16) & USB_OTG_NPTXFD) | 0x80U);
 4191              		.loc 1 1431 20 view .LVU1421
 4192 00d6 8021     		movs	r1, #128
 4193 00d8 6162     		str	r1, [r4, #36]
1432:Drivers/STM32F4xx_HAL_Driver/Src/stm32f4xx_ll_usb.c ****     USBx->HPTXFSIZ = (uint32_t)(((0x40U << 16)& USB_OTG_HPTXFSIZ_PTXFD) | 0xE0U);
 4194              		.loc 1 1432 5 is_stmt 1 view .LVU1422
1432:Drivers/STM32F4xx_HAL_Driver/Src/stm32f4xx_ll_usb.c ****     USBx->HPTXFSIZ = (uint32_t)(((0x40U << 16)& USB_OTG_HPTXFSIZ_PTXFD) | 0xE0U);
 4195              		.loc 1 1432 30 is_stmt 0 view .LVU1423
 4196 00da A262     		str	r2, [r4, #40]
1433:Drivers/STM32F4xx_HAL_Driver/Src/stm32f4xx_ll_usb.c ****   }
 4197              		.loc 1 1433 5 is_stmt 1 view .LVU1424
1433:Drivers/STM32F4xx_HAL_Driver/Src/stm32f4xx_ll_usb.c ****   }
 4198              		.loc 1 1433 20 is_stmt 0 view .LVU1425
 4199 00dc C4F80031 		str	r3, [r4, #256]
 4200 00e0 E8E7     		b	.L333
 4201              	.LVL335:
 4202              	.L319:
1396:Drivers/STM32F4xx_HAL_Driver/Src/stm32f4xx_ll_usb.c ****   }
 4203              		.loc 1 1396 5 is_stmt 1 view .LVU1426
1396:Drivers/STM32F4xx_HAL_Driver/Src/stm32f4xx_ll_usb.c ****   }
 4204              		.loc 1 1396 21 is_stmt 0 view .LVU1427
 4205 00e2 D4F80034 		ldr	r3, [r4, #1024]
 4206 00e6 A9E7     		b	.L346
 4207              	.L347:
1385:Drivers/STM32F4xx_HAL_Driver/Src/stm32f4xx_ll_usb.c ****     }
 4208              		.loc 1 1385 7 is_stmt 1 view .LVU1428
ARM GAS  /tmp/ccDzXOxq.s 			page 124


1385:Drivers/STM32F4xx_HAL_Driver/Src/stm32f4xx_ll_usb.c ****     }
 4209              		.loc 1 1385 23 is_stmt 0 view .LVU1429
 4210 00e8 43F00403 		orr	r3, r3, #4
 4211 00ec C4F80034 		str	r3, [r4, #1024]
 4212 00f0 A8E7     		b	.L321
 4213              	.L350:
 4214 00f2 00BF     		.align	2
 4215              	.L349:
 4216 00f4 400D0300 		.word	200000
 4217 00f8 00020001 		.word	16777728
 4218 00fc 0003E000 		.word	14680832
 4219 0100 080020A3 		.word	-1558183928
 4220 0104 80006000 		.word	6291584
 4221 0108 E0004000 		.word	4194528
 4222              		.cfi_endproc
 4223              	.LFE164:
 4225              		.section	.text.USB_GetHostSpeed,"ax",%progbits
 4226              		.align	1
 4227              		.p2align 2,,3
 4228              		.global	USB_GetHostSpeed
 4229              		.syntax unified
 4230              		.thumb
 4231              		.thumb_func
 4232              		.fpu fpv4-sp-d16
 4234              	USB_GetHostSpeed:
 4235              	.LVL336:
 4236              	.LFB168:
1537:Drivers/STM32F4xx_HAL_Driver/Src/stm32f4xx_ll_usb.c **** 
1538:Drivers/STM32F4xx_HAL_Driver/Src/stm32f4xx_ll_usb.c **** /**
1539:Drivers/STM32F4xx_HAL_Driver/Src/stm32f4xx_ll_usb.c ****   * @brief  Return Host Core speed
1540:Drivers/STM32F4xx_HAL_Driver/Src/stm32f4xx_ll_usb.c ****   * @param  USBx  Selected device
1541:Drivers/STM32F4xx_HAL_Driver/Src/stm32f4xx_ll_usb.c ****   * @retval speed : Host speed
1542:Drivers/STM32F4xx_HAL_Driver/Src/stm32f4xx_ll_usb.c ****   *          This parameter can be one of these values:
1543:Drivers/STM32F4xx_HAL_Driver/Src/stm32f4xx_ll_usb.c ****   *            @arg HCD_SPEED_HIGH: High speed mode
1544:Drivers/STM32F4xx_HAL_Driver/Src/stm32f4xx_ll_usb.c ****   *            @arg HCD_SPEED_FULL: Full speed mode
1545:Drivers/STM32F4xx_HAL_Driver/Src/stm32f4xx_ll_usb.c ****   *            @arg HCD_SPEED_LOW: Low speed mode
1546:Drivers/STM32F4xx_HAL_Driver/Src/stm32f4xx_ll_usb.c ****   */
1547:Drivers/STM32F4xx_HAL_Driver/Src/stm32f4xx_ll_usb.c **** uint32_t USB_GetHostSpeed(USB_OTG_GlobalTypeDef *USBx)
1548:Drivers/STM32F4xx_HAL_Driver/Src/stm32f4xx_ll_usb.c **** {
 4237              		.loc 1 1548 1 is_stmt 1 view -0
 4238              		.cfi_startproc
 4239              		@ args = 0, pretend = 0, frame = 8
 4240              		@ frame_needed = 0, uses_anonymous_args = 0
 4241              		@ link register save eliminated.
1549:Drivers/STM32F4xx_HAL_Driver/Src/stm32f4xx_ll_usb.c ****   uint32_t USBx_BASE = (uint32_t)USBx;
 4242              		.loc 1 1549 3 view .LVU1431
1550:Drivers/STM32F4xx_HAL_Driver/Src/stm32f4xx_ll_usb.c ****   __IO uint32_t hprt0 = 0U;
 4243              		.loc 1 1550 3 view .LVU1432
1548:Drivers/STM32F4xx_HAL_Driver/Src/stm32f4xx_ll_usb.c ****   uint32_t USBx_BASE = (uint32_t)USBx;
 4244              		.loc 1 1548 1 is_stmt 0 view .LVU1433
 4245 0000 82B0     		sub	sp, sp, #8
 4246              	.LCFI56:
 4247              		.cfi_def_cfa_offset 8
 4248              		.loc 1 1550 17 view .LVU1434
 4249 0002 0023     		movs	r3, #0
 4250 0004 0193     		str	r3, [sp, #4]
1551:Drivers/STM32F4xx_HAL_Driver/Src/stm32f4xx_ll_usb.c **** 
ARM GAS  /tmp/ccDzXOxq.s 			page 125


1552:Drivers/STM32F4xx_HAL_Driver/Src/stm32f4xx_ll_usb.c ****   hprt0 = USBx_HPRT0;
 4251              		.loc 1 1552 3 is_stmt 1 view .LVU1435
 4252              		.loc 1 1552 11 is_stmt 0 view .LVU1436
 4253 0006 D0F84034 		ldr	r3, [r0, #1088]
 4254              		.loc 1 1552 9 view .LVU1437
 4255 000a 0193     		str	r3, [sp, #4]
1553:Drivers/STM32F4xx_HAL_Driver/Src/stm32f4xx_ll_usb.c ****   return ((hprt0 & USB_OTG_HPRT_PSPD) >> 17);
 4256              		.loc 1 1553 3 is_stmt 1 view .LVU1438
 4257              		.loc 1 1553 39 is_stmt 0 view .LVU1439
 4258 000c 0198     		ldr	r0, [sp, #4]
 4259              	.LVL337:
1554:Drivers/STM32F4xx_HAL_Driver/Src/stm32f4xx_ll_usb.c **** }
 4260              		.loc 1 1554 1 view .LVU1440
 4261 000e C0F34140 		ubfx	r0, r0, #17, #2
 4262 0012 02B0     		add	sp, sp, #8
 4263              	.LCFI57:
 4264              		.cfi_def_cfa_offset 0
 4265              		@ sp needed
 4266 0014 7047     		bx	lr
 4267              		.cfi_endproc
 4268              	.LFE168:
 4270 0016 00BF     		.section	.text.USB_GetCurrentFrame,"ax",%progbits
 4271              		.align	1
 4272              		.p2align 2,,3
 4273              		.global	USB_GetCurrentFrame
 4274              		.syntax unified
 4275              		.thumb
 4276              		.thumb_func
 4277              		.fpu fpv4-sp-d16
 4279              	USB_GetCurrentFrame:
 4280              	.LVL338:
 4281              	.LFB169:
1555:Drivers/STM32F4xx_HAL_Driver/Src/stm32f4xx_ll_usb.c **** 
1556:Drivers/STM32F4xx_HAL_Driver/Src/stm32f4xx_ll_usb.c **** /**
1557:Drivers/STM32F4xx_HAL_Driver/Src/stm32f4xx_ll_usb.c ****   * @brief  Return Host Current Frame number
1558:Drivers/STM32F4xx_HAL_Driver/Src/stm32f4xx_ll_usb.c ****   * @param  USBx  Selected device
1559:Drivers/STM32F4xx_HAL_Driver/Src/stm32f4xx_ll_usb.c ****   * @retval current frame number
1560:Drivers/STM32F4xx_HAL_Driver/Src/stm32f4xx_ll_usb.c ****   */
1561:Drivers/STM32F4xx_HAL_Driver/Src/stm32f4xx_ll_usb.c **** uint32_t USB_GetCurrentFrame(USB_OTG_GlobalTypeDef *USBx)
1562:Drivers/STM32F4xx_HAL_Driver/Src/stm32f4xx_ll_usb.c **** {
 4282              		.loc 1 1562 1 is_stmt 1 view -0
 4283              		.cfi_startproc
 4284              		@ args = 0, pretend = 0, frame = 0
 4285              		@ frame_needed = 0, uses_anonymous_args = 0
 4286              		@ link register save eliminated.
1563:Drivers/STM32F4xx_HAL_Driver/Src/stm32f4xx_ll_usb.c ****   uint32_t USBx_BASE = (uint32_t)USBx;
 4287              		.loc 1 1563 3 view .LVU1442
1564:Drivers/STM32F4xx_HAL_Driver/Src/stm32f4xx_ll_usb.c **** 
1565:Drivers/STM32F4xx_HAL_Driver/Src/stm32f4xx_ll_usb.c ****   return (USBx_HOST->HFNUM & USB_OTG_HFNUM_FRNUM);
 4288              		.loc 1 1565 3 view .LVU1443
 4289              		.loc 1 1565 11 is_stmt 0 view .LVU1444
 4290 0000 00F58060 		add	r0, r0, #1024
 4291              	.LVL339:
 4292              		.loc 1 1565 20 view .LVU1445
 4293 0004 8068     		ldr	r0, [r0, #8]
 4294              	.LVL340:
1566:Drivers/STM32F4xx_HAL_Driver/Src/stm32f4xx_ll_usb.c **** }
ARM GAS  /tmp/ccDzXOxq.s 			page 126


 4295              		.loc 1 1566 1 view .LVU1446
 4296 0006 80B2     		uxth	r0, r0
 4297 0008 7047     		bx	lr
 4298              		.cfi_endproc
 4299              	.LFE169:
 4301 000a 00BF     		.section	.text.USB_HC_Init,"ax",%progbits
 4302              		.align	1
 4303              		.p2align 2,,3
 4304              		.global	USB_HC_Init
 4305              		.syntax unified
 4306              		.thumb
 4307              		.thumb_func
 4308              		.fpu fpv4-sp-d16
 4310              	USB_HC_Init:
 4311              	.LVL341:
 4312              	.LFB170:
1567:Drivers/STM32F4xx_HAL_Driver/Src/stm32f4xx_ll_usb.c **** 
1568:Drivers/STM32F4xx_HAL_Driver/Src/stm32f4xx_ll_usb.c **** /**
1569:Drivers/STM32F4xx_HAL_Driver/Src/stm32f4xx_ll_usb.c ****   * @brief  Initialize a host channel
1570:Drivers/STM32F4xx_HAL_Driver/Src/stm32f4xx_ll_usb.c ****   * @param  USBx  Selected device
1571:Drivers/STM32F4xx_HAL_Driver/Src/stm32f4xx_ll_usb.c ****   * @param  ch_num  Channel number
1572:Drivers/STM32F4xx_HAL_Driver/Src/stm32f4xx_ll_usb.c ****   *         This parameter can be a value from 1 to 15
1573:Drivers/STM32F4xx_HAL_Driver/Src/stm32f4xx_ll_usb.c ****   * @param  epnum  Endpoint number
1574:Drivers/STM32F4xx_HAL_Driver/Src/stm32f4xx_ll_usb.c ****   *          This parameter can be a value from 1 to 15
1575:Drivers/STM32F4xx_HAL_Driver/Src/stm32f4xx_ll_usb.c ****   * @param  dev_address  Current device address
1576:Drivers/STM32F4xx_HAL_Driver/Src/stm32f4xx_ll_usb.c ****   *          This parameter can be a value from 0 to 255
1577:Drivers/STM32F4xx_HAL_Driver/Src/stm32f4xx_ll_usb.c ****   * @param  speed  Current device speed
1578:Drivers/STM32F4xx_HAL_Driver/Src/stm32f4xx_ll_usb.c ****   *          This parameter can be one of these values:
1579:Drivers/STM32F4xx_HAL_Driver/Src/stm32f4xx_ll_usb.c ****   *            @arg USB_OTG_SPEED_HIGH: High speed mode
1580:Drivers/STM32F4xx_HAL_Driver/Src/stm32f4xx_ll_usb.c ****   *            @arg USB_OTG_SPEED_FULL: Full speed mode
1581:Drivers/STM32F4xx_HAL_Driver/Src/stm32f4xx_ll_usb.c ****   *            @arg USB_OTG_SPEED_LOW: Low speed mode
1582:Drivers/STM32F4xx_HAL_Driver/Src/stm32f4xx_ll_usb.c ****   * @param  ep_type  Endpoint Type
1583:Drivers/STM32F4xx_HAL_Driver/Src/stm32f4xx_ll_usb.c ****   *          This parameter can be one of these values:
1584:Drivers/STM32F4xx_HAL_Driver/Src/stm32f4xx_ll_usb.c ****   *            @arg EP_TYPE_CTRL: Control type
1585:Drivers/STM32F4xx_HAL_Driver/Src/stm32f4xx_ll_usb.c ****   *            @arg EP_TYPE_ISOC: Isochronous type
1586:Drivers/STM32F4xx_HAL_Driver/Src/stm32f4xx_ll_usb.c ****   *            @arg EP_TYPE_BULK: Bulk type
1587:Drivers/STM32F4xx_HAL_Driver/Src/stm32f4xx_ll_usb.c ****   *            @arg EP_TYPE_INTR: Interrupt type
1588:Drivers/STM32F4xx_HAL_Driver/Src/stm32f4xx_ll_usb.c ****   * @param  mps  Max Packet Size
1589:Drivers/STM32F4xx_HAL_Driver/Src/stm32f4xx_ll_usb.c ****   *          This parameter can be a value from 0 to 32K
1590:Drivers/STM32F4xx_HAL_Driver/Src/stm32f4xx_ll_usb.c ****   * @retval HAL state
1591:Drivers/STM32F4xx_HAL_Driver/Src/stm32f4xx_ll_usb.c ****   */
1592:Drivers/STM32F4xx_HAL_Driver/Src/stm32f4xx_ll_usb.c **** HAL_StatusTypeDef USB_HC_Init(USB_OTG_GlobalTypeDef *USBx, uint8_t ch_num,
1593:Drivers/STM32F4xx_HAL_Driver/Src/stm32f4xx_ll_usb.c ****                               uint8_t epnum, uint8_t dev_address, uint8_t speed,
1594:Drivers/STM32F4xx_HAL_Driver/Src/stm32f4xx_ll_usb.c ****                               uint8_t ep_type, uint16_t mps)
1595:Drivers/STM32F4xx_HAL_Driver/Src/stm32f4xx_ll_usb.c **** {
 4313              		.loc 1 1595 1 is_stmt 1 view -0
 4314              		.cfi_startproc
 4315              		@ args = 12, pretend = 0, frame = 8
 4316              		@ frame_needed = 0, uses_anonymous_args = 0
1596:Drivers/STM32F4xx_HAL_Driver/Src/stm32f4xx_ll_usb.c ****   HAL_StatusTypeDef ret = HAL_OK;
 4317              		.loc 1 1596 3 view .LVU1448
1597:Drivers/STM32F4xx_HAL_Driver/Src/stm32f4xx_ll_usb.c ****   uint32_t USBx_BASE = (uint32_t)USBx;
 4318              		.loc 1 1597 3 view .LVU1449
1598:Drivers/STM32F4xx_HAL_Driver/Src/stm32f4xx_ll_usb.c ****   uint32_t HCcharEpDir, HCcharLowSpeed;
 4319              		.loc 1 1598 3 view .LVU1450
1599:Drivers/STM32F4xx_HAL_Driver/Src/stm32f4xx_ll_usb.c ****   uint32_t HostCoreSpeed;
 4320              		.loc 1 1599 3 view .LVU1451
ARM GAS  /tmp/ccDzXOxq.s 			page 127


1600:Drivers/STM32F4xx_HAL_Driver/Src/stm32f4xx_ll_usb.c **** 
1601:Drivers/STM32F4xx_HAL_Driver/Src/stm32f4xx_ll_usb.c ****   /* Clear old interrupt conditions for this host channel. */
1602:Drivers/STM32F4xx_HAL_Driver/Src/stm32f4xx_ll_usb.c ****   USBx_HC((uint32_t)ch_num)->HCINT = 0xFFFFFFFFU;
 4321              		.loc 1 1602 3 view .LVU1452
1595:Drivers/STM32F4xx_HAL_Driver/Src/stm32f4xx_ll_usb.c ****   HAL_StatusTypeDef ret = HAL_OK;
 4322              		.loc 1 1595 1 is_stmt 0 view .LVU1453
 4323 0000 2DE9F041 		push	{r4, r5, r6, r7, r8, lr}
 4324              	.LCFI58:
 4325              		.cfi_def_cfa_offset 24
 4326              		.cfi_offset 4, -24
 4327              		.cfi_offset 5, -20
 4328              		.cfi_offset 6, -16
 4329              		.cfi_offset 7, -12
 4330              		.cfi_offset 8, -8
 4331              		.cfi_offset 14, -4
 4332 0004 82B0     		sub	sp, sp, #8
 4333              	.LCFI59:
 4334              		.cfi_def_cfa_offset 32
 4335              		.loc 1 1602 3 view .LVU1454
 4336 0006 00EB4115 		add	r5, r0, r1, lsl #5
 4337 000a 05F5A066 		add	r6, r5, #1280
1595:Drivers/STM32F4xx_HAL_Driver/Src/stm32f4xx_ll_usb.c ****   HAL_StatusTypeDef ret = HAL_OK;
 4338              		.loc 1 1595 1 view .LVU1455
 4339 000e 9DF82440 		ldrb	r4, [sp, #36]	@ zero_extendqisi2
 4340 0012 9DF820E0 		ldrb	lr, [sp, #32]	@ zero_extendqisi2
 4341 0016 BDF828C0 		ldrh	ip, [sp, #40]
 4342              		.loc 1 1602 36 view .LVU1456
 4343 001a 4FF0FF37 		mov	r7, #-1
 4344 001e B760     		str	r7, [r6, #8]
1603:Drivers/STM32F4xx_HAL_Driver/Src/stm32f4xx_ll_usb.c **** 
1604:Drivers/STM32F4xx_HAL_Driver/Src/stm32f4xx_ll_usb.c ****   /* Enable channel interrupts required for this transfer. */
1605:Drivers/STM32F4xx_HAL_Driver/Src/stm32f4xx_ll_usb.c ****   switch (ep_type)
 4345              		.loc 1 1605 3 is_stmt 1 view .LVU1457
 4346 0020 032C     		cmp	r4, #3
 4347 0022 73D8     		bhi	.L355
 4348 0024 DFE804F0 		tbb	[pc, r4]
 4349              	.L357:
 4350 0028 02       		.byte	(.L358-.L357)/2
 4351 0029 68       		.byte	(.L359-.L357)/2
 4352 002a 02       		.byte	(.L358-.L357)/2
 4353 002b 4D       		.byte	(.L356-.L357)/2
 4354              		.p2align 1
 4355              	.L358:
1606:Drivers/STM32F4xx_HAL_Driver/Src/stm32f4xx_ll_usb.c ****   {
1607:Drivers/STM32F4xx_HAL_Driver/Src/stm32f4xx_ll_usb.c ****     case EP_TYPE_CTRL:
1608:Drivers/STM32F4xx_HAL_Driver/Src/stm32f4xx_ll_usb.c ****     case EP_TYPE_BULK:
1609:Drivers/STM32F4xx_HAL_Driver/Src/stm32f4xx_ll_usb.c ****       USBx_HC((uint32_t)ch_num)->HCINTMSK = USB_OTG_HCINTMSK_XFRCM  |
 4356              		.loc 1 1609 7 view .LVU1458
 4357              		.loc 1 1609 43 is_stmt 0 view .LVU1459
 4358 002c 40F29D47 		movw	r7, #1181
 4359 0030 F760     		str	r7, [r6, #12]
1610:Drivers/STM32F4xx_HAL_Driver/Src/stm32f4xx_ll_usb.c ****                                             USB_OTG_HCINTMSK_STALLM |
1611:Drivers/STM32F4xx_HAL_Driver/Src/stm32f4xx_ll_usb.c ****                                             USB_OTG_HCINTMSK_TXERRM |
1612:Drivers/STM32F4xx_HAL_Driver/Src/stm32f4xx_ll_usb.c ****                                             USB_OTG_HCINTMSK_DTERRM |
1613:Drivers/STM32F4xx_HAL_Driver/Src/stm32f4xx_ll_usb.c ****                                             USB_OTG_HCINTMSK_AHBERR |
1614:Drivers/STM32F4xx_HAL_Driver/Src/stm32f4xx_ll_usb.c ****                                             USB_OTG_HCINTMSK_NAKM;
1615:Drivers/STM32F4xx_HAL_Driver/Src/stm32f4xx_ll_usb.c **** 
ARM GAS  /tmp/ccDzXOxq.s 			page 128


1616:Drivers/STM32F4xx_HAL_Driver/Src/stm32f4xx_ll_usb.c ****       if ((epnum & 0x80U) == 0x80U)
 4360              		.loc 1 1616 7 is_stmt 1 view .LVU1460
 4361              		.loc 1 1616 10 is_stmt 0 view .LVU1461
 4362 0032 1706     		lsls	r7, r2, #24
 4363 0034 4AD4     		bmi	.L375
1617:Drivers/STM32F4xx_HAL_Driver/Src/stm32f4xx_ll_usb.c ****       {
1618:Drivers/STM32F4xx_HAL_Driver/Src/stm32f4xx_ll_usb.c ****         USBx_HC((uint32_t)ch_num)->HCINTMSK |= USB_OTG_HCINTMSK_BBERRM;
1619:Drivers/STM32F4xx_HAL_Driver/Src/stm32f4xx_ll_usb.c ****       }
1620:Drivers/STM32F4xx_HAL_Driver/Src/stm32f4xx_ll_usb.c ****       else
1621:Drivers/STM32F4xx_HAL_Driver/Src/stm32f4xx_ll_usb.c ****       {
1622:Drivers/STM32F4xx_HAL_Driver/Src/stm32f4xx_ll_usb.c ****         if ((USBx->CID & (0x1U << 8)) != 0U)
 4364              		.loc 1 1622 9 is_stmt 1 view .LVU1462
 4365              		.loc 1 1622 18 is_stmt 0 view .LVU1463
 4366 0036 C76B     		ldr	r7, [r0, #60]
 4367              		.loc 1 1622 12 view .LVU1464
 4368 0038 FF05     		lsls	r7, r7, #23
 4369 003a 03D5     		bpl	.L363
1623:Drivers/STM32F4xx_HAL_Driver/Src/stm32f4xx_ll_usb.c ****         {
1624:Drivers/STM32F4xx_HAL_Driver/Src/stm32f4xx_ll_usb.c ****           USBx_HC((uint32_t)ch_num)->HCINTMSK |= USB_OTG_HCINTMSK_NYET |
 4370              		.loc 1 1624 11 is_stmt 1 view .LVU1465
 4371              		.loc 1 1624 47 is_stmt 0 view .LVU1466
 4372 003c F768     		ldr	r7, [r6, #12]
 4373 003e 47F06007 		orr	r7, r7, #96
 4374 0042 F760     		str	r7, [r6, #12]
 4375              	.L363:
1625:Drivers/STM32F4xx_HAL_Driver/Src/stm32f4xx_ll_usb.c ****                                                  USB_OTG_HCINTMSK_ACKM;
1626:Drivers/STM32F4xx_HAL_Driver/Src/stm32f4xx_ll_usb.c ****         }
1627:Drivers/STM32F4xx_HAL_Driver/Src/stm32f4xx_ll_usb.c ****       }
1628:Drivers/STM32F4xx_HAL_Driver/Src/stm32f4xx_ll_usb.c ****       break;
1629:Drivers/STM32F4xx_HAL_Driver/Src/stm32f4xx_ll_usb.c **** 
1630:Drivers/STM32F4xx_HAL_Driver/Src/stm32f4xx_ll_usb.c ****     case EP_TYPE_INTR:
1631:Drivers/STM32F4xx_HAL_Driver/Src/stm32f4xx_ll_usb.c ****       USBx_HC((uint32_t)ch_num)->HCINTMSK = USB_OTG_HCINTMSK_XFRCM  |
1632:Drivers/STM32F4xx_HAL_Driver/Src/stm32f4xx_ll_usb.c ****                                             USB_OTG_HCINTMSK_STALLM |
1633:Drivers/STM32F4xx_HAL_Driver/Src/stm32f4xx_ll_usb.c ****                                             USB_OTG_HCINTMSK_TXERRM |
1634:Drivers/STM32F4xx_HAL_Driver/Src/stm32f4xx_ll_usb.c ****                                             USB_OTG_HCINTMSK_DTERRM |
1635:Drivers/STM32F4xx_HAL_Driver/Src/stm32f4xx_ll_usb.c ****                                             USB_OTG_HCINTMSK_NAKM   |
1636:Drivers/STM32F4xx_HAL_Driver/Src/stm32f4xx_ll_usb.c ****                                             USB_OTG_HCINTMSK_AHBERR |
1637:Drivers/STM32F4xx_HAL_Driver/Src/stm32f4xx_ll_usb.c ****                                             USB_OTG_HCINTMSK_FRMORM;
1638:Drivers/STM32F4xx_HAL_Driver/Src/stm32f4xx_ll_usb.c **** 
1639:Drivers/STM32F4xx_HAL_Driver/Src/stm32f4xx_ll_usb.c ****       if ((epnum & 0x80U) == 0x80U)
1640:Drivers/STM32F4xx_HAL_Driver/Src/stm32f4xx_ll_usb.c ****       {
1641:Drivers/STM32F4xx_HAL_Driver/Src/stm32f4xx_ll_usb.c ****         USBx_HC((uint32_t)ch_num)->HCINTMSK |= USB_OTG_HCINTMSK_BBERRM;
1642:Drivers/STM32F4xx_HAL_Driver/Src/stm32f4xx_ll_usb.c ****       }
1643:Drivers/STM32F4xx_HAL_Driver/Src/stm32f4xx_ll_usb.c **** 
1644:Drivers/STM32F4xx_HAL_Driver/Src/stm32f4xx_ll_usb.c ****       break;
1645:Drivers/STM32F4xx_HAL_Driver/Src/stm32f4xx_ll_usb.c **** 
1646:Drivers/STM32F4xx_HAL_Driver/Src/stm32f4xx_ll_usb.c ****     case EP_TYPE_ISOC:
1647:Drivers/STM32F4xx_HAL_Driver/Src/stm32f4xx_ll_usb.c ****       USBx_HC((uint32_t)ch_num)->HCINTMSK = USB_OTG_HCINTMSK_XFRCM  |
1648:Drivers/STM32F4xx_HAL_Driver/Src/stm32f4xx_ll_usb.c ****                                             USB_OTG_HCINTMSK_ACKM   |
1649:Drivers/STM32F4xx_HAL_Driver/Src/stm32f4xx_ll_usb.c ****                                             USB_OTG_HCINTMSK_AHBERR |
1650:Drivers/STM32F4xx_HAL_Driver/Src/stm32f4xx_ll_usb.c ****                                             USB_OTG_HCINTMSK_FRMORM;
1651:Drivers/STM32F4xx_HAL_Driver/Src/stm32f4xx_ll_usb.c **** 
1652:Drivers/STM32F4xx_HAL_Driver/Src/stm32f4xx_ll_usb.c ****       if ((epnum & 0x80U) == 0x80U)
1653:Drivers/STM32F4xx_HAL_Driver/Src/stm32f4xx_ll_usb.c ****       {
1654:Drivers/STM32F4xx_HAL_Driver/Src/stm32f4xx_ll_usb.c ****         USBx_HC((uint32_t)ch_num)->HCINTMSK |= (USB_OTG_HCINTMSK_TXERRM | USB_OTG_HCINTMSK_BBERRM);
1655:Drivers/STM32F4xx_HAL_Driver/Src/stm32f4xx_ll_usb.c ****       }
1656:Drivers/STM32F4xx_HAL_Driver/Src/stm32f4xx_ll_usb.c ****       break;
ARM GAS  /tmp/ccDzXOxq.s 			page 129


1657:Drivers/STM32F4xx_HAL_Driver/Src/stm32f4xx_ll_usb.c **** 
1658:Drivers/STM32F4xx_HAL_Driver/Src/stm32f4xx_ll_usb.c ****     default:
1659:Drivers/STM32F4xx_HAL_Driver/Src/stm32f4xx_ll_usb.c ****       ret = HAL_ERROR;
1660:Drivers/STM32F4xx_HAL_Driver/Src/stm32f4xx_ll_usb.c ****       break;
1661:Drivers/STM32F4xx_HAL_Driver/Src/stm32f4xx_ll_usb.c ****   }
1662:Drivers/STM32F4xx_HAL_Driver/Src/stm32f4xx_ll_usb.c **** 
1663:Drivers/STM32F4xx_HAL_Driver/Src/stm32f4xx_ll_usb.c ****   /* Enable the top level host channel interrupt. */
1664:Drivers/STM32F4xx_HAL_Driver/Src/stm32f4xx_ll_usb.c ****   USBx_HOST->HAINTMSK |= 1UL << (ch_num & 0xFU);
 4376              		.loc 1 1664 3 is_stmt 1 view .LVU1467
 4377              		.loc 1 1664 23 is_stmt 0 view .LVU1468
 4378 0044 D0F81884 		ldr	r8, [r0, #1048]
 4379              		.loc 1 1664 30 view .LVU1469
 4380 0048 0126     		movs	r6, #1
 4381              		.loc 1 1664 41 view .LVU1470
 4382 004a 01F00F01 		and	r1, r1, #15
 4383              	.LVL342:
 4384              		.loc 1 1664 30 view .LVU1471
 4385 004e 06FA01F1 		lsl	r1, r6, r1
 4386              		.loc 1 1664 23 view .LVU1472
 4387 0052 41EA0801 		orr	r1, r1, r8
 4388 0056 C0F81814 		str	r1, [r0, #1048]
1665:Drivers/STM32F4xx_HAL_Driver/Src/stm32f4xx_ll_usb.c **** 
1666:Drivers/STM32F4xx_HAL_Driver/Src/stm32f4xx_ll_usb.c ****   /* Make sure host channel interrupts are enabled. */
1667:Drivers/STM32F4xx_HAL_Driver/Src/stm32f4xx_ll_usb.c ****   USBx->GINTMSK |= USB_OTG_GINTMSK_HCIM;
 4389              		.loc 1 1667 3 is_stmt 1 view .LVU1473
 4390              		.loc 1 1667 17 is_stmt 0 view .LVU1474
 4391 005a 8169     		ldr	r1, [r0, #24]
 4392 005c 0026     		movs	r6, #0
 4393 005e 41F00071 		orr	r1, r1, #33554432
 4394 0062 8161     		str	r1, [r0, #24]
1668:Drivers/STM32F4xx_HAL_Driver/Src/stm32f4xx_ll_usb.c **** 
1669:Drivers/STM32F4xx_HAL_Driver/Src/stm32f4xx_ll_usb.c ****   /* Program the HCCHAR register */
1670:Drivers/STM32F4xx_HAL_Driver/Src/stm32f4xx_ll_usb.c ****   if ((epnum & 0x80U) == 0x80U)
 4395              		.loc 1 1670 3 is_stmt 1 view .LVU1475
1671:Drivers/STM32F4xx_HAL_Driver/Src/stm32f4xx_ll_usb.c ****   {
1672:Drivers/STM32F4xx_HAL_Driver/Src/stm32f4xx_ll_usb.c ****     HCcharEpDir = (0x1U << 15) & USB_OTG_HCCHAR_EPDIR;
1673:Drivers/STM32F4xx_HAL_Driver/Src/stm32f4xx_ll_usb.c ****   }
1674:Drivers/STM32F4xx_HAL_Driver/Src/stm32f4xx_ll_usb.c ****   else
1675:Drivers/STM32F4xx_HAL_Driver/Src/stm32f4xx_ll_usb.c ****   {
1676:Drivers/STM32F4xx_HAL_Driver/Src/stm32f4xx_ll_usb.c ****     HCcharEpDir = 0U;
 4396              		.loc 1 1676 17 is_stmt 0 view .LVU1476
 4397 0064 3746     		mov	r7, r6
 4398              	.LVL343:
 4399              	.L364:
1677:Drivers/STM32F4xx_HAL_Driver/Src/stm32f4xx_ll_usb.c ****   }
1678:Drivers/STM32F4xx_HAL_Driver/Src/stm32f4xx_ll_usb.c **** 
1679:Drivers/STM32F4xx_HAL_Driver/Src/stm32f4xx_ll_usb.c ****   HostCoreSpeed = USB_GetHostSpeed(USBx);
 4400              		.loc 1 1679 3 is_stmt 1 view .LVU1477
 4401              	.LBB70:
 4402              	.LBI70:
1547:Drivers/STM32F4xx_HAL_Driver/Src/stm32f4xx_ll_usb.c **** {
 4403              		.loc 1 1547 10 view .LVU1478
 4404              	.LBB71:
1549:Drivers/STM32F4xx_HAL_Driver/Src/stm32f4xx_ll_usb.c ****   __IO uint32_t hprt0 = 0U;
 4405              		.loc 1 1549 3 view .LVU1479
1550:Drivers/STM32F4xx_HAL_Driver/Src/stm32f4xx_ll_usb.c **** 
 4406              		.loc 1 1550 3 view .LVU1480
ARM GAS  /tmp/ccDzXOxq.s 			page 130


1550:Drivers/STM32F4xx_HAL_Driver/Src/stm32f4xx_ll_usb.c **** 
 4407              		.loc 1 1550 17 is_stmt 0 view .LVU1481
 4408 0066 0021     		movs	r1, #0
 4409 0068 0191     		str	r1, [sp, #4]
1552:Drivers/STM32F4xx_HAL_Driver/Src/stm32f4xx_ll_usb.c ****   return ((hprt0 & USB_OTG_HPRT_PSPD) >> 17);
 4410              		.loc 1 1552 3 is_stmt 1 view .LVU1482
1552:Drivers/STM32F4xx_HAL_Driver/Src/stm32f4xx_ll_usb.c ****   return ((hprt0 & USB_OTG_HPRT_PSPD) >> 17);
 4411              		.loc 1 1552 11 is_stmt 0 view .LVU1483
 4412 006a D0F84004 		ldr	r0, [r0, #1088]
 4413              	.LVL344:
1552:Drivers/STM32F4xx_HAL_Driver/Src/stm32f4xx_ll_usb.c ****   return ((hprt0 & USB_OTG_HPRT_PSPD) >> 17);
 4414              		.loc 1 1552 9 view .LVU1484
 4415 006e 0190     		str	r0, [sp, #4]
1553:Drivers/STM32F4xx_HAL_Driver/Src/stm32f4xx_ll_usb.c **** }
 4416              		.loc 1 1553 3 is_stmt 1 view .LVU1485
 4417              	.LBE71:
 4418              	.LBE70:
1680:Drivers/STM32F4xx_HAL_Driver/Src/stm32f4xx_ll_usb.c **** 
1681:Drivers/STM32F4xx_HAL_Driver/Src/stm32f4xx_ll_usb.c ****   /* LS device plugged to HUB */
1682:Drivers/STM32F4xx_HAL_Driver/Src/stm32f4xx_ll_usb.c ****   if ((speed == HPRT0_PRTSPD_LOW_SPEED) && (HostCoreSpeed != HPRT0_PRTSPD_LOW_SPEED))
 4419              		.loc 1 1682 6 is_stmt 0 view .LVU1486
 4420 0070 BEF1020F 		cmp	lr, #2
 4421              	.LBB74:
 4422              	.LBB72:
1553:Drivers/STM32F4xx_HAL_Driver/Src/stm32f4xx_ll_usb.c **** }
 4423              		.loc 1 1553 39 view .LVU1487
 4424 0074 0198     		ldr	r0, [sp, #4]
 4425              	.LVL345:
1553:Drivers/STM32F4xx_HAL_Driver/Src/stm32f4xx_ll_usb.c **** }
 4426              		.loc 1 1553 39 view .LVU1488
 4427              	.LBE72:
 4428              	.LBE74:
 4429              		.loc 1 1682 3 is_stmt 1 view .LVU1489
 4430              		.loc 1 1682 6 is_stmt 0 view .LVU1490
 4431 0076 05D1     		bne	.L365
 4432              	.LBB75:
 4433              	.LBB73:
1553:Drivers/STM32F4xx_HAL_Driver/Src/stm32f4xx_ll_usb.c **** }
 4434              		.loc 1 1553 39 discriminator 1 view .LVU1491
 4435 0078 C0F34140 		ubfx	r0, r0, #17, #2
 4436              	.LVL346:
1553:Drivers/STM32F4xx_HAL_Driver/Src/stm32f4xx_ll_usb.c **** }
 4437              		.loc 1 1553 39 discriminator 1 view .LVU1492
 4438              	.LBE73:
 4439              	.LBE75:
1683:Drivers/STM32F4xx_HAL_Driver/Src/stm32f4xx_ll_usb.c ****   {
1684:Drivers/STM32F4xx_HAL_Driver/Src/stm32f4xx_ll_usb.c ****     HCcharLowSpeed = (0x1U << 17) & USB_OTG_HCCHAR_LSDEV;
 4440              		.loc 1 1684 20 discriminator 1 view .LVU1493
 4441 007c 0228     		cmp	r0, #2
 4442 007e 18BF     		it	ne
 4443 0080 4FF40031 		movne	r1, #131072
 4444              	.L365:
 4445              	.LVL347:
1685:Drivers/STM32F4xx_HAL_Driver/Src/stm32f4xx_ll_usb.c ****   }
1686:Drivers/STM32F4xx_HAL_Driver/Src/stm32f4xx_ll_usb.c ****   else
1687:Drivers/STM32F4xx_HAL_Driver/Src/stm32f4xx_ll_usb.c ****   {
1688:Drivers/STM32F4xx_HAL_Driver/Src/stm32f4xx_ll_usb.c ****     HCcharLowSpeed = 0U;
ARM GAS  /tmp/ccDzXOxq.s 			page 131


1689:Drivers/STM32F4xx_HAL_Driver/Src/stm32f4xx_ll_usb.c ****   }
1690:Drivers/STM32F4xx_HAL_Driver/Src/stm32f4xx_ll_usb.c **** 
1691:Drivers/STM32F4xx_HAL_Driver/Src/stm32f4xx_ll_usb.c ****   USBx_HC((uint32_t)ch_num)->HCCHAR = (((uint32_t)dev_address << 22) & USB_OTG_HCCHAR_DAD) |
 4446              		.loc 1 1691 3 is_stmt 1 view .LVU1494
 4447              		.loc 1 1691 63 is_stmt 0 view .LVU1495
 4448 0084 9B05     		lsls	r3, r3, #22
 4449              	.LVL348:
1692:Drivers/STM32F4xx_HAL_Driver/Src/stm32f4xx_ll_usb.c ****                                       ((((uint32_t)epnum & 0x7FU) << 11) & USB_OTG_HCCHAR_EPNUM) |
 4450              		.loc 1 1692 67 view .LVU1496
 4451 0086 D202     		lsls	r2, r2, #11
 4452              	.LVL349:
1691:Drivers/STM32F4xx_HAL_Driver/Src/stm32f4xx_ll_usb.c ****                                       ((((uint32_t)epnum & 0x7FU) << 11) & USB_OTG_HCCHAR_EPNUM) |
 4453              		.loc 1 1691 70 view .LVU1497
 4454 0088 03F0FE53 		and	r3, r3, #532676608
1693:Drivers/STM32F4xx_HAL_Driver/Src/stm32f4xx_ll_usb.c ****                                       (((uint32_t)ep_type << 18) & USB_OTG_HCCHAR_EPTYP) |
1694:Drivers/STM32F4xx_HAL_Driver/Src/stm32f4xx_ll_usb.c ****                                       ((uint32_t)mps & USB_OTG_HCCHAR_MPSIZ) | HCcharEpDir | HCchar
 4455              		.loc 1 1694 54 view .LVU1498
 4456 008c CCF30A0C 		ubfx	ip, ip, #0, #11
1692:Drivers/STM32F4xx_HAL_Driver/Src/stm32f4xx_ll_usb.c ****                                       (((uint32_t)ep_type << 18) & USB_OTG_HCCHAR_EPTYP) |
 4457              		.loc 1 1692 74 view .LVU1499
 4458 0090 02F4F040 		and	r0, r2, #30720
1693:Drivers/STM32F4xx_HAL_Driver/Src/stm32f4xx_ll_usb.c ****                                       (((uint32_t)ep_type << 18) & USB_OTG_HCCHAR_EPTYP) |
 4459              		.loc 1 1693 90 view .LVU1500
 4460 0094 43EA0C03 		orr	r3, r3, ip
1693:Drivers/STM32F4xx_HAL_Driver/Src/stm32f4xx_ll_usb.c ****                                       (((uint32_t)ep_type << 18) & USB_OTG_HCCHAR_EPTYP) |
 4461              		.loc 1 1693 59 view .LVU1501
 4462 0098 A204     		lsls	r2, r4, #18
1693:Drivers/STM32F4xx_HAL_Driver/Src/stm32f4xx_ll_usb.c ****                                       (((uint32_t)ep_type << 18) & USB_OTG_HCCHAR_EPTYP) |
 4463              		.loc 1 1693 90 view .LVU1502
 4464 009a 0343     		orrs	r3, r3, r0
1693:Drivers/STM32F4xx_HAL_Driver/Src/stm32f4xx_ll_usb.c ****                                       (((uint32_t)ep_type << 18) & USB_OTG_HCCHAR_EPTYP) |
 4465              		.loc 1 1693 66 view .LVU1503
 4466 009c 02F44022 		and	r2, r2, #786432
1693:Drivers/STM32F4xx_HAL_Driver/Src/stm32f4xx_ll_usb.c ****                                       (((uint32_t)ep_type << 18) & USB_OTG_HCCHAR_EPTYP) |
 4467              		.loc 1 1693 90 view .LVU1504
 4468 00a0 1343     		orrs	r3, r3, r2
 4469              		.loc 1 1694 78 view .LVU1505
 4470 00a2 3B43     		orrs	r3, r3, r7
 4471              		.loc 1 1694 92 view .LVU1506
 4472 00a4 0B43     		orrs	r3, r3, r1
1695:Drivers/STM32F4xx_HAL_Driver/Src/stm32f4xx_ll_usb.c **** 
1696:Drivers/STM32F4xx_HAL_Driver/Src/stm32f4xx_ll_usb.c ****   if (ep_type == EP_TYPE_INTR)
 4473              		.loc 1 1696 6 view .LVU1507
 4474 00a6 032C     		cmp	r4, #3
1691:Drivers/STM32F4xx_HAL_Driver/Src/stm32f4xx_ll_usb.c ****                                       ((((uint32_t)epnum & 0x7FU) << 11) & USB_OTG_HCCHAR_EPNUM) |
 4475              		.loc 1 1691 37 view .LVU1508
 4476 00a8 C5F80035 		str	r3, [r5, #1280]
 4477              		.loc 1 1696 3 is_stmt 1 view .LVU1509
 4478              		.loc 1 1696 6 is_stmt 0 view .LVU1510
 4479 00ac 05D1     		bne	.L370
1697:Drivers/STM32F4xx_HAL_Driver/Src/stm32f4xx_ll_usb.c ****   {
1698:Drivers/STM32F4xx_HAL_Driver/Src/stm32f4xx_ll_usb.c ****     USBx_HC((uint32_t)ch_num)->HCCHAR |= USB_OTG_HCCHAR_ODDFRM ;
 4480              		.loc 1 1698 5 is_stmt 1 view .LVU1511
 4481              		.loc 1 1698 39 is_stmt 0 view .LVU1512
 4482 00ae D5F80035 		ldr	r3, [r5, #1280]
 4483 00b2 43F00053 		orr	r3, r3, #536870912
 4484 00b6 C5F80035 		str	r3, [r5, #1280]
ARM GAS  /tmp/ccDzXOxq.s 			page 132


1699:Drivers/STM32F4xx_HAL_Driver/Src/stm32f4xx_ll_usb.c ****   }
1700:Drivers/STM32F4xx_HAL_Driver/Src/stm32f4xx_ll_usb.c **** 
1701:Drivers/STM32F4xx_HAL_Driver/Src/stm32f4xx_ll_usb.c ****   return ret;
 4485              		.loc 1 1701 3 is_stmt 1 view .LVU1513
 4486              	.L370:
1702:Drivers/STM32F4xx_HAL_Driver/Src/stm32f4xx_ll_usb.c **** }
 4487              		.loc 1 1702 1 is_stmt 0 view .LVU1514
 4488 00ba 3046     		mov	r0, r6
 4489 00bc 02B0     		add	sp, sp, #8
 4490              	.LCFI60:
 4491              		.cfi_remember_state
 4492              		.cfi_def_cfa_offset 24
 4493              		@ sp needed
 4494 00be BDE8F081 		pop	{r4, r5, r6, r7, r8, pc}
 4495              	.LVL350:
 4496              	.L356:
 4497              	.LCFI61:
 4498              		.cfi_restore_state
1631:Drivers/STM32F4xx_HAL_Driver/Src/stm32f4xx_ll_usb.c ****                                             USB_OTG_HCINTMSK_STALLM |
 4499              		.loc 1 1631 7 is_stmt 1 view .LVU1515
1631:Drivers/STM32F4xx_HAL_Driver/Src/stm32f4xx_ll_usb.c ****                                             USB_OTG_HCINTMSK_STALLM |
 4500              		.loc 1 1631 43 is_stmt 0 view .LVU1516
 4501 00c2 40F29D67 		movw	r7, #1693
 4502 00c6 F760     		str	r7, [r6, #12]
1639:Drivers/STM32F4xx_HAL_Driver/Src/stm32f4xx_ll_usb.c ****       {
 4503              		.loc 1 1639 7 is_stmt 1 view .LVU1517
1639:Drivers/STM32F4xx_HAL_Driver/Src/stm32f4xx_ll_usb.c ****       {
 4504              		.loc 1 1639 10 is_stmt 0 view .LVU1518
 4505 00c8 1706     		lsls	r7, r2, #24
 4506 00ca BBD5     		bpl	.L363
 4507              	.L375:
1641:Drivers/STM32F4xx_HAL_Driver/Src/stm32f4xx_ll_usb.c ****       }
 4508              		.loc 1 1641 9 is_stmt 1 view .LVU1519
1641:Drivers/STM32F4xx_HAL_Driver/Src/stm32f4xx_ll_usb.c ****       }
 4509              		.loc 1 1641 45 is_stmt 0 view .LVU1520
 4510 00cc F768     		ldr	r7, [r6, #12]
 4511 00ce 47F48077 		orr	r7, r7, #256
 4512 00d2 F760     		str	r7, [r6, #12]
 4513              	.LVL351:
 4514              	.L361:
1664:Drivers/STM32F4xx_HAL_Driver/Src/stm32f4xx_ll_usb.c **** 
 4515              		.loc 1 1664 3 is_stmt 1 view .LVU1521
1664:Drivers/STM32F4xx_HAL_Driver/Src/stm32f4xx_ll_usb.c **** 
 4516              		.loc 1 1664 23 is_stmt 0 view .LVU1522
 4517 00d4 D0F81874 		ldr	r7, [r0, #1048]
1664:Drivers/STM32F4xx_HAL_Driver/Src/stm32f4xx_ll_usb.c **** 
 4518              		.loc 1 1664 41 view .LVU1523
 4519 00d8 01F00F08 		and	r8, r1, #15
1664:Drivers/STM32F4xx_HAL_Driver/Src/stm32f4xx_ll_usb.c **** 
 4520              		.loc 1 1664 30 view .LVU1524
 4521 00dc 0121     		movs	r1, #1
 4522              	.LVL352:
1664:Drivers/STM32F4xx_HAL_Driver/Src/stm32f4xx_ll_usb.c **** 
 4523              		.loc 1 1664 30 view .LVU1525
 4524 00de 01FA08F1 		lsl	r1, r1, r8
1664:Drivers/STM32F4xx_HAL_Driver/Src/stm32f4xx_ll_usb.c **** 
 4525              		.loc 1 1664 23 view .LVU1526
ARM GAS  /tmp/ccDzXOxq.s 			page 133


 4526 00e2 3943     		orrs	r1, r1, r7
 4527 00e4 C0F81814 		str	r1, [r0, #1048]
1667:Drivers/STM32F4xx_HAL_Driver/Src/stm32f4xx_ll_usb.c **** 
 4528              		.loc 1 1667 3 is_stmt 1 view .LVU1527
1667:Drivers/STM32F4xx_HAL_Driver/Src/stm32f4xx_ll_usb.c **** 
 4529              		.loc 1 1667 17 is_stmt 0 view .LVU1528
 4530 00e8 8169     		ldr	r1, [r0, #24]
 4531 00ea 41F00071 		orr	r1, r1, #33554432
 4532 00ee 8161     		str	r1, [r0, #24]
1670:Drivers/STM32F4xx_HAL_Driver/Src/stm32f4xx_ll_usb.c ****   {
 4533              		.loc 1 1670 3 is_stmt 1 view .LVU1529
1667:Drivers/STM32F4xx_HAL_Driver/Src/stm32f4xx_ll_usb.c **** 
 4534              		.loc 1 1667 17 is_stmt 0 view .LVU1530
 4535 00f0 0026     		movs	r6, #0
1672:Drivers/STM32F4xx_HAL_Driver/Src/stm32f4xx_ll_usb.c ****   }
 4536              		.loc 1 1672 17 view .LVU1531
 4537 00f2 4FF40047 		mov	r7, #32768
 4538 00f6 B6E7     		b	.L364
 4539              	.LVL353:
 4540              	.L359:
1647:Drivers/STM32F4xx_HAL_Driver/Src/stm32f4xx_ll_usb.c ****                                             USB_OTG_HCINTMSK_ACKM   |
 4541              		.loc 1 1647 7 is_stmt 1 view .LVU1532
1647:Drivers/STM32F4xx_HAL_Driver/Src/stm32f4xx_ll_usb.c ****                                             USB_OTG_HCINTMSK_ACKM   |
 4542              		.loc 1 1647 43 is_stmt 0 view .LVU1533
 4543 00f8 40F22527 		movw	r7, #549
 4544 00fc F760     		str	r7, [r6, #12]
1652:Drivers/STM32F4xx_HAL_Driver/Src/stm32f4xx_ll_usb.c ****       {
 4545              		.loc 1 1652 7 is_stmt 1 view .LVU1534
1652:Drivers/STM32F4xx_HAL_Driver/Src/stm32f4xx_ll_usb.c ****       {
 4546              		.loc 1 1652 10 is_stmt 0 view .LVU1535
 4547 00fe 1706     		lsls	r7, r2, #24
 4548 0100 A0D5     		bpl	.L363
1654:Drivers/STM32F4xx_HAL_Driver/Src/stm32f4xx_ll_usb.c ****       }
 4549              		.loc 1 1654 9 is_stmt 1 view .LVU1536
1654:Drivers/STM32F4xx_HAL_Driver/Src/stm32f4xx_ll_usb.c ****       }
 4550              		.loc 1 1654 45 is_stmt 0 view .LVU1537
 4551 0102 F768     		ldr	r7, [r6, #12]
 4552 0104 47F4C077 		orr	r7, r7, #384
 4553 0108 F760     		str	r7, [r6, #12]
 4554              	.LVL354:
1654:Drivers/STM32F4xx_HAL_Driver/Src/stm32f4xx_ll_usb.c ****       }
 4555              		.loc 1 1654 45 view .LVU1538
 4556 010a E3E7     		b	.L361
 4557              	.LVL355:
 4558              	.L355:
1664:Drivers/STM32F4xx_HAL_Driver/Src/stm32f4xx_ll_usb.c **** 
 4559              		.loc 1 1664 3 is_stmt 1 view .LVU1539
1664:Drivers/STM32F4xx_HAL_Driver/Src/stm32f4xx_ll_usb.c **** 
 4560              		.loc 1 1664 23 is_stmt 0 view .LVU1540
 4561 010c D0F81884 		ldr	r8, [r0, #1048]
1664:Drivers/STM32F4xx_HAL_Driver/Src/stm32f4xx_ll_usb.c **** 
 4562              		.loc 1 1664 41 view .LVU1541
 4563 0110 01F00F01 		and	r1, r1, #15
 4564              	.LVL356:
1664:Drivers/STM32F4xx_HAL_Driver/Src/stm32f4xx_ll_usb.c **** 
 4565              		.loc 1 1664 30 view .LVU1542
 4566 0114 0126     		movs	r6, #1
ARM GAS  /tmp/ccDzXOxq.s 			page 134


 4567 0116 06FA01F1 		lsl	r1, r6, r1
1664:Drivers/STM32F4xx_HAL_Driver/Src/stm32f4xx_ll_usb.c **** 
 4568              		.loc 1 1664 23 view .LVU1543
 4569 011a 41EA0801 		orr	r1, r1, r8
 4570 011e C0F81814 		str	r1, [r0, #1048]
1667:Drivers/STM32F4xx_HAL_Driver/Src/stm32f4xx_ll_usb.c **** 
 4571              		.loc 1 1667 3 is_stmt 1 view .LVU1544
1667:Drivers/STM32F4xx_HAL_Driver/Src/stm32f4xx_ll_usb.c **** 
 4572              		.loc 1 1667 17 is_stmt 0 view .LVU1545
 4573 0122 8169     		ldr	r1, [r0, #24]
1659:Drivers/STM32F4xx_HAL_Driver/Src/stm32f4xx_ll_usb.c ****       break;
 4574              		.loc 1 1659 11 view .LVU1546
 4575 0124 12F0800F 		tst	r2, #128
1667:Drivers/STM32F4xx_HAL_Driver/Src/stm32f4xx_ll_usb.c **** 
 4576              		.loc 1 1667 17 view .LVU1547
 4577 0128 41F00071 		orr	r1, r1, #33554432
1664:Drivers/STM32F4xx_HAL_Driver/Src/stm32f4xx_ll_usb.c **** 
 4578              		.loc 1 1664 23 view .LVU1548
 4579 012c 00F58067 		add	r7, r0, #1024
1667:Drivers/STM32F4xx_HAL_Driver/Src/stm32f4xx_ll_usb.c **** 
 4580              		.loc 1 1667 17 view .LVU1549
 4581 0130 8161     		str	r1, [r0, #24]
1670:Drivers/STM32F4xx_HAL_Driver/Src/stm32f4xx_ll_usb.c ****   {
 4582              		.loc 1 1670 3 is_stmt 1 view .LVU1550
1659:Drivers/STM32F4xx_HAL_Driver/Src/stm32f4xx_ll_usb.c ****       break;
 4583              		.loc 1 1659 11 is_stmt 0 view .LVU1551
 4584 0132 14BF     		ite	ne
 4585 0134 4FF40047 		movne	r7, #32768
 4586 0138 0027     		moveq	r7, #0
 4587 013a 94E7     		b	.L364
 4588              		.cfi_endproc
 4589              	.LFE170:
 4591              		.section	.text.USB_HC_StartXfer,"ax",%progbits
 4592              		.align	1
 4593              		.p2align 2,,3
 4594              		.global	USB_HC_StartXfer
 4595              		.syntax unified
 4596              		.thumb
 4597              		.thumb_func
 4598              		.fpu fpv4-sp-d16
 4600              	USB_HC_StartXfer:
 4601              	.LVL357:
 4602              	.LFB171:
1703:Drivers/STM32F4xx_HAL_Driver/Src/stm32f4xx_ll_usb.c **** 
1704:Drivers/STM32F4xx_HAL_Driver/Src/stm32f4xx_ll_usb.c **** /**
1705:Drivers/STM32F4xx_HAL_Driver/Src/stm32f4xx_ll_usb.c ****   * @brief  Start a transfer over a host channel
1706:Drivers/STM32F4xx_HAL_Driver/Src/stm32f4xx_ll_usb.c ****   * @param  USBx  Selected device
1707:Drivers/STM32F4xx_HAL_Driver/Src/stm32f4xx_ll_usb.c ****   * @param  hc  pointer to host channel structure
1708:Drivers/STM32F4xx_HAL_Driver/Src/stm32f4xx_ll_usb.c ****   * @param  dma USB dma enabled or disabled
1709:Drivers/STM32F4xx_HAL_Driver/Src/stm32f4xx_ll_usb.c ****   *          This parameter can be one of these values:
1710:Drivers/STM32F4xx_HAL_Driver/Src/stm32f4xx_ll_usb.c ****   *           0 : DMA feature not used
1711:Drivers/STM32F4xx_HAL_Driver/Src/stm32f4xx_ll_usb.c ****   *           1 : DMA feature used
1712:Drivers/STM32F4xx_HAL_Driver/Src/stm32f4xx_ll_usb.c ****   * @retval HAL state
1713:Drivers/STM32F4xx_HAL_Driver/Src/stm32f4xx_ll_usb.c ****   */
1714:Drivers/STM32F4xx_HAL_Driver/Src/stm32f4xx_ll_usb.c **** HAL_StatusTypeDef USB_HC_StartXfer(USB_OTG_GlobalTypeDef *USBx, USB_OTG_HCTypeDef *hc, uint8_t dma)
1715:Drivers/STM32F4xx_HAL_Driver/Src/stm32f4xx_ll_usb.c **** {
 4603              		.loc 1 1715 1 is_stmt 1 view -0
ARM GAS  /tmp/ccDzXOxq.s 			page 135


 4604              		.cfi_startproc
 4605              		@ args = 0, pretend = 0, frame = 8
 4606              		@ frame_needed = 0, uses_anonymous_args = 0
1716:Drivers/STM32F4xx_HAL_Driver/Src/stm32f4xx_ll_usb.c ****   uint32_t USBx_BASE = (uint32_t)USBx;
 4607              		.loc 1 1716 3 view .LVU1553
1717:Drivers/STM32F4xx_HAL_Driver/Src/stm32f4xx_ll_usb.c ****   uint32_t ch_num = (uint32_t)hc->ch_num;
 4608              		.loc 1 1717 3 view .LVU1554
1715:Drivers/STM32F4xx_HAL_Driver/Src/stm32f4xx_ll_usb.c ****   uint32_t USBx_BASE = (uint32_t)USBx;
 4609              		.loc 1 1715 1 is_stmt 0 view .LVU1555
 4610 0000 F0B5     		push	{r4, r5, r6, r7, lr}
 4611              	.LCFI62:
 4612              		.cfi_def_cfa_offset 20
 4613              		.cfi_offset 4, -20
 4614              		.cfi_offset 5, -16
 4615              		.cfi_offset 6, -12
 4616              		.cfi_offset 7, -8
 4617              		.cfi_offset 14, -4
1718:Drivers/STM32F4xx_HAL_Driver/Src/stm32f4xx_ll_usb.c ****   __IO uint32_t tmpreg;
1719:Drivers/STM32F4xx_HAL_Driver/Src/stm32f4xx_ll_usb.c ****   uint8_t  is_oddframe;
1720:Drivers/STM32F4xx_HAL_Driver/Src/stm32f4xx_ll_usb.c ****   uint16_t len_words;
1721:Drivers/STM32F4xx_HAL_Driver/Src/stm32f4xx_ll_usb.c ****   uint16_t num_packets;
1722:Drivers/STM32F4xx_HAL_Driver/Src/stm32f4xx_ll_usb.c ****   uint16_t max_hc_pkt_count = 256U;
1723:Drivers/STM32F4xx_HAL_Driver/Src/stm32f4xx_ll_usb.c **** 
1724:Drivers/STM32F4xx_HAL_Driver/Src/stm32f4xx_ll_usb.c ****   if (((USBx->CID & (0x1U << 8)) != 0U) && (hc->speed == USBH_HS_SPEED))
 4618              		.loc 1 1724 13 view .LVU1556
 4619 0002 C36B     		ldr	r3, [r0, #60]
1717:Drivers/STM32F4xx_HAL_Driver/Src/stm32f4xx_ll_usb.c ****   __IO uint32_t tmpreg;
 4620              		.loc 1 1717 33 view .LVU1557
 4621 0004 4E78     		ldrb	r6, [r1, #1]	@ zero_extendqisi2
 4622              	.LVL358:
1718:Drivers/STM32F4xx_HAL_Driver/Src/stm32f4xx_ll_usb.c ****   __IO uint32_t tmpreg;
 4623              		.loc 1 1718 3 is_stmt 1 view .LVU1558
1719:Drivers/STM32F4xx_HAL_Driver/Src/stm32f4xx_ll_usb.c ****   uint16_t len_words;
 4624              		.loc 1 1719 3 view .LVU1559
1720:Drivers/STM32F4xx_HAL_Driver/Src/stm32f4xx_ll_usb.c ****   uint16_t num_packets;
 4625              		.loc 1 1720 3 view .LVU1560
1721:Drivers/STM32F4xx_HAL_Driver/Src/stm32f4xx_ll_usb.c ****   uint16_t max_hc_pkt_count = 256U;
 4626              		.loc 1 1721 3 view .LVU1561
1722:Drivers/STM32F4xx_HAL_Driver/Src/stm32f4xx_ll_usb.c **** 
 4627              		.loc 1 1722 3 view .LVU1562
 4628              		.loc 1 1724 3 view .LVU1563
 4629              		.loc 1 1724 6 is_stmt 0 view .LVU1564
 4630 0006 DB05     		lsls	r3, r3, #23
1715:Drivers/STM32F4xx_HAL_Driver/Src/stm32f4xx_ll_usb.c ****   uint32_t USBx_BASE = (uint32_t)USBx;
 4631              		.loc 1 1715 1 view .LVU1565
 4632 0008 83B0     		sub	sp, sp, #12
 4633              	.LCFI63:
 4634              		.cfi_def_cfa_offset 32
 4635              		.loc 1 1724 6 view .LVU1566
 4636 000a 02D5     		bpl	.L377
 4637              		.loc 1 1724 41 discriminator 1 view .LVU1567
 4638 000c 0B79     		ldrb	r3, [r1, #4]	@ zero_extendqisi2
 4639 000e 002B     		cmp	r3, #0
 4640 0010 5BD0     		beq	.L378
 4641              	.L377:
 4642 0012 00EB4614 		add	r4, r0, r6, lsl #5
 4643 0016 04F5A064 		add	r4, r4, #1280
ARM GAS  /tmp/ccDzXOxq.s 			page 136


 4644              	.L379:
1725:Drivers/STM32F4xx_HAL_Driver/Src/stm32f4xx_ll_usb.c ****   {
1726:Drivers/STM32F4xx_HAL_Driver/Src/stm32f4xx_ll_usb.c ****     /* in DMA mode host Core automatically issues ping  in case of NYET/NAK */
1727:Drivers/STM32F4xx_HAL_Driver/Src/stm32f4xx_ll_usb.c ****     if ((dma == 1U) && ((hc->ep_type == EP_TYPE_CTRL) || (hc->ep_type == EP_TYPE_BULK)))
1728:Drivers/STM32F4xx_HAL_Driver/Src/stm32f4xx_ll_usb.c ****     {
1729:Drivers/STM32F4xx_HAL_Driver/Src/stm32f4xx_ll_usb.c ****       USBx_HC((uint32_t)ch_num)->HCINTMSK &= ~(USB_OTG_HCINTMSK_NYET |
1730:Drivers/STM32F4xx_HAL_Driver/Src/stm32f4xx_ll_usb.c ****                                                USB_OTG_HCINTMSK_ACKM |
1731:Drivers/STM32F4xx_HAL_Driver/Src/stm32f4xx_ll_usb.c ****                                                USB_OTG_HCINTMSK_NAKM);
1732:Drivers/STM32F4xx_HAL_Driver/Src/stm32f4xx_ll_usb.c ****     }
1733:Drivers/STM32F4xx_HAL_Driver/Src/stm32f4xx_ll_usb.c **** 
1734:Drivers/STM32F4xx_HAL_Driver/Src/stm32f4xx_ll_usb.c ****     if ((dma == 0U) && (hc->do_ping == 1U))
1735:Drivers/STM32F4xx_HAL_Driver/Src/stm32f4xx_ll_usb.c ****     {
1736:Drivers/STM32F4xx_HAL_Driver/Src/stm32f4xx_ll_usb.c ****       (void)USB_DoPing(USBx, hc->ch_num);
1737:Drivers/STM32F4xx_HAL_Driver/Src/stm32f4xx_ll_usb.c ****       return HAL_OK;
1738:Drivers/STM32F4xx_HAL_Driver/Src/stm32f4xx_ll_usb.c ****     }
1739:Drivers/STM32F4xx_HAL_Driver/Src/stm32f4xx_ll_usb.c **** 
1740:Drivers/STM32F4xx_HAL_Driver/Src/stm32f4xx_ll_usb.c ****   }
1741:Drivers/STM32F4xx_HAL_Driver/Src/stm32f4xx_ll_usb.c **** 
1742:Drivers/STM32F4xx_HAL_Driver/Src/stm32f4xx_ll_usb.c ****   /* Compute the expected number of packets associated to the transfer */
1743:Drivers/STM32F4xx_HAL_Driver/Src/stm32f4xx_ll_usb.c ****   if (hc->xfer_len > 0U)
 4645              		.loc 1 1743 3 is_stmt 1 view .LVU1568
 4646              		.loc 1 1743 9 is_stmt 0 view .LVU1569
 4647 001a 4D69     		ldr	r5, [r1, #20]
 4648              		.loc 1 1743 6 view .LVU1570
 4649 001c 002D     		cmp	r5, #0
 4650 001e 42D1     		bne	.L409
1744:Drivers/STM32F4xx_HAL_Driver/Src/stm32f4xx_ll_usb.c ****   {
1745:Drivers/STM32F4xx_HAL_Driver/Src/stm32f4xx_ll_usb.c ****     num_packets = (uint16_t)((hc->xfer_len + hc->max_packet - 1U) / hc->max_packet);
1746:Drivers/STM32F4xx_HAL_Driver/Src/stm32f4xx_ll_usb.c **** 
1747:Drivers/STM32F4xx_HAL_Driver/Src/stm32f4xx_ll_usb.c ****     if (num_packets > max_hc_pkt_count)
1748:Drivers/STM32F4xx_HAL_Driver/Src/stm32f4xx_ll_usb.c ****     {
1749:Drivers/STM32F4xx_HAL_Driver/Src/stm32f4xx_ll_usb.c ****       num_packets = max_hc_pkt_count;
1750:Drivers/STM32F4xx_HAL_Driver/Src/stm32f4xx_ll_usb.c ****       hc->XferSize = (uint32_t)num_packets * hc->max_packet;
1751:Drivers/STM32F4xx_HAL_Driver/Src/stm32f4xx_ll_usb.c ****     }
1752:Drivers/STM32F4xx_HAL_Driver/Src/stm32f4xx_ll_usb.c ****   }
1753:Drivers/STM32F4xx_HAL_Driver/Src/stm32f4xx_ll_usb.c ****   else
1754:Drivers/STM32F4xx_HAL_Driver/Src/stm32f4xx_ll_usb.c ****   {
1755:Drivers/STM32F4xx_HAL_Driver/Src/stm32f4xx_ll_usb.c ****     num_packets = 1U;
1756:Drivers/STM32F4xx_HAL_Driver/Src/stm32f4xx_ll_usb.c ****   }
1757:Drivers/STM32F4xx_HAL_Driver/Src/stm32f4xx_ll_usb.c **** 
1758:Drivers/STM32F4xx_HAL_Driver/Src/stm32f4xx_ll_usb.c ****   /*
1759:Drivers/STM32F4xx_HAL_Driver/Src/stm32f4xx_ll_usb.c ****    * For IN channel HCTSIZ.XferSize is expected to be an integer multiple of
1760:Drivers/STM32F4xx_HAL_Driver/Src/stm32f4xx_ll_usb.c ****    * max_packet size.
1761:Drivers/STM32F4xx_HAL_Driver/Src/stm32f4xx_ll_usb.c ****    */
1762:Drivers/STM32F4xx_HAL_Driver/Src/stm32f4xx_ll_usb.c ****   if (hc->ep_is_in != 0U)
 4651              		.loc 1 1762 3 is_stmt 1 view .LVU1571
 4652              		.loc 1 1762 9 is_stmt 0 view .LVU1572
 4653 0020 CF78     		ldrb	r7, [r1, #3]	@ zero_extendqisi2
 4654 0022 4FF4002E 		mov	lr, #524288
 4655 0026 0123     		movs	r3, #1
 4656              		.loc 1 1762 6 view .LVU1573
 4657 0028 002F     		cmp	r7, #0
 4658 002a 4CD0     		beq	.L397
 4659              	.L410:
1763:Drivers/STM32F4xx_HAL_Driver/Src/stm32f4xx_ll_usb.c ****   {
1764:Drivers/STM32F4xx_HAL_Driver/Src/stm32f4xx_ll_usb.c ****     hc->XferSize = (uint32_t)num_packets * hc->max_packet;
 4660              		.loc 1 1764 5 is_stmt 1 view .LVU1574
ARM GAS  /tmp/ccDzXOxq.s 			page 137


 4661              		.loc 1 1764 46 is_stmt 0 view .LVU1575
 4662 002c B1F808C0 		ldrh	ip, [r1, #8]
 4663              		.loc 1 1764 42 view .LVU1576
 4664 0030 03FB0CF3 		mul	r3, r3, ip
 4665              	.L386:
1765:Drivers/STM32F4xx_HAL_Driver/Src/stm32f4xx_ll_usb.c ****   }
1766:Drivers/STM32F4xx_HAL_Driver/Src/stm32f4xx_ll_usb.c ****   else
1767:Drivers/STM32F4xx_HAL_Driver/Src/stm32f4xx_ll_usb.c ****   {
1768:Drivers/STM32F4xx_HAL_Driver/Src/stm32f4xx_ll_usb.c ****     hc->XferSize = hc->xfer_len;
1769:Drivers/STM32F4xx_HAL_Driver/Src/stm32f4xx_ll_usb.c ****   }
1770:Drivers/STM32F4xx_HAL_Driver/Src/stm32f4xx_ll_usb.c **** 
1771:Drivers/STM32F4xx_HAL_Driver/Src/stm32f4xx_ll_usb.c ****   /* Initialize the HCTSIZn register */
1772:Drivers/STM32F4xx_HAL_Driver/Src/stm32f4xx_ll_usb.c ****   USBx_HC(ch_num)->HCTSIZ = (hc->XferSize & USB_OTG_HCTSIZ_XFRSIZ) |
1773:Drivers/STM32F4xx_HAL_Driver/Src/stm32f4xx_ll_usb.c ****                             (((uint32_t)num_packets << 19) & USB_OTG_HCTSIZ_PKTCNT) |
1774:Drivers/STM32F4xx_HAL_Driver/Src/stm32f4xx_ll_usb.c ****                             (((uint32_t)hc->data_pid << 29) & USB_OTG_HCTSIZ_DPID);
 4666              		.loc 1 1774 31 view .LVU1577
 4667 0034 91F80AC0 		ldrb	ip, [r1, #10]	@ zero_extendqisi2
 4668 0038 0B61     		str	r3, [r1, #16]
1772:Drivers/STM32F4xx_HAL_Driver/Src/stm32f4xx_ll_usb.c ****                             (((uint32_t)num_packets << 19) & USB_OTG_HCTSIZ_PKTCNT) |
 4669              		.loc 1 1772 3 is_stmt 1 view .LVU1578
 4670              		.loc 1 1774 54 is_stmt 0 view .LVU1579
 4671 003a 4FEA4C7C 		lsl	ip, ip, #29
 4672              		.loc 1 1774 61 view .LVU1580
 4673 003e 0CF0C04C 		and	ip, ip, #1610612736
1772:Drivers/STM32F4xx_HAL_Driver/Src/stm32f4xx_ll_usb.c ****                             (((uint32_t)num_packets << 19) & USB_OTG_HCTSIZ_PKTCNT) |
 4674              		.loc 1 1772 43 view .LVU1581
 4675 0042 C3F31203 		ubfx	r3, r3, #0, #19
1773:Drivers/STM32F4xx_HAL_Driver/Src/stm32f4xx_ll_usb.c ****                             (((uint32_t)hc->data_pid << 29) & USB_OTG_HCTSIZ_DPID);
 4676              		.loc 1 1773 85 view .LVU1582
 4677 0046 4CEA0E0C 		orr	ip, ip, lr
 4678 004a 4CEA0303 		orr	r3, ip, r3
1772:Drivers/STM32F4xx_HAL_Driver/Src/stm32f4xx_ll_usb.c ****                             (((uint32_t)num_packets << 19) & USB_OTG_HCTSIZ_PKTCNT) |
 4679              		.loc 1 1772 27 view .LVU1583
 4680 004e 2361     		str	r3, [r4, #16]
1775:Drivers/STM32F4xx_HAL_Driver/Src/stm32f4xx_ll_usb.c **** 
1776:Drivers/STM32F4xx_HAL_Driver/Src/stm32f4xx_ll_usb.c ****   if (dma != 0U)
 4681              		.loc 1 1776 3 is_stmt 1 view .LVU1584
 4682              		.loc 1 1776 6 is_stmt 0 view .LVU1585
 4683 0050 0AB1     		cbz	r2, .L387
1777:Drivers/STM32F4xx_HAL_Driver/Src/stm32f4xx_ll_usb.c ****   {
1778:Drivers/STM32F4xx_HAL_Driver/Src/stm32f4xx_ll_usb.c ****     /* xfer_buff MUST be 32-bits aligned */
1779:Drivers/STM32F4xx_HAL_Driver/Src/stm32f4xx_ll_usb.c ****     USBx_HC(ch_num)->HCDMA = (uint32_t)hc->xfer_buff;
 4684              		.loc 1 1779 5 is_stmt 1 view .LVU1586
 4685              		.loc 1 1779 30 is_stmt 0 view .LVU1587
 4686 0052 CB68     		ldr	r3, [r1, #12]
 4687              		.loc 1 1779 28 view .LVU1588
 4688 0054 6361     		str	r3, [r4, #20]
 4689              	.L387:
1780:Drivers/STM32F4xx_HAL_Driver/Src/stm32f4xx_ll_usb.c ****   }
1781:Drivers/STM32F4xx_HAL_Driver/Src/stm32f4xx_ll_usb.c **** 
1782:Drivers/STM32F4xx_HAL_Driver/Src/stm32f4xx_ll_usb.c ****   is_oddframe = (((uint32_t)USBx_HOST->HFNUM & 0x01U) != 0U) ? 0U : 1U;
 4690              		.loc 1 1782 3 is_stmt 1 view .LVU1589
 4691              		.loc 1 1782 38 is_stmt 0 view .LVU1590
 4692 0056 D0F80834 		ldr	r3, [r0, #1032]
 4693              	.LVL359:
1783:Drivers/STM32F4xx_HAL_Driver/Src/stm32f4xx_ll_usb.c ****   USBx_HC(ch_num)->HCCHAR &= ~USB_OTG_HCCHAR_ODDFRM;
 4694              		.loc 1 1783 3 is_stmt 1 view .LVU1591
ARM GAS  /tmp/ccDzXOxq.s 			page 138


 4695              		.loc 1 1783 27 is_stmt 0 view .LVU1592
 4696 005a D4F800E0 		ldr	lr, [r4]
 4697 005e 2EF0005E 		bic	lr, lr, #536870912
 4698 0062 C4F800E0 		str	lr, [r4]
1784:Drivers/STM32F4xx_HAL_Driver/Src/stm32f4xx_ll_usb.c ****   USBx_HC(ch_num)->HCCHAR |= (uint32_t)is_oddframe << 29;
 4699              		.loc 1 1784 3 is_stmt 1 view .LVU1593
 4700              		.loc 1 1784 52 is_stmt 0 view .LVU1594
 4701 0066 DB43     		mvns	r3, r3
 4702              	.LVL360:
 4703              		.loc 1 1784 27 view .LVU1595
 4704 0068 D4F800E0 		ldr	lr, [r4]
 4705              		.loc 1 1784 52 view .LVU1596
 4706 006c 5B07     		lsls	r3, r3, #29
 4707              	.LVL361:
 4708              		.loc 1 1784 52 view .LVU1597
 4709 006e 03F00053 		and	r3, r3, #536870912
 4710              		.loc 1 1784 27 view .LVU1598
 4711 0072 43EA0E03 		orr	r3, r3, lr
 4712 0076 2360     		str	r3, [r4]
1785:Drivers/STM32F4xx_HAL_Driver/Src/stm32f4xx_ll_usb.c **** 
1786:Drivers/STM32F4xx_HAL_Driver/Src/stm32f4xx_ll_usb.c ****   /* Set host channel enable */
1787:Drivers/STM32F4xx_HAL_Driver/Src/stm32f4xx_ll_usb.c ****   tmpreg = USBx_HC(ch_num)->HCCHAR;
 4713              		.loc 1 1787 3 is_stmt 1 view .LVU1599
 4714              		.loc 1 1787 27 is_stmt 0 view .LVU1600
 4715 0078 2368     		ldr	r3, [r4]
 4716              		.loc 1 1787 10 view .LVU1601
 4717 007a 0193     		str	r3, [sp, #4]
1788:Drivers/STM32F4xx_HAL_Driver/Src/stm32f4xx_ll_usb.c ****   tmpreg &= ~USB_OTG_HCCHAR_CHDIS;
 4718              		.loc 1 1788 3 is_stmt 1 view .LVU1602
 4719              		.loc 1 1788 10 is_stmt 0 view .LVU1603
 4720 007c 019B     		ldr	r3, [sp, #4]
 4721 007e 23F08043 		bic	r3, r3, #1073741824
 4722 0082 0193     		str	r3, [sp, #4]
1789:Drivers/STM32F4xx_HAL_Driver/Src/stm32f4xx_ll_usb.c **** 
1790:Drivers/STM32F4xx_HAL_Driver/Src/stm32f4xx_ll_usb.c ****   /* make sure to set the correct ep direction */
1791:Drivers/STM32F4xx_HAL_Driver/Src/stm32f4xx_ll_usb.c ****   if (hc->ep_is_in != 0U)
 4723              		.loc 1 1791 3 is_stmt 1 view .LVU1604
1782:Drivers/STM32F4xx_HAL_Driver/Src/stm32f4xx_ll_usb.c ****   USBx_HC(ch_num)->HCCHAR &= ~USB_OTG_HCCHAR_ODDFRM;
 4724              		.loc 1 1782 29 is_stmt 0 view .LVU1605
 4725 0084 00F5806C 		add	ip, r0, #1024
1792:Drivers/STM32F4xx_HAL_Driver/Src/stm32f4xx_ll_usb.c ****   {
1793:Drivers/STM32F4xx_HAL_Driver/Src/stm32f4xx_ll_usb.c ****     tmpreg |= USB_OTG_HCCHAR_EPDIR;
 4726              		.loc 1 1793 12 view .LVU1606
 4727 0088 019B     		ldr	r3, [sp, #4]
1791:Drivers/STM32F4xx_HAL_Driver/Src/stm32f4xx_ll_usb.c ****   {
 4728              		.loc 1 1791 6 view .LVU1607
 4729 008a 002F     		cmp	r7, #0
 4730 008c 32D0     		beq	.L388
 4731              		.loc 1 1793 5 is_stmt 1 view .LVU1608
 4732              		.loc 1 1793 12 is_stmt 0 view .LVU1609
 4733 008e 43F40043 		orr	r3, r3, #32768
 4734 0092 0193     		str	r3, [sp, #4]
1794:Drivers/STM32F4xx_HAL_Driver/Src/stm32f4xx_ll_usb.c ****   }
1795:Drivers/STM32F4xx_HAL_Driver/Src/stm32f4xx_ll_usb.c ****   else
1796:Drivers/STM32F4xx_HAL_Driver/Src/stm32f4xx_ll_usb.c ****   {
1797:Drivers/STM32F4xx_HAL_Driver/Src/stm32f4xx_ll_usb.c ****     tmpreg &= ~USB_OTG_HCCHAR_EPDIR;
1798:Drivers/STM32F4xx_HAL_Driver/Src/stm32f4xx_ll_usb.c ****   }
ARM GAS  /tmp/ccDzXOxq.s 			page 139


1799:Drivers/STM32F4xx_HAL_Driver/Src/stm32f4xx_ll_usb.c ****   tmpreg |= USB_OTG_HCCHAR_CHENA;
 4735              		.loc 1 1799 3 is_stmt 1 view .LVU1610
 4736              		.loc 1 1799 10 is_stmt 0 view .LVU1611
 4737 0094 019B     		ldr	r3, [sp, #4]
 4738 0096 43F00043 		orr	r3, r3, #-2147483648
 4739 009a 0193     		str	r3, [sp, #4]
1800:Drivers/STM32F4xx_HAL_Driver/Src/stm32f4xx_ll_usb.c ****   USBx_HC(ch_num)->HCCHAR = tmpreg;
 4740              		.loc 1 1800 3 is_stmt 1 view .LVU1612
 4741              		.loc 1 1800 27 is_stmt 0 view .LVU1613
 4742 009c 019B     		ldr	r3, [sp, #4]
 4743 009e 2360     		str	r3, [r4]
1801:Drivers/STM32F4xx_HAL_Driver/Src/stm32f4xx_ll_usb.c **** 
1802:Drivers/STM32F4xx_HAL_Driver/Src/stm32f4xx_ll_usb.c ****   if (dma != 0U) /* dma mode */
 4744              		.loc 1 1802 3 is_stmt 1 view .LVU1614
 4745              	.LVL362:
 4746              	.L384:
1803:Drivers/STM32F4xx_HAL_Driver/Src/stm32f4xx_ll_usb.c ****   {
1804:Drivers/STM32F4xx_HAL_Driver/Src/stm32f4xx_ll_usb.c ****     return HAL_OK;
1805:Drivers/STM32F4xx_HAL_Driver/Src/stm32f4xx_ll_usb.c ****   }
1806:Drivers/STM32F4xx_HAL_Driver/Src/stm32f4xx_ll_usb.c **** 
1807:Drivers/STM32F4xx_HAL_Driver/Src/stm32f4xx_ll_usb.c ****   if ((hc->ep_is_in == 0U) && (hc->xfer_len > 0U))
1808:Drivers/STM32F4xx_HAL_Driver/Src/stm32f4xx_ll_usb.c ****   {
1809:Drivers/STM32F4xx_HAL_Driver/Src/stm32f4xx_ll_usb.c ****     switch (hc->ep_type)
1810:Drivers/STM32F4xx_HAL_Driver/Src/stm32f4xx_ll_usb.c ****     {
1811:Drivers/STM32F4xx_HAL_Driver/Src/stm32f4xx_ll_usb.c ****       /* Non periodic transfer */
1812:Drivers/STM32F4xx_HAL_Driver/Src/stm32f4xx_ll_usb.c ****       case EP_TYPE_CTRL:
1813:Drivers/STM32F4xx_HAL_Driver/Src/stm32f4xx_ll_usb.c ****       case EP_TYPE_BULK:
1814:Drivers/STM32F4xx_HAL_Driver/Src/stm32f4xx_ll_usb.c **** 
1815:Drivers/STM32F4xx_HAL_Driver/Src/stm32f4xx_ll_usb.c ****         len_words = (uint16_t)((hc->xfer_len + 3U) / 4U);
1816:Drivers/STM32F4xx_HAL_Driver/Src/stm32f4xx_ll_usb.c **** 
1817:Drivers/STM32F4xx_HAL_Driver/Src/stm32f4xx_ll_usb.c ****         /* check if there is enough space in FIFO space */
1818:Drivers/STM32F4xx_HAL_Driver/Src/stm32f4xx_ll_usb.c ****         if (len_words > (USBx->HNPTXSTS & 0xFFFFU))
1819:Drivers/STM32F4xx_HAL_Driver/Src/stm32f4xx_ll_usb.c ****         {
1820:Drivers/STM32F4xx_HAL_Driver/Src/stm32f4xx_ll_usb.c ****           /* need to process data in nptxfempty interrupt */
1821:Drivers/STM32F4xx_HAL_Driver/Src/stm32f4xx_ll_usb.c ****           USBx->GINTMSK |= USB_OTG_GINTMSK_NPTXFEM;
1822:Drivers/STM32F4xx_HAL_Driver/Src/stm32f4xx_ll_usb.c ****         }
1823:Drivers/STM32F4xx_HAL_Driver/Src/stm32f4xx_ll_usb.c ****         break;
1824:Drivers/STM32F4xx_HAL_Driver/Src/stm32f4xx_ll_usb.c **** 
1825:Drivers/STM32F4xx_HAL_Driver/Src/stm32f4xx_ll_usb.c ****       /* Periodic transfer */
1826:Drivers/STM32F4xx_HAL_Driver/Src/stm32f4xx_ll_usb.c ****       case EP_TYPE_INTR:
1827:Drivers/STM32F4xx_HAL_Driver/Src/stm32f4xx_ll_usb.c ****       case EP_TYPE_ISOC:
1828:Drivers/STM32F4xx_HAL_Driver/Src/stm32f4xx_ll_usb.c ****         len_words = (uint16_t)((hc->xfer_len + 3U) / 4U);
1829:Drivers/STM32F4xx_HAL_Driver/Src/stm32f4xx_ll_usb.c ****         /* check if there is enough space in FIFO space */
1830:Drivers/STM32F4xx_HAL_Driver/Src/stm32f4xx_ll_usb.c ****         if (len_words > (USBx_HOST->HPTXSTS & 0xFFFFU)) /* split the transfer */
1831:Drivers/STM32F4xx_HAL_Driver/Src/stm32f4xx_ll_usb.c ****         {
1832:Drivers/STM32F4xx_HAL_Driver/Src/stm32f4xx_ll_usb.c ****           /* need to process data in ptxfempty interrupt */
1833:Drivers/STM32F4xx_HAL_Driver/Src/stm32f4xx_ll_usb.c ****           USBx->GINTMSK |= USB_OTG_GINTMSK_PTXFEM;
1834:Drivers/STM32F4xx_HAL_Driver/Src/stm32f4xx_ll_usb.c ****         }
1835:Drivers/STM32F4xx_HAL_Driver/Src/stm32f4xx_ll_usb.c ****         break;
1836:Drivers/STM32F4xx_HAL_Driver/Src/stm32f4xx_ll_usb.c **** 
1837:Drivers/STM32F4xx_HAL_Driver/Src/stm32f4xx_ll_usb.c ****       default:
1838:Drivers/STM32F4xx_HAL_Driver/Src/stm32f4xx_ll_usb.c ****         break;
1839:Drivers/STM32F4xx_HAL_Driver/Src/stm32f4xx_ll_usb.c ****     }
1840:Drivers/STM32F4xx_HAL_Driver/Src/stm32f4xx_ll_usb.c **** 
1841:Drivers/STM32F4xx_HAL_Driver/Src/stm32f4xx_ll_usb.c ****     /* Write packet into the Tx FIFO. */
1842:Drivers/STM32F4xx_HAL_Driver/Src/stm32f4xx_ll_usb.c ****     (void)USB_WritePacket(USBx, hc->xfer_buff, hc->ch_num, (uint16_t)hc->xfer_len, 0);
1843:Drivers/STM32F4xx_HAL_Driver/Src/stm32f4xx_ll_usb.c ****   }
ARM GAS  /tmp/ccDzXOxq.s 			page 140


1844:Drivers/STM32F4xx_HAL_Driver/Src/stm32f4xx_ll_usb.c **** 
1845:Drivers/STM32F4xx_HAL_Driver/Src/stm32f4xx_ll_usb.c ****   return HAL_OK;
1846:Drivers/STM32F4xx_HAL_Driver/Src/stm32f4xx_ll_usb.c **** }
 4747              		.loc 1 1846 1 is_stmt 0 view .LVU1615
 4748 00a0 0020     		movs	r0, #0
 4749 00a2 03B0     		add	sp, sp, #12
 4750              	.LCFI64:
 4751              		.cfi_remember_state
 4752              		.cfi_def_cfa_offset 20
 4753              		@ sp needed
 4754 00a4 F0BD     		pop	{r4, r5, r6, r7, pc}
 4755              	.LVL363:
 4756              	.L409:
 4757              	.LCFI65:
 4758              		.cfi_restore_state
1745:Drivers/STM32F4xx_HAL_Driver/Src/stm32f4xx_ll_usb.c **** 
 4759              		.loc 1 1745 5 is_stmt 1 view .LVU1616
1745:Drivers/STM32F4xx_HAL_Driver/Src/stm32f4xx_ll_usb.c **** 
 4760              		.loc 1 1745 48 is_stmt 0 view .LVU1617
 4761 00a6 0F89     		ldrh	r7, [r1, #8]
 4762              	.LVL364:
1747:Drivers/STM32F4xx_HAL_Driver/Src/stm32f4xx_ll_usb.c ****     {
 4763              		.loc 1 1747 5 is_stmt 1 view .LVU1618
1745:Drivers/STM32F4xx_HAL_Driver/Src/stm32f4xx_ll_usb.c **** 
 4764              		.loc 1 1745 61 is_stmt 0 view .LVU1619
 4765 00a8 6B1E     		subs	r3, r5, #1
 4766 00aa 3B44     		add	r3, r3, r7
1745:Drivers/STM32F4xx_HAL_Driver/Src/stm32f4xx_ll_usb.c **** 
 4767              		.loc 1 1745 67 view .LVU1620
 4768 00ac B3FBF7F3 		udiv	r3, r3, r7
 4769 00b0 9BB2     		uxth	r3, r3
 4770 00b2 B3F5807F 		cmp	r3, #256
1762:Drivers/STM32F4xx_HAL_Driver/Src/stm32f4xx_ll_usb.c ****   {
 4771              		.loc 1 1762 9 view .LVU1621
 4772 00b6 CF78     		ldrb	r7, [r1, #3]	@ zero_extendqisi2
 4773              	.LVL365:
1762:Drivers/STM32F4xx_HAL_Driver/Src/stm32f4xx_ll_usb.c ****   {
 4774              		.loc 1 1762 9 view .LVU1622
 4775 00b8 28BF     		it	cs
 4776 00ba 4FF48073 		movcs	r3, #256
 4777 00be 4FEAC34E 		lsl	lr, r3, #19
 4778              	.LVL366:
1762:Drivers/STM32F4xx_HAL_Driver/Src/stm32f4xx_ll_usb.c ****   {
 4779              		.loc 1 1762 3 is_stmt 1 view .LVU1623
1762:Drivers/STM32F4xx_HAL_Driver/Src/stm32f4xx_ll_usb.c ****   {
 4780              		.loc 1 1762 6 is_stmt 0 view .LVU1624
 4781 00c2 002F     		cmp	r7, #0
 4782 00c4 B2D1     		bne	.L410
 4783              	.L397:
1743:Drivers/STM32F4xx_HAL_Driver/Src/stm32f4xx_ll_usb.c ****   {
 4784              		.loc 1 1743 9 view .LVU1625
 4785 00c6 2B46     		mov	r3, r5
 4786 00c8 B4E7     		b	.L386
 4787              	.L378:
1727:Drivers/STM32F4xx_HAL_Driver/Src/stm32f4xx_ll_usb.c ****     {
 4788              		.loc 1 1727 5 is_stmt 1 view .LVU1626
1727:Drivers/STM32F4xx_HAL_Driver/Src/stm32f4xx_ll_usb.c ****     {
ARM GAS  /tmp/ccDzXOxq.s 			page 141


 4789              		.loc 1 1727 8 is_stmt 0 view .LVU1627
 4790 00ca 012A     		cmp	r2, #1
 4791 00cc 26D0     		beq	.L411
1734:Drivers/STM32F4xx_HAL_Driver/Src/stm32f4xx_ll_usb.c ****     {
 4792              		.loc 1 1734 5 is_stmt 1 view .LVU1628
1734:Drivers/STM32F4xx_HAL_Driver/Src/stm32f4xx_ll_usb.c ****     {
 4793              		.loc 1 1734 8 is_stmt 0 view .LVU1629
 4794 00ce 002A     		cmp	r2, #0
 4795 00d0 9FD1     		bne	.L377
1734:Drivers/STM32F4xx_HAL_Driver/Src/stm32f4xx_ll_usb.c ****     {
 4796              		.loc 1 1734 21 discriminator 1 view .LVU1630
 4797 00d2 4B79     		ldrb	r3, [r1, #5]	@ zero_extendqisi2
 4798 00d4 012B     		cmp	r3, #1
 4799 00d6 9CD1     		bne	.L377
1736:Drivers/STM32F4xx_HAL_Driver/Src/stm32f4xx_ll_usb.c ****       return HAL_OK;
 4800              		.loc 1 1736 7 is_stmt 1 view .LVU1631
 4801              	.LVL367:
 4802              	.LBB76:
 4803              	.LBI76:
1847:Drivers/STM32F4xx_HAL_Driver/Src/stm32f4xx_ll_usb.c **** 
1848:Drivers/STM32F4xx_HAL_Driver/Src/stm32f4xx_ll_usb.c **** /**
1849:Drivers/STM32F4xx_HAL_Driver/Src/stm32f4xx_ll_usb.c ****   * @brief Read all host channel interrupts status
1850:Drivers/STM32F4xx_HAL_Driver/Src/stm32f4xx_ll_usb.c ****   * @param  USBx  Selected device
1851:Drivers/STM32F4xx_HAL_Driver/Src/stm32f4xx_ll_usb.c ****   * @retval HAL state
1852:Drivers/STM32F4xx_HAL_Driver/Src/stm32f4xx_ll_usb.c ****   */
1853:Drivers/STM32F4xx_HAL_Driver/Src/stm32f4xx_ll_usb.c **** uint32_t USB_HC_ReadInterrupt(USB_OTG_GlobalTypeDef *USBx)
1854:Drivers/STM32F4xx_HAL_Driver/Src/stm32f4xx_ll_usb.c **** {
1855:Drivers/STM32F4xx_HAL_Driver/Src/stm32f4xx_ll_usb.c ****   uint32_t USBx_BASE = (uint32_t)USBx;
1856:Drivers/STM32F4xx_HAL_Driver/Src/stm32f4xx_ll_usb.c **** 
1857:Drivers/STM32F4xx_HAL_Driver/Src/stm32f4xx_ll_usb.c ****   return ((USBx_HOST->HAINT) & 0xFFFFU);
1858:Drivers/STM32F4xx_HAL_Driver/Src/stm32f4xx_ll_usb.c **** }
1859:Drivers/STM32F4xx_HAL_Driver/Src/stm32f4xx_ll_usb.c **** 
1860:Drivers/STM32F4xx_HAL_Driver/Src/stm32f4xx_ll_usb.c **** /**
1861:Drivers/STM32F4xx_HAL_Driver/Src/stm32f4xx_ll_usb.c ****   * @brief  Halt a host channel
1862:Drivers/STM32F4xx_HAL_Driver/Src/stm32f4xx_ll_usb.c ****   * @param  USBx  Selected device
1863:Drivers/STM32F4xx_HAL_Driver/Src/stm32f4xx_ll_usb.c ****   * @param  hc_num  Host Channel number
1864:Drivers/STM32F4xx_HAL_Driver/Src/stm32f4xx_ll_usb.c ****   *         This parameter can be a value from 1 to 15
1865:Drivers/STM32F4xx_HAL_Driver/Src/stm32f4xx_ll_usb.c ****   * @retval HAL state
1866:Drivers/STM32F4xx_HAL_Driver/Src/stm32f4xx_ll_usb.c ****   */
1867:Drivers/STM32F4xx_HAL_Driver/Src/stm32f4xx_ll_usb.c **** HAL_StatusTypeDef USB_HC_Halt(USB_OTG_GlobalTypeDef *USBx, uint8_t hc_num)
1868:Drivers/STM32F4xx_HAL_Driver/Src/stm32f4xx_ll_usb.c **** {
1869:Drivers/STM32F4xx_HAL_Driver/Src/stm32f4xx_ll_usb.c ****   uint32_t USBx_BASE = (uint32_t)USBx;
1870:Drivers/STM32F4xx_HAL_Driver/Src/stm32f4xx_ll_usb.c ****   uint32_t hcnum = (uint32_t)hc_num;
1871:Drivers/STM32F4xx_HAL_Driver/Src/stm32f4xx_ll_usb.c ****   uint32_t count = 0U;
1872:Drivers/STM32F4xx_HAL_Driver/Src/stm32f4xx_ll_usb.c ****   uint32_t HcEpType = (USBx_HC(hcnum)->HCCHAR & USB_OTG_HCCHAR_EPTYP) >> 18;
1873:Drivers/STM32F4xx_HAL_Driver/Src/stm32f4xx_ll_usb.c ****   uint32_t ChannelEna = (USBx_HC(hcnum)->HCCHAR & USB_OTG_HCCHAR_CHENA) >> 31;
1874:Drivers/STM32F4xx_HAL_Driver/Src/stm32f4xx_ll_usb.c **** 
1875:Drivers/STM32F4xx_HAL_Driver/Src/stm32f4xx_ll_usb.c ****   if (((USBx->GAHBCFG & USB_OTG_GAHBCFG_DMAEN) == USB_OTG_GAHBCFG_DMAEN) &&
1876:Drivers/STM32F4xx_HAL_Driver/Src/stm32f4xx_ll_usb.c ****       (ChannelEna == 0U))
1877:Drivers/STM32F4xx_HAL_Driver/Src/stm32f4xx_ll_usb.c ****   {
1878:Drivers/STM32F4xx_HAL_Driver/Src/stm32f4xx_ll_usb.c ****     return HAL_OK;
1879:Drivers/STM32F4xx_HAL_Driver/Src/stm32f4xx_ll_usb.c ****   }
1880:Drivers/STM32F4xx_HAL_Driver/Src/stm32f4xx_ll_usb.c **** 
1881:Drivers/STM32F4xx_HAL_Driver/Src/stm32f4xx_ll_usb.c ****   /* Check for space in the request queue to issue the halt. */
1882:Drivers/STM32F4xx_HAL_Driver/Src/stm32f4xx_ll_usb.c ****   if ((HcEpType == HCCHAR_CTRL) || (HcEpType == HCCHAR_BULK))
1883:Drivers/STM32F4xx_HAL_Driver/Src/stm32f4xx_ll_usb.c ****   {
1884:Drivers/STM32F4xx_HAL_Driver/Src/stm32f4xx_ll_usb.c ****     USBx_HC(hcnum)->HCCHAR |= USB_OTG_HCCHAR_CHDIS;
ARM GAS  /tmp/ccDzXOxq.s 			page 142


1885:Drivers/STM32F4xx_HAL_Driver/Src/stm32f4xx_ll_usb.c **** 
1886:Drivers/STM32F4xx_HAL_Driver/Src/stm32f4xx_ll_usb.c ****     if ((USBx->GAHBCFG & USB_OTG_GAHBCFG_DMAEN) == 0U)
1887:Drivers/STM32F4xx_HAL_Driver/Src/stm32f4xx_ll_usb.c ****     {
1888:Drivers/STM32F4xx_HAL_Driver/Src/stm32f4xx_ll_usb.c ****       if ((USBx->HNPTXSTS & (0xFFU << 16)) == 0U)
1889:Drivers/STM32F4xx_HAL_Driver/Src/stm32f4xx_ll_usb.c ****       {
1890:Drivers/STM32F4xx_HAL_Driver/Src/stm32f4xx_ll_usb.c ****         USBx_HC(hcnum)->HCCHAR &= ~USB_OTG_HCCHAR_CHENA;
1891:Drivers/STM32F4xx_HAL_Driver/Src/stm32f4xx_ll_usb.c ****         USBx_HC(hcnum)->HCCHAR |= USB_OTG_HCCHAR_CHENA;
1892:Drivers/STM32F4xx_HAL_Driver/Src/stm32f4xx_ll_usb.c ****         USBx_HC(hcnum)->HCCHAR &= ~USB_OTG_HCCHAR_EPDIR;
1893:Drivers/STM32F4xx_HAL_Driver/Src/stm32f4xx_ll_usb.c ****         do
1894:Drivers/STM32F4xx_HAL_Driver/Src/stm32f4xx_ll_usb.c ****         {
1895:Drivers/STM32F4xx_HAL_Driver/Src/stm32f4xx_ll_usb.c ****           if (++count > 1000U)
1896:Drivers/STM32F4xx_HAL_Driver/Src/stm32f4xx_ll_usb.c ****           {
1897:Drivers/STM32F4xx_HAL_Driver/Src/stm32f4xx_ll_usb.c ****             break;
1898:Drivers/STM32F4xx_HAL_Driver/Src/stm32f4xx_ll_usb.c ****           }
1899:Drivers/STM32F4xx_HAL_Driver/Src/stm32f4xx_ll_usb.c ****         } while ((USBx_HC(hcnum)->HCCHAR & USB_OTG_HCCHAR_CHENA) == USB_OTG_HCCHAR_CHENA);
1900:Drivers/STM32F4xx_HAL_Driver/Src/stm32f4xx_ll_usb.c ****       }
1901:Drivers/STM32F4xx_HAL_Driver/Src/stm32f4xx_ll_usb.c ****       else
1902:Drivers/STM32F4xx_HAL_Driver/Src/stm32f4xx_ll_usb.c ****       {
1903:Drivers/STM32F4xx_HAL_Driver/Src/stm32f4xx_ll_usb.c ****         USBx_HC(hcnum)->HCCHAR |= USB_OTG_HCCHAR_CHENA;
1904:Drivers/STM32F4xx_HAL_Driver/Src/stm32f4xx_ll_usb.c ****       }
1905:Drivers/STM32F4xx_HAL_Driver/Src/stm32f4xx_ll_usb.c ****     }
1906:Drivers/STM32F4xx_HAL_Driver/Src/stm32f4xx_ll_usb.c ****   }
1907:Drivers/STM32F4xx_HAL_Driver/Src/stm32f4xx_ll_usb.c ****   else
1908:Drivers/STM32F4xx_HAL_Driver/Src/stm32f4xx_ll_usb.c ****   {
1909:Drivers/STM32F4xx_HAL_Driver/Src/stm32f4xx_ll_usb.c ****     USBx_HC(hcnum)->HCCHAR |= USB_OTG_HCCHAR_CHDIS;
1910:Drivers/STM32F4xx_HAL_Driver/Src/stm32f4xx_ll_usb.c **** 
1911:Drivers/STM32F4xx_HAL_Driver/Src/stm32f4xx_ll_usb.c ****     if ((USBx_HOST->HPTXSTS & (0xFFU << 16)) == 0U)
1912:Drivers/STM32F4xx_HAL_Driver/Src/stm32f4xx_ll_usb.c ****     {
1913:Drivers/STM32F4xx_HAL_Driver/Src/stm32f4xx_ll_usb.c ****       USBx_HC(hcnum)->HCCHAR &= ~USB_OTG_HCCHAR_CHENA;
1914:Drivers/STM32F4xx_HAL_Driver/Src/stm32f4xx_ll_usb.c ****       USBx_HC(hcnum)->HCCHAR |= USB_OTG_HCCHAR_CHENA;
1915:Drivers/STM32F4xx_HAL_Driver/Src/stm32f4xx_ll_usb.c ****       USBx_HC(hcnum)->HCCHAR &= ~USB_OTG_HCCHAR_EPDIR;
1916:Drivers/STM32F4xx_HAL_Driver/Src/stm32f4xx_ll_usb.c ****       do
1917:Drivers/STM32F4xx_HAL_Driver/Src/stm32f4xx_ll_usb.c ****       {
1918:Drivers/STM32F4xx_HAL_Driver/Src/stm32f4xx_ll_usb.c ****         if (++count > 1000U)
1919:Drivers/STM32F4xx_HAL_Driver/Src/stm32f4xx_ll_usb.c ****         {
1920:Drivers/STM32F4xx_HAL_Driver/Src/stm32f4xx_ll_usb.c ****           break;
1921:Drivers/STM32F4xx_HAL_Driver/Src/stm32f4xx_ll_usb.c ****         }
1922:Drivers/STM32F4xx_HAL_Driver/Src/stm32f4xx_ll_usb.c ****       } while ((USBx_HC(hcnum)->HCCHAR & USB_OTG_HCCHAR_CHENA) == USB_OTG_HCCHAR_CHENA);
1923:Drivers/STM32F4xx_HAL_Driver/Src/stm32f4xx_ll_usb.c ****     }
1924:Drivers/STM32F4xx_HAL_Driver/Src/stm32f4xx_ll_usb.c ****     else
1925:Drivers/STM32F4xx_HAL_Driver/Src/stm32f4xx_ll_usb.c ****     {
1926:Drivers/STM32F4xx_HAL_Driver/Src/stm32f4xx_ll_usb.c ****       USBx_HC(hcnum)->HCCHAR |= USB_OTG_HCCHAR_CHENA;
1927:Drivers/STM32F4xx_HAL_Driver/Src/stm32f4xx_ll_usb.c ****     }
1928:Drivers/STM32F4xx_HAL_Driver/Src/stm32f4xx_ll_usb.c ****   }
1929:Drivers/STM32F4xx_HAL_Driver/Src/stm32f4xx_ll_usb.c **** 
1930:Drivers/STM32F4xx_HAL_Driver/Src/stm32f4xx_ll_usb.c ****   return HAL_OK;
1931:Drivers/STM32F4xx_HAL_Driver/Src/stm32f4xx_ll_usb.c **** }
1932:Drivers/STM32F4xx_HAL_Driver/Src/stm32f4xx_ll_usb.c **** 
1933:Drivers/STM32F4xx_HAL_Driver/Src/stm32f4xx_ll_usb.c **** /**
1934:Drivers/STM32F4xx_HAL_Driver/Src/stm32f4xx_ll_usb.c ****   * @brief  Initiate Do Ping protocol
1935:Drivers/STM32F4xx_HAL_Driver/Src/stm32f4xx_ll_usb.c ****   * @param  USBx  Selected device
1936:Drivers/STM32F4xx_HAL_Driver/Src/stm32f4xx_ll_usb.c ****   * @param  hc_num  Host Channel number
1937:Drivers/STM32F4xx_HAL_Driver/Src/stm32f4xx_ll_usb.c ****   *         This parameter can be a value from 1 to 15
1938:Drivers/STM32F4xx_HAL_Driver/Src/stm32f4xx_ll_usb.c ****   * @retval HAL state
1939:Drivers/STM32F4xx_HAL_Driver/Src/stm32f4xx_ll_usb.c ****   */
1940:Drivers/STM32F4xx_HAL_Driver/Src/stm32f4xx_ll_usb.c **** HAL_StatusTypeDef USB_DoPing(USB_OTG_GlobalTypeDef *USBx, uint8_t ch_num)
 4804              		.loc 1 1940 19 view .LVU1632
ARM GAS  /tmp/ccDzXOxq.s 			page 143


 4805              	.LBB77:
1941:Drivers/STM32F4xx_HAL_Driver/Src/stm32f4xx_ll_usb.c **** {
1942:Drivers/STM32F4xx_HAL_Driver/Src/stm32f4xx_ll_usb.c ****   uint32_t USBx_BASE = (uint32_t)USBx;
 4806              		.loc 1 1942 3 view .LVU1633
1943:Drivers/STM32F4xx_HAL_Driver/Src/stm32f4xx_ll_usb.c ****   uint32_t chnum = (uint32_t)ch_num;
 4807              		.loc 1 1943 3 view .LVU1634
1944:Drivers/STM32F4xx_HAL_Driver/Src/stm32f4xx_ll_usb.c ****   uint32_t num_packets = 1U;
 4808              		.loc 1 1944 3 view .LVU1635
1945:Drivers/STM32F4xx_HAL_Driver/Src/stm32f4xx_ll_usb.c ****   uint32_t tmpreg;
 4809              		.loc 1 1945 3 view .LVU1636
1946:Drivers/STM32F4xx_HAL_Driver/Src/stm32f4xx_ll_usb.c **** 
1947:Drivers/STM32F4xx_HAL_Driver/Src/stm32f4xx_ll_usb.c ****   USBx_HC(chnum)->HCTSIZ = ((num_packets << 19) & USB_OTG_HCTSIZ_PKTCNT) |
 4810              		.loc 1 1947 3 view .LVU1637
 4811 00d8 00EB4610 		add	r0, r0, r6, lsl #5
 4812              	.LVL368:
 4813              		.loc 1 1947 26 is_stmt 0 view .LVU1638
 4814 00dc 2C4A     		ldr	r2, .L413
 4815              	.LVL369:
 4816              		.loc 1 1947 26 view .LVU1639
 4817 00de C0F81025 		str	r2, [r0, #1296]
 4818              	.LVL370:
1948:Drivers/STM32F4xx_HAL_Driver/Src/stm32f4xx_ll_usb.c ****                            USB_OTG_HCTSIZ_DOPING;
1949:Drivers/STM32F4xx_HAL_Driver/Src/stm32f4xx_ll_usb.c **** 
1950:Drivers/STM32F4xx_HAL_Driver/Src/stm32f4xx_ll_usb.c ****   /* Set host channel enable */
1951:Drivers/STM32F4xx_HAL_Driver/Src/stm32f4xx_ll_usb.c ****   tmpreg = USBx_HC(chnum)->HCCHAR;
 4819              		.loc 1 1951 3 is_stmt 1 view .LVU1640
 4820              		.loc 1 1951 10 is_stmt 0 view .LVU1641
 4821 00e2 D0F80035 		ldr	r3, [r0, #1280]
 4822              	.LVL371:
1952:Drivers/STM32F4xx_HAL_Driver/Src/stm32f4xx_ll_usb.c ****   tmpreg &= ~USB_OTG_HCCHAR_CHDIS;
 4823              		.loc 1 1952 3 is_stmt 1 view .LVU1642
 4824              		.loc 1 1952 10 is_stmt 0 view .LVU1643
 4825 00e6 23F08043 		bic	r3, r3, #1073741824
 4826              	.LVL372:
1953:Drivers/STM32F4xx_HAL_Driver/Src/stm32f4xx_ll_usb.c ****   tmpreg |= USB_OTG_HCCHAR_CHENA;
 4827              		.loc 1 1953 3 is_stmt 1 view .LVU1644
 4828              		.loc 1 1953 10 is_stmt 0 view .LVU1645
 4829 00ea 43F00043 		orr	r3, r3, #-2147483648
 4830              	.LVL373:
1954:Drivers/STM32F4xx_HAL_Driver/Src/stm32f4xx_ll_usb.c ****   USBx_HC(chnum)->HCCHAR = tmpreg;
 4831              		.loc 1 1954 3 is_stmt 1 view .LVU1646
 4832              		.loc 1 1954 26 is_stmt 0 view .LVU1647
 4833 00ee C0F80035 		str	r3, [r0, #1280]
1955:Drivers/STM32F4xx_HAL_Driver/Src/stm32f4xx_ll_usb.c **** 
1956:Drivers/STM32F4xx_HAL_Driver/Src/stm32f4xx_ll_usb.c ****   return HAL_OK;
 4834              		.loc 1 1956 3 is_stmt 1 view .LVU1648
 4835              	.LVL374:
 4836              		.loc 1 1956 3 is_stmt 0 view .LVU1649
 4837              	.LBE77:
 4838              	.LBE76:
1737:Drivers/STM32F4xx_HAL_Driver/Src/stm32f4xx_ll_usb.c ****     }
 4839              		.loc 1 1737 7 is_stmt 1 view .LVU1650
1737:Drivers/STM32F4xx_HAL_Driver/Src/stm32f4xx_ll_usb.c ****     }
 4840              		.loc 1 1737 14 is_stmt 0 view .LVU1651
 4841 00f2 D5E7     		b	.L384
 4842              	.LVL375:
 4843              	.L388:
ARM GAS  /tmp/ccDzXOxq.s 			page 144


1797:Drivers/STM32F4xx_HAL_Driver/Src/stm32f4xx_ll_usb.c ****   }
 4844              		.loc 1 1797 5 is_stmt 1 view .LVU1652
1797:Drivers/STM32F4xx_HAL_Driver/Src/stm32f4xx_ll_usb.c ****   }
 4845              		.loc 1 1797 12 is_stmt 0 view .LVU1653
 4846 00f4 23F40043 		bic	r3, r3, #32768
 4847 00f8 0193     		str	r3, [sp, #4]
1799:Drivers/STM32F4xx_HAL_Driver/Src/stm32f4xx_ll_usb.c ****   USBx_HC(ch_num)->HCCHAR = tmpreg;
 4848              		.loc 1 1799 3 is_stmt 1 view .LVU1654
1799:Drivers/STM32F4xx_HAL_Driver/Src/stm32f4xx_ll_usb.c ****   USBx_HC(ch_num)->HCCHAR = tmpreg;
 4849              		.loc 1 1799 10 is_stmt 0 view .LVU1655
 4850 00fa 019B     		ldr	r3, [sp, #4]
 4851 00fc 43F00043 		orr	r3, r3, #-2147483648
 4852 0100 0193     		str	r3, [sp, #4]
1800:Drivers/STM32F4xx_HAL_Driver/Src/stm32f4xx_ll_usb.c **** 
 4853              		.loc 1 1800 3 is_stmt 1 view .LVU1656
1800:Drivers/STM32F4xx_HAL_Driver/Src/stm32f4xx_ll_usb.c **** 
 4854              		.loc 1 1800 27 is_stmt 0 view .LVU1657
 4855 0102 019B     		ldr	r3, [sp, #4]
 4856 0104 2360     		str	r3, [r4]
1802:Drivers/STM32F4xx_HAL_Driver/Src/stm32f4xx_ll_usb.c ****   {
 4857              		.loc 1 1802 3 is_stmt 1 view .LVU1658
1802:Drivers/STM32F4xx_HAL_Driver/Src/stm32f4xx_ll_usb.c ****   {
 4858              		.loc 1 1802 6 is_stmt 0 view .LVU1659
 4859 0106 002A     		cmp	r2, #0
 4860 0108 CAD1     		bne	.L384
1807:Drivers/STM32F4xx_HAL_Driver/Src/stm32f4xx_ll_usb.c ****   {
 4861              		.loc 1 1807 28 discriminator 1 view .LVU1660
 4862 010a 002D     		cmp	r5, #0
 4863 010c C8D0     		beq	.L384
1809:Drivers/STM32F4xx_HAL_Driver/Src/stm32f4xx_ll_usb.c ****     {
 4864              		.loc 1 1809 5 is_stmt 1 view .LVU1661
 4865 010e CB79     		ldrb	r3, [r1, #7]	@ zero_extendqisi2
 4866 0110 032B     		cmp	r3, #3
 4867 0112 18D8     		bhi	.L391
 4868 0114 DFE803F0 		tbb	[pc, r3]
 4869              	.LVL376:
 4870              	.L393:
 4871 0118 2A       		.byte	(.L394-.L393)/2
 4872 0119 0F       		.byte	(.L392-.L393)/2
 4873 011a 2A       		.byte	(.L394-.L393)/2
 4874 011b 0F       		.byte	(.L392-.L393)/2
 4875              		.p2align 1
 4876              	.L411:
1729:Drivers/STM32F4xx_HAL_Driver/Src/stm32f4xx_ll_usb.c ****                                                USB_OTG_HCINTMSK_ACKM |
 4877              		.loc 1 1729 7 discriminator 1 view .LVU1662
1727:Drivers/STM32F4xx_HAL_Driver/Src/stm32f4xx_ll_usb.c ****     {
 4878              		.loc 1 1727 21 is_stmt 0 discriminator 1 view .LVU1663
 4879 011c CB79     		ldrb	r3, [r1, #7]	@ zero_extendqisi2
1729:Drivers/STM32F4xx_HAL_Driver/Src/stm32f4xx_ll_usb.c ****                                                USB_OTG_HCINTMSK_ACKM |
 4880              		.loc 1 1729 43 discriminator 1 view .LVU1664
 4881 011e 00EB4614 		add	r4, r0, r6, lsl #5
 4882 0122 04F5A064 		add	r4, r4, #1280
1727:Drivers/STM32F4xx_HAL_Driver/Src/stm32f4xx_ll_usb.c ****     {
 4883              		.loc 1 1727 21 discriminator 1 view .LVU1665
 4884 0126 13F0FD0F 		tst	r3, #253
1729:Drivers/STM32F4xx_HAL_Driver/Src/stm32f4xx_ll_usb.c ****                                                USB_OTG_HCINTMSK_ACKM |
 4885              		.loc 1 1729 43 discriminator 1 view .LVU1666
ARM GAS  /tmp/ccDzXOxq.s 			page 145


 4886 012a 02BF     		ittt	eq
 4887 012c E368     		ldreq	r3, [r4, #12]
 4888 012e 23F07003 		biceq	r3, r3, #112
 4889 0132 E360     		streq	r3, [r4, #12]
 4890 0134 71E7     		b	.L379
 4891              	.LVL377:
 4892              	.L392:
1828:Drivers/STM32F4xx_HAL_Driver/Src/stm32f4xx_ll_usb.c ****         /* check if there is enough space in FIFO space */
 4893              		.loc 1 1828 9 is_stmt 1 view .LVU1667
1830:Drivers/STM32F4xx_HAL_Driver/Src/stm32f4xx_ll_usb.c ****         {
 4894              		.loc 1 1830 9 view .LVU1668
1830:Drivers/STM32F4xx_HAL_Driver/Src/stm32f4xx_ll_usb.c ****         {
 4895              		.loc 1 1830 35 is_stmt 0 view .LVU1669
 4896 0136 DCF81020 		ldr	r2, [ip, #16]
1828:Drivers/STM32F4xx_HAL_Driver/Src/stm32f4xx_ll_usb.c ****         /* check if there is enough space in FIFO space */
 4897              		.loc 1 1828 46 view .LVU1670
 4898 013a EB1C     		adds	r3, r5, #3
1830:Drivers/STM32F4xx_HAL_Driver/Src/stm32f4xx_ll_usb.c ****         {
 4899              		.loc 1 1830 45 view .LVU1671
 4900 013c 92B2     		uxth	r2, r2
1830:Drivers/STM32F4xx_HAL_Driver/Src/stm32f4xx_ll_usb.c ****         {
 4901              		.loc 1 1830 12 view .LVU1672
 4902 013e C3F38F03 		ubfx	r3, r3, #2, #16
 4903 0142 9A42     		cmp	r2, r3
 4904 0144 1ED3     		bcc	.L412
 4905              	.LVL378:
 4906              	.L391:
1842:Drivers/STM32F4xx_HAL_Driver/Src/stm32f4xx_ll_usb.c ****   }
 4907              		.loc 1 1842 5 is_stmt 1 view .LVU1673
 4908              	.LBB78:
 4909              	.LBB79:
 965:Drivers/STM32F4xx_HAL_Driver/Src/stm32f4xx_ll_usb.c ****     for (i = 0U; i < count32b; i++)
 4910              		.loc 1 965 31 is_stmt 0 view .LVU1674
 4911 0146 ABB2     		uxth	r3, r5
 4912 0148 0333     		adds	r3, r3, #3
 966:Drivers/STM32F4xx_HAL_Driver/Src/stm32f4xx_ll_usb.c ****     {
 4913              		.loc 1 966 5 view .LVU1675
 4914 014a 9B08     		lsrs	r3, r3, #2
 4915              	.LBE79:
 4916              	.LBE78:
1842:Drivers/STM32F4xx_HAL_Driver/Src/stm32f4xx_ll_usb.c ****   }
 4917              		.loc 1 1842 11 view .LVU1676
 4918 014c CA68     		ldr	r2, [r1, #12]
 4919              	.LVL379:
 4920              	.LBB81:
 4921              	.LBI78:
 956:Drivers/STM32F4xx_HAL_Driver/Src/stm32f4xx_ll_usb.c ****                                   uint8_t ch_ep_num, uint16_t len, uint8_t dma)
 4922              		.loc 1 956 19 is_stmt 1 view .LVU1677
 4923              	.LBB80:
 959:Drivers/STM32F4xx_HAL_Driver/Src/stm32f4xx_ll_usb.c ****   uint32_t *pSrc = (uint32_t *)src;
 4924              		.loc 1 959 3 view .LVU1678
 960:Drivers/STM32F4xx_HAL_Driver/Src/stm32f4xx_ll_usb.c ****   uint32_t count32b, i;
 4925              		.loc 1 960 3 view .LVU1679
 961:Drivers/STM32F4xx_HAL_Driver/Src/stm32f4xx_ll_usb.c **** 
 4926              		.loc 1 961 3 view .LVU1680
 963:Drivers/STM32F4xx_HAL_Driver/Src/stm32f4xx_ll_usb.c ****   {
 4927              		.loc 1 963 3 view .LVU1681
ARM GAS  /tmp/ccDzXOxq.s 			page 146


 965:Drivers/STM32F4xx_HAL_Driver/Src/stm32f4xx_ll_usb.c ****     for (i = 0U; i < count32b; i++)
 4928              		.loc 1 965 5 view .LVU1682
 966:Drivers/STM32F4xx_HAL_Driver/Src/stm32f4xx_ll_usb.c ****     {
 4929              		.loc 1 966 5 view .LVU1683
 966:Drivers/STM32F4xx_HAL_Driver/Src/stm32f4xx_ll_usb.c ****     {
 4930              		.loc 1 966 18 view .LVU1684
 966:Drivers/STM32F4xx_HAL_Driver/Src/stm32f4xx_ll_usb.c ****     {
 4931              		.loc 1 966 5 is_stmt 0 view .LVU1685
 4932 014e A7D0     		beq	.L384
 968:Drivers/STM32F4xx_HAL_Driver/Src/stm32f4xx_ll_usb.c ****       pSrc++;
 4933              		.loc 1 968 7 view .LVU1686
 4934 0150 00EB0630 		add	r0, r0, r6, lsl #12
 4935              	.LVL380:
 968:Drivers/STM32F4xx_HAL_Driver/Src/stm32f4xx_ll_usb.c ****       pSrc++;
 4936              		.loc 1 968 7 view .LVU1687
 4937 0154 00F58050 		add	r0, r0, #4096
 4938 0158 02EB8303 		add	r3, r2, r3, lsl #2
 4939              	.LVL381:
 4940              	.L395:
 968:Drivers/STM32F4xx_HAL_Driver/Src/stm32f4xx_ll_usb.c ****       pSrc++;
 4941              		.loc 1 968 7 is_stmt 1 view .LVU1688
 968:Drivers/STM32F4xx_HAL_Driver/Src/stm32f4xx_ll_usb.c ****       pSrc++;
 4942              		.loc 1 968 41 is_stmt 0 view .LVU1689
 4943 015c 52F8041B 		ldr	r1, [r2], #4	@ unaligned
 4944              	.LVL382:
 968:Drivers/STM32F4xx_HAL_Driver/Src/stm32f4xx_ll_usb.c ****       pSrc++;
 4945              		.loc 1 968 39 view .LVU1690
 4946 0160 0160     		str	r1, [r0]
 969:Drivers/STM32F4xx_HAL_Driver/Src/stm32f4xx_ll_usb.c ****     }
 4947              		.loc 1 969 7 is_stmt 1 view .LVU1691
 4948              	.LVL383:
 966:Drivers/STM32F4xx_HAL_Driver/Src/stm32f4xx_ll_usb.c ****     {
 4949              		.loc 1 966 32 view .LVU1692
 966:Drivers/STM32F4xx_HAL_Driver/Src/stm32f4xx_ll_usb.c ****     {
 4950              		.loc 1 966 18 view .LVU1693
 966:Drivers/STM32F4xx_HAL_Driver/Src/stm32f4xx_ll_usb.c ****     {
 4951              		.loc 1 966 5 is_stmt 0 view .LVU1694
 4952 0162 9A42     		cmp	r2, r3
 4953 0164 FAD1     		bne	.L395
 4954              	.LVL384:
 966:Drivers/STM32F4xx_HAL_Driver/Src/stm32f4xx_ll_usb.c ****     {
 4955              		.loc 1 966 5 view .LVU1695
 4956              	.LBE80:
 4957              	.LBE81:
1846:Drivers/STM32F4xx_HAL_Driver/Src/stm32f4xx_ll_usb.c **** 
 4958              		.loc 1 1846 1 view .LVU1696
 4959 0166 0020     		movs	r0, #0
 4960 0168 03B0     		add	sp, sp, #12
 4961              	.LCFI66:
 4962              		.cfi_remember_state
 4963              		.cfi_def_cfa_offset 20
 4964              		@ sp needed
 4965 016a F0BD     		pop	{r4, r5, r6, r7, pc}
 4966              	.LVL385:
 4967              	.L394:
 4968              	.LCFI67:
 4969              		.cfi_restore_state
ARM GAS  /tmp/ccDzXOxq.s 			page 147


1815:Drivers/STM32F4xx_HAL_Driver/Src/stm32f4xx_ll_usb.c **** 
 4970              		.loc 1 1815 9 is_stmt 1 view .LVU1697
1818:Drivers/STM32F4xx_HAL_Driver/Src/stm32f4xx_ll_usb.c ****         {
 4971              		.loc 1 1818 9 view .LVU1698
1818:Drivers/STM32F4xx_HAL_Driver/Src/stm32f4xx_ll_usb.c ****         {
 4972              		.loc 1 1818 30 is_stmt 0 view .LVU1699
 4973 016c C26A     		ldr	r2, [r0, #44]
1815:Drivers/STM32F4xx_HAL_Driver/Src/stm32f4xx_ll_usb.c **** 
 4974              		.loc 1 1815 46 view .LVU1700
 4975 016e EB1C     		adds	r3, r5, #3
1818:Drivers/STM32F4xx_HAL_Driver/Src/stm32f4xx_ll_usb.c ****         {
 4976              		.loc 1 1818 41 view .LVU1701
 4977 0170 92B2     		uxth	r2, r2
1818:Drivers/STM32F4xx_HAL_Driver/Src/stm32f4xx_ll_usb.c ****         {
 4978              		.loc 1 1818 12 view .LVU1702
 4979 0172 C3F38F03 		ubfx	r3, r3, #2, #16
 4980 0176 9A42     		cmp	r2, r3
 4981 0178 E5D2     		bcs	.L391
1821:Drivers/STM32F4xx_HAL_Driver/Src/stm32f4xx_ll_usb.c ****         }
 4982              		.loc 1 1821 11 is_stmt 1 view .LVU1703
1821:Drivers/STM32F4xx_HAL_Driver/Src/stm32f4xx_ll_usb.c ****         }
 4983              		.loc 1 1821 25 is_stmt 0 view .LVU1704
 4984 017a 8369     		ldr	r3, [r0, #24]
 4985 017c 43F02003 		orr	r3, r3, #32
 4986 0180 8361     		str	r3, [r0, #24]
 4987 0182 E0E7     		b	.L391
 4988              	.L412:
1833:Drivers/STM32F4xx_HAL_Driver/Src/stm32f4xx_ll_usb.c ****         }
 4989              		.loc 1 1833 11 is_stmt 1 view .LVU1705
1833:Drivers/STM32F4xx_HAL_Driver/Src/stm32f4xx_ll_usb.c ****         }
 4990              		.loc 1 1833 25 is_stmt 0 view .LVU1706
 4991 0184 8369     		ldr	r3, [r0, #24]
 4992 0186 43F08063 		orr	r3, r3, #67108864
 4993 018a 8361     		str	r3, [r0, #24]
 4994 018c DBE7     		b	.L391
 4995              	.L414:
 4996 018e 00BF     		.align	2
 4997              	.L413:
 4998 0190 00000880 		.word	-2146959360
 4999              		.cfi_endproc
 5000              	.LFE171:
 5002              		.section	.text.USB_HC_ReadInterrupt,"ax",%progbits
 5003              		.align	1
 5004              		.p2align 2,,3
 5005              		.global	USB_HC_ReadInterrupt
 5006              		.syntax unified
 5007              		.thumb
 5008              		.thumb_func
 5009              		.fpu fpv4-sp-d16
 5011              	USB_HC_ReadInterrupt:
 5012              	.LVL386:
 5013              	.LFB172:
1854:Drivers/STM32F4xx_HAL_Driver/Src/stm32f4xx_ll_usb.c ****   uint32_t USBx_BASE = (uint32_t)USBx;
 5014              		.loc 1 1854 1 is_stmt 1 view -0
 5015              		.cfi_startproc
 5016              		@ args = 0, pretend = 0, frame = 0
 5017              		@ frame_needed = 0, uses_anonymous_args = 0
ARM GAS  /tmp/ccDzXOxq.s 			page 148


 5018              		@ link register save eliminated.
1855:Drivers/STM32F4xx_HAL_Driver/Src/stm32f4xx_ll_usb.c **** 
 5019              		.loc 1 1855 3 view .LVU1708
1857:Drivers/STM32F4xx_HAL_Driver/Src/stm32f4xx_ll_usb.c **** }
 5020              		.loc 1 1857 3 view .LVU1709
1857:Drivers/STM32F4xx_HAL_Driver/Src/stm32f4xx_ll_usb.c **** }
 5021              		.loc 1 1857 12 is_stmt 0 view .LVU1710
 5022 0000 00F58060 		add	r0, r0, #1024
 5023              	.LVL387:
1857:Drivers/STM32F4xx_HAL_Driver/Src/stm32f4xx_ll_usb.c **** }
 5024              		.loc 1 1857 21 view .LVU1711
 5025 0004 4069     		ldr	r0, [r0, #20]
 5026              	.LVL388:
1858:Drivers/STM32F4xx_HAL_Driver/Src/stm32f4xx_ll_usb.c **** 
 5027              		.loc 1 1858 1 view .LVU1712
 5028 0006 80B2     		uxth	r0, r0
 5029 0008 7047     		bx	lr
 5030              		.cfi_endproc
 5031              	.LFE172:
 5033 000a 00BF     		.section	.text.USB_HC_Halt,"ax",%progbits
 5034              		.align	1
 5035              		.p2align 2,,3
 5036              		.global	USB_HC_Halt
 5037              		.syntax unified
 5038              		.thumb
 5039              		.thumb_func
 5040              		.fpu fpv4-sp-d16
 5042              	USB_HC_Halt:
 5043              	.LVL389:
 5044              	.LFB173:
1868:Drivers/STM32F4xx_HAL_Driver/Src/stm32f4xx_ll_usb.c ****   uint32_t USBx_BASE = (uint32_t)USBx;
 5045              		.loc 1 1868 1 is_stmt 1 view -0
 5046              		.cfi_startproc
 5047              		@ args = 0, pretend = 0, frame = 0
 5048              		@ frame_needed = 0, uses_anonymous_args = 0
 5049              		@ link register save eliminated.
1869:Drivers/STM32F4xx_HAL_Driver/Src/stm32f4xx_ll_usb.c ****   uint32_t hcnum = (uint32_t)hc_num;
 5050              		.loc 1 1869 3 view .LVU1714
1870:Drivers/STM32F4xx_HAL_Driver/Src/stm32f4xx_ll_usb.c ****   uint32_t count = 0U;
 5051              		.loc 1 1870 3 view .LVU1715
1871:Drivers/STM32F4xx_HAL_Driver/Src/stm32f4xx_ll_usb.c ****   uint32_t HcEpType = (USBx_HC(hcnum)->HCCHAR & USB_OTG_HCCHAR_EPTYP) >> 18;
 5052              		.loc 1 1871 3 view .LVU1716
1872:Drivers/STM32F4xx_HAL_Driver/Src/stm32f4xx_ll_usb.c ****   uint32_t ChannelEna = (USBx_HC(hcnum)->HCCHAR & USB_OTG_HCCHAR_CHENA) >> 31;
 5053              		.loc 1 1872 3 view .LVU1717
1872:Drivers/STM32F4xx_HAL_Driver/Src/stm32f4xx_ll_usb.c ****   uint32_t ChannelEna = (USBx_HC(hcnum)->HCCHAR & USB_OTG_HCCHAR_CHENA) >> 31;
 5054              		.loc 1 1872 24 is_stmt 0 view .LVU1718
 5055 0000 00EB4111 		add	r1, r0, r1, lsl #5
 5056              	.LVL390:
1868:Drivers/STM32F4xx_HAL_Driver/Src/stm32f4xx_ll_usb.c ****   uint32_t USBx_BASE = (uint32_t)USBx;
 5057              		.loc 1 1868 1 view .LVU1719
 5058 0004 30B4     		push	{r4, r5}
 5059              	.LCFI68:
 5060              		.cfi_def_cfa_offset 8
 5061              		.cfi_offset 4, -8
 5062              		.cfi_offset 5, -4
1872:Drivers/STM32F4xx_HAL_Driver/Src/stm32f4xx_ll_usb.c ****   uint32_t ChannelEna = (USBx_HC(hcnum)->HCCHAR & USB_OTG_HCCHAR_CHENA) >> 31;
 5063              		.loc 1 1872 38 view .LVU1720
ARM GAS  /tmp/ccDzXOxq.s 			page 149


 5064 0006 D1F80035 		ldr	r3, [r1, #1280]
1873:Drivers/STM32F4xx_HAL_Driver/Src/stm32f4xx_ll_usb.c **** 
 5065              		.loc 1 1873 40 view .LVU1721
 5066 000a D1F80055 		ldr	r5, [r1, #1280]
1875:Drivers/STM32F4xx_HAL_Driver/Src/stm32f4xx_ll_usb.c ****       (ChannelEna == 0U))
 5067              		.loc 1 1875 13 view .LVU1722
 5068 000e 8268     		ldr	r2, [r0, #8]
1875:Drivers/STM32F4xx_HAL_Driver/Src/stm32f4xx_ll_usb.c ****       (ChannelEna == 0U))
 5069              		.loc 1 1875 6 view .LVU1723
 5070 0010 9206     		lsls	r2, r2, #26
1872:Drivers/STM32F4xx_HAL_Driver/Src/stm32f4xx_ll_usb.c ****   uint32_t ChannelEna = (USBx_HC(hcnum)->HCCHAR & USB_OTG_HCCHAR_CHENA) >> 31;
 5071              		.loc 1 1872 24 view .LVU1724
 5072 0012 01F5A064 		add	r4, r1, #1280
1872:Drivers/STM32F4xx_HAL_Driver/Src/stm32f4xx_ll_usb.c ****   uint32_t ChannelEna = (USBx_HC(hcnum)->HCCHAR & USB_OTG_HCCHAR_CHENA) >> 31;
 5073              		.loc 1 1872 71 view .LVU1725
 5074 0016 4FEA9343 		lsr	r3, r3, #18
 5075              	.LVL391:
1873:Drivers/STM32F4xx_HAL_Driver/Src/stm32f4xx_ll_usb.c **** 
 5076              		.loc 1 1873 3 is_stmt 1 view .LVU1726
1875:Drivers/STM32F4xx_HAL_Driver/Src/stm32f4xx_ll_usb.c ****       (ChannelEna == 0U))
 5077              		.loc 1 1875 3 view .LVU1727
1875:Drivers/STM32F4xx_HAL_Driver/Src/stm32f4xx_ll_usb.c ****       (ChannelEna == 0U))
 5078              		.loc 1 1875 6 is_stmt 0 view .LVU1728
 5079 001a 01D5     		bpl	.L417
1875:Drivers/STM32F4xx_HAL_Driver/Src/stm32f4xx_ll_usb.c ****       (ChannelEna == 0U))
 5080              		.loc 1 1875 74 discriminator 1 view .LVU1729
 5081 001c 002D     		cmp	r5, #0
 5082 001e 29DA     		bge	.L418
 5083              	.L417:
1882:Drivers/STM32F4xx_HAL_Driver/Src/stm32f4xx_ll_usb.c ****   {
 5084              		.loc 1 1882 3 is_stmt 1 view .LVU1730
1882:Drivers/STM32F4xx_HAL_Driver/Src/stm32f4xx_ll_usb.c ****   {
 5085              		.loc 1 1882 6 is_stmt 0 view .LVU1731
 5086 0020 13F0010F 		tst	r3, #1
1884:Drivers/STM32F4xx_HAL_Driver/Src/stm32f4xx_ll_usb.c **** 
 5087              		.loc 1 1884 28 view .LVU1732
 5088 0024 D1F80035 		ldr	r3, [r1, #1280]
 5089              	.LVL392:
1884:Drivers/STM32F4xx_HAL_Driver/Src/stm32f4xx_ll_usb.c **** 
 5090              		.loc 1 1884 28 view .LVU1733
 5091 0028 43F08043 		orr	r3, r3, #1073741824
 5092 002c C1F80035 		str	r3, [r1, #1280]
1882:Drivers/STM32F4xx_HAL_Driver/Src/stm32f4xx_ll_usb.c ****   {
 5093              		.loc 1 1882 6 view .LVU1734
 5094 0030 23D1     		bne	.L419
1884:Drivers/STM32F4xx_HAL_Driver/Src/stm32f4xx_ll_usb.c **** 
 5095              		.loc 1 1884 5 is_stmt 1 view .LVU1735
1886:Drivers/STM32F4xx_HAL_Driver/Src/stm32f4xx_ll_usb.c ****     {
 5096              		.loc 1 1886 5 view .LVU1736
1886:Drivers/STM32F4xx_HAL_Driver/Src/stm32f4xx_ll_usb.c ****     {
 5097              		.loc 1 1886 14 is_stmt 0 view .LVU1737
 5098 0032 8368     		ldr	r3, [r0, #8]
1886:Drivers/STM32F4xx_HAL_Driver/Src/stm32f4xx_ll_usb.c ****     {
 5099              		.loc 1 1886 8 view .LVU1738
 5100 0034 9B06     		lsls	r3, r3, #26
 5101 0036 1DD4     		bmi	.L418
1888:Drivers/STM32F4xx_HAL_Driver/Src/stm32f4xx_ll_usb.c ****       {
ARM GAS  /tmp/ccDzXOxq.s 			page 150


 5102              		.loc 1 1888 7 is_stmt 1 view .LVU1739
1888:Drivers/STM32F4xx_HAL_Driver/Src/stm32f4xx_ll_usb.c ****       {
 5103              		.loc 1 1888 16 is_stmt 0 view .LVU1740
 5104 0038 C36A     		ldr	r3, [r0, #44]
1888:Drivers/STM32F4xx_HAL_Driver/Src/stm32f4xx_ll_usb.c ****       {
 5105              		.loc 1 1888 10 view .LVU1741
 5106 003a 13F47F0F 		tst	r3, #16711680
1890:Drivers/STM32F4xx_HAL_Driver/Src/stm32f4xx_ll_usb.c ****         USBx_HC(hcnum)->HCCHAR |= USB_OTG_HCCHAR_CHENA;
 5107              		.loc 1 1890 32 view .LVU1742
 5108 003e D1F80035 		ldr	r3, [r1, #1280]
1888:Drivers/STM32F4xx_HAL_Driver/Src/stm32f4xx_ll_usb.c ****       {
 5109              		.loc 1 1888 10 view .LVU1743
 5110 0042 3CD1     		bne	.L424
1890:Drivers/STM32F4xx_HAL_Driver/Src/stm32f4xx_ll_usb.c ****         USBx_HC(hcnum)->HCCHAR |= USB_OTG_HCCHAR_CHENA;
 5111              		.loc 1 1890 9 is_stmt 1 view .LVU1744
1890:Drivers/STM32F4xx_HAL_Driver/Src/stm32f4xx_ll_usb.c ****         USBx_HC(hcnum)->HCCHAR |= USB_OTG_HCCHAR_CHENA;
 5112              		.loc 1 1890 32 is_stmt 0 view .LVU1745
 5113 0044 23F00043 		bic	r3, r3, #-2147483648
 5114 0048 C1F80035 		str	r3, [r1, #1280]
1891:Drivers/STM32F4xx_HAL_Driver/Src/stm32f4xx_ll_usb.c ****         USBx_HC(hcnum)->HCCHAR &= ~USB_OTG_HCCHAR_EPDIR;
 5115              		.loc 1 1891 9 is_stmt 1 view .LVU1746
1891:Drivers/STM32F4xx_HAL_Driver/Src/stm32f4xx_ll_usb.c ****         USBx_HC(hcnum)->HCCHAR &= ~USB_OTG_HCCHAR_EPDIR;
 5116              		.loc 1 1891 32 is_stmt 0 view .LVU1747
 5117 004c D1F80035 		ldr	r3, [r1, #1280]
 5118 0050 43F00043 		orr	r3, r3, #-2147483648
 5119 0054 C1F80035 		str	r3, [r1, #1280]
1892:Drivers/STM32F4xx_HAL_Driver/Src/stm32f4xx_ll_usb.c ****         do
 5120              		.loc 1 1892 9 is_stmt 1 view .LVU1748
1892:Drivers/STM32F4xx_HAL_Driver/Src/stm32f4xx_ll_usb.c ****         do
 5121              		.loc 1 1892 32 is_stmt 0 view .LVU1749
 5122 0058 D1F80035 		ldr	r3, [r1, #1280]
 5123 005c 23F40043 		bic	r3, r3, #32768
 5124 0060 C1F80035 		str	r3, [r1, #1280]
1893:Drivers/STM32F4xx_HAL_Driver/Src/stm32f4xx_ll_usb.c ****         {
 5125              		.loc 1 1893 9 is_stmt 1 view .LVU1750
1895:Drivers/STM32F4xx_HAL_Driver/Src/stm32f4xx_ll_usb.c ****           {
 5126              		.loc 1 1895 11 view .LVU1751
 5127              	.LVL393:
1892:Drivers/STM32F4xx_HAL_Driver/Src/stm32f4xx_ll_usb.c ****         do
 5128              		.loc 1 1892 32 is_stmt 0 view .LVU1752
 5129 0064 4FF47A73 		mov	r3, #1000
 5130 0068 01E0     		b	.L422
 5131              	.LVL394:
 5132              	.L423:
1895:Drivers/STM32F4xx_HAL_Driver/Src/stm32f4xx_ll_usb.c ****           {
 5133              		.loc 1 1895 14 view .LVU1753
 5134 006a 013B     		subs	r3, r3, #1
 5135              	.LVL395:
1895:Drivers/STM32F4xx_HAL_Driver/Src/stm32f4xx_ll_usb.c ****           {
 5136              		.loc 1 1895 14 view .LVU1754
 5137 006c 02D0     		beq	.L418
 5138              	.LVL396:
 5139              	.L422:
1893:Drivers/STM32F4xx_HAL_Driver/Src/stm32f4xx_ll_usb.c ****         {
 5140              		.loc 1 1893 9 is_stmt 1 view .LVU1755
1895:Drivers/STM32F4xx_HAL_Driver/Src/stm32f4xx_ll_usb.c ****           {
 5141              		.loc 1 1895 11 view .LVU1756
ARM GAS  /tmp/ccDzXOxq.s 			page 151


1899:Drivers/STM32F4xx_HAL_Driver/Src/stm32f4xx_ll_usb.c ****       }
 5142              		.loc 1 1899 17 view .LVU1757
1899:Drivers/STM32F4xx_HAL_Driver/Src/stm32f4xx_ll_usb.c ****       }
 5143              		.loc 1 1899 33 is_stmt 0 view .LVU1758
 5144 006e 2268     		ldr	r2, [r4]
1899:Drivers/STM32F4xx_HAL_Driver/Src/stm32f4xx_ll_usb.c ****       }
 5145              		.loc 1 1899 9 view .LVU1759
 5146 0070 002A     		cmp	r2, #0
 5147 0072 FADB     		blt	.L423
 5148              	.LVL397:
 5149              	.L418:
1931:Drivers/STM32F4xx_HAL_Driver/Src/stm32f4xx_ll_usb.c **** 
 5150              		.loc 1 1931 1 view .LVU1760
 5151 0074 0020     		movs	r0, #0
 5152              	.LVL398:
1931:Drivers/STM32F4xx_HAL_Driver/Src/stm32f4xx_ll_usb.c **** 
 5153              		.loc 1 1931 1 view .LVU1761
 5154 0076 30BC     		pop	{r4, r5}
 5155              	.LCFI69:
 5156              		.cfi_remember_state
 5157              		.cfi_restore 5
 5158              		.cfi_restore 4
 5159              		.cfi_def_cfa_offset 0
 5160              	.LVL399:
1931:Drivers/STM32F4xx_HAL_Driver/Src/stm32f4xx_ll_usb.c **** 
 5161              		.loc 1 1931 1 view .LVU1762
 5162 0078 7047     		bx	lr
 5163              	.LVL400:
 5164              	.L419:
 5165              	.LCFI70:
 5166              		.cfi_restore_state
1909:Drivers/STM32F4xx_HAL_Driver/Src/stm32f4xx_ll_usb.c **** 
 5167              		.loc 1 1909 5 is_stmt 1 view .LVU1763
1911:Drivers/STM32F4xx_HAL_Driver/Src/stm32f4xx_ll_usb.c ****     {
 5168              		.loc 1 1911 5 view .LVU1764
1911:Drivers/STM32F4xx_HAL_Driver/Src/stm32f4xx_ll_usb.c ****     {
 5169              		.loc 1 1911 19 is_stmt 0 view .LVU1765
 5170 007a D0F81034 		ldr	r3, [r0, #1040]
1911:Drivers/STM32F4xx_HAL_Driver/Src/stm32f4xx_ll_usb.c ****     {
 5171              		.loc 1 1911 8 view .LVU1766
 5172 007e 13F47F0F 		tst	r3, #16711680
1913:Drivers/STM32F4xx_HAL_Driver/Src/stm32f4xx_ll_usb.c ****       USBx_HC(hcnum)->HCCHAR |= USB_OTG_HCCHAR_CHENA;
 5173              		.loc 1 1913 30 view .LVU1767
 5174 0082 D1F80035 		ldr	r3, [r1, #1280]
1911:Drivers/STM32F4xx_HAL_Driver/Src/stm32f4xx_ll_usb.c ****     {
 5175              		.loc 1 1911 8 view .LVU1768
 5176 0086 1AD1     		bne	.L424
1913:Drivers/STM32F4xx_HAL_Driver/Src/stm32f4xx_ll_usb.c ****       USBx_HC(hcnum)->HCCHAR |= USB_OTG_HCCHAR_CHENA;
 5177              		.loc 1 1913 7 is_stmt 1 view .LVU1769
1913:Drivers/STM32F4xx_HAL_Driver/Src/stm32f4xx_ll_usb.c ****       USBx_HC(hcnum)->HCCHAR |= USB_OTG_HCCHAR_CHENA;
 5178              		.loc 1 1913 30 is_stmt 0 view .LVU1770
 5179 0088 23F00043 		bic	r3, r3, #-2147483648
 5180 008c C1F80035 		str	r3, [r1, #1280]
1914:Drivers/STM32F4xx_HAL_Driver/Src/stm32f4xx_ll_usb.c ****       USBx_HC(hcnum)->HCCHAR &= ~USB_OTG_HCCHAR_EPDIR;
 5181              		.loc 1 1914 7 is_stmt 1 view .LVU1771
1914:Drivers/STM32F4xx_HAL_Driver/Src/stm32f4xx_ll_usb.c ****       USBx_HC(hcnum)->HCCHAR &= ~USB_OTG_HCCHAR_EPDIR;
 5182              		.loc 1 1914 30 is_stmt 0 view .LVU1772
ARM GAS  /tmp/ccDzXOxq.s 			page 152


 5183 0090 D1F80035 		ldr	r3, [r1, #1280]
 5184 0094 43F00043 		orr	r3, r3, #-2147483648
 5185 0098 C1F80035 		str	r3, [r1, #1280]
1915:Drivers/STM32F4xx_HAL_Driver/Src/stm32f4xx_ll_usb.c ****       do
 5186              		.loc 1 1915 7 is_stmt 1 view .LVU1773
1915:Drivers/STM32F4xx_HAL_Driver/Src/stm32f4xx_ll_usb.c ****       do
 5187              		.loc 1 1915 30 is_stmt 0 view .LVU1774
 5188 009c D1F80035 		ldr	r3, [r1, #1280]
 5189 00a0 23F40043 		bic	r3, r3, #32768
 5190 00a4 C1F80035 		str	r3, [r1, #1280]
1916:Drivers/STM32F4xx_HAL_Driver/Src/stm32f4xx_ll_usb.c ****       {
 5191              		.loc 1 1916 7 is_stmt 1 view .LVU1775
1918:Drivers/STM32F4xx_HAL_Driver/Src/stm32f4xx_ll_usb.c ****         {
 5192              		.loc 1 1918 9 view .LVU1776
 5193              	.LVL401:
1915:Drivers/STM32F4xx_HAL_Driver/Src/stm32f4xx_ll_usb.c ****       do
 5194              		.loc 1 1915 30 is_stmt 0 view .LVU1777
 5195 00a8 4FF47A73 		mov	r3, #1000
 5196 00ac 01E0     		b	.L425
 5197              	.LVL402:
 5198              	.L426:
1918:Drivers/STM32F4xx_HAL_Driver/Src/stm32f4xx_ll_usb.c ****         {
 5199              		.loc 1 1918 12 view .LVU1778
 5200 00ae 013B     		subs	r3, r3, #1
 5201              	.LVL403:
1918:Drivers/STM32F4xx_HAL_Driver/Src/stm32f4xx_ll_usb.c ****         {
 5202              		.loc 1 1918 12 view .LVU1779
 5203 00b0 E0D0     		beq	.L418
 5204              	.LVL404:
 5205              	.L425:
1916:Drivers/STM32F4xx_HAL_Driver/Src/stm32f4xx_ll_usb.c ****       {
 5206              		.loc 1 1916 7 is_stmt 1 view .LVU1780
1918:Drivers/STM32F4xx_HAL_Driver/Src/stm32f4xx_ll_usb.c ****         {
 5207              		.loc 1 1918 9 view .LVU1781
1922:Drivers/STM32F4xx_HAL_Driver/Src/stm32f4xx_ll_usb.c ****     }
 5208              		.loc 1 1922 15 view .LVU1782
1922:Drivers/STM32F4xx_HAL_Driver/Src/stm32f4xx_ll_usb.c ****     }
 5209              		.loc 1 1922 31 is_stmt 0 view .LVU1783
 5210 00b2 2268     		ldr	r2, [r4]
1922:Drivers/STM32F4xx_HAL_Driver/Src/stm32f4xx_ll_usb.c ****     }
 5211              		.loc 1 1922 7 view .LVU1784
 5212 00b4 002A     		cmp	r2, #0
 5213 00b6 FADB     		blt	.L426
1931:Drivers/STM32F4xx_HAL_Driver/Src/stm32f4xx_ll_usb.c **** 
 5214              		.loc 1 1931 1 view .LVU1785
 5215 00b8 0020     		movs	r0, #0
 5216              	.LVL405:
1931:Drivers/STM32F4xx_HAL_Driver/Src/stm32f4xx_ll_usb.c **** 
 5217              		.loc 1 1931 1 view .LVU1786
 5218 00ba 30BC     		pop	{r4, r5}
 5219              	.LCFI71:
 5220              		.cfi_remember_state
 5221              		.cfi_restore 5
 5222              		.cfi_restore 4
 5223              		.cfi_def_cfa_offset 0
 5224              	.LVL406:
1931:Drivers/STM32F4xx_HAL_Driver/Src/stm32f4xx_ll_usb.c **** 
ARM GAS  /tmp/ccDzXOxq.s 			page 153


 5225              		.loc 1 1931 1 view .LVU1787
 5226 00bc 7047     		bx	lr
 5227              	.LVL407:
 5228              	.L424:
 5229              	.LCFI72:
 5230              		.cfi_restore_state
1926:Drivers/STM32F4xx_HAL_Driver/Src/stm32f4xx_ll_usb.c ****     }
 5231              		.loc 1 1926 7 is_stmt 1 view .LVU1788
1926:Drivers/STM32F4xx_HAL_Driver/Src/stm32f4xx_ll_usb.c ****     }
 5232              		.loc 1 1926 30 is_stmt 0 view .LVU1789
 5233 00be 43F00043 		orr	r3, r3, #-2147483648
1931:Drivers/STM32F4xx_HAL_Driver/Src/stm32f4xx_ll_usb.c **** 
 5234              		.loc 1 1931 1 view .LVU1790
 5235 00c2 0020     		movs	r0, #0
 5236              	.LVL408:
1931:Drivers/STM32F4xx_HAL_Driver/Src/stm32f4xx_ll_usb.c **** 
 5237              		.loc 1 1931 1 view .LVU1791
 5238 00c4 30BC     		pop	{r4, r5}
 5239              	.LCFI73:
 5240              		.cfi_restore 5
 5241              		.cfi_restore 4
 5242              		.cfi_def_cfa_offset 0
 5243              	.LVL409:
1926:Drivers/STM32F4xx_HAL_Driver/Src/stm32f4xx_ll_usb.c ****     }
 5244              		.loc 1 1926 30 view .LVU1792
 5245 00c6 C1F80035 		str	r3, [r1, #1280]
1931:Drivers/STM32F4xx_HAL_Driver/Src/stm32f4xx_ll_usb.c **** 
 5246              		.loc 1 1931 1 view .LVU1793
 5247 00ca 7047     		bx	lr
 5248              		.cfi_endproc
 5249              	.LFE173:
 5251              		.section	.text.USB_DoPing,"ax",%progbits
 5252              		.align	1
 5253              		.p2align 2,,3
 5254              		.global	USB_DoPing
 5255              		.syntax unified
 5256              		.thumb
 5257              		.thumb_func
 5258              		.fpu fpv4-sp-d16
 5260              	USB_DoPing:
 5261              	.LVL410:
 5262              	.LFB174:
1941:Drivers/STM32F4xx_HAL_Driver/Src/stm32f4xx_ll_usb.c ****   uint32_t USBx_BASE = (uint32_t)USBx;
 5263              		.loc 1 1941 1 is_stmt 1 view -0
 5264              		.cfi_startproc
 5265              		@ args = 0, pretend = 0, frame = 0
 5266              		@ frame_needed = 0, uses_anonymous_args = 0
 5267              		@ link register save eliminated.
1942:Drivers/STM32F4xx_HAL_Driver/Src/stm32f4xx_ll_usb.c ****   uint32_t chnum = (uint32_t)ch_num;
 5268              		.loc 1 1942 3 view .LVU1795
1943:Drivers/STM32F4xx_HAL_Driver/Src/stm32f4xx_ll_usb.c ****   uint32_t num_packets = 1U;
 5269              		.loc 1 1943 3 view .LVU1796
1944:Drivers/STM32F4xx_HAL_Driver/Src/stm32f4xx_ll_usb.c ****   uint32_t tmpreg;
 5270              		.loc 1 1944 3 view .LVU1797
1945:Drivers/STM32F4xx_HAL_Driver/Src/stm32f4xx_ll_usb.c **** 
 5271              		.loc 1 1945 3 view .LVU1798
1947:Drivers/STM32F4xx_HAL_Driver/Src/stm32f4xx_ll_usb.c ****                            USB_OTG_HCTSIZ_DOPING;
ARM GAS  /tmp/ccDzXOxq.s 			page 154


 5272              		.loc 1 1947 3 view .LVU1799
 5273 0000 00EB4111 		add	r1, r0, r1, lsl #5
 5274              	.LVL411:
1947:Drivers/STM32F4xx_HAL_Driver/Src/stm32f4xx_ll_usb.c ****                            USB_OTG_HCTSIZ_DOPING;
 5275              		.loc 1 1947 26 is_stmt 0 view .LVU1800
 5276 0004 064A     		ldr	r2, .L440
 5277 0006 C1F81025 		str	r2, [r1, #1296]
1951:Drivers/STM32F4xx_HAL_Driver/Src/stm32f4xx_ll_usb.c ****   tmpreg &= ~USB_OTG_HCCHAR_CHDIS;
 5278              		.loc 1 1951 3 is_stmt 1 view .LVU1801
1951:Drivers/STM32F4xx_HAL_Driver/Src/stm32f4xx_ll_usb.c ****   tmpreg &= ~USB_OTG_HCCHAR_CHDIS;
 5279              		.loc 1 1951 10 is_stmt 0 view .LVU1802
 5280 000a D1F80035 		ldr	r3, [r1, #1280]
 5281              	.LVL412:
1952:Drivers/STM32F4xx_HAL_Driver/Src/stm32f4xx_ll_usb.c ****   tmpreg |= USB_OTG_HCCHAR_CHENA;
 5282              		.loc 1 1952 3 is_stmt 1 view .LVU1803
1952:Drivers/STM32F4xx_HAL_Driver/Src/stm32f4xx_ll_usb.c ****   tmpreg |= USB_OTG_HCCHAR_CHENA;
 5283              		.loc 1 1952 10 is_stmt 0 view .LVU1804
 5284 000e 23F08043 		bic	r3, r3, #1073741824
 5285              	.LVL413:
1953:Drivers/STM32F4xx_HAL_Driver/Src/stm32f4xx_ll_usb.c ****   USBx_HC(chnum)->HCCHAR = tmpreg;
 5286              		.loc 1 1953 3 is_stmt 1 view .LVU1805
1953:Drivers/STM32F4xx_HAL_Driver/Src/stm32f4xx_ll_usb.c ****   USBx_HC(chnum)->HCCHAR = tmpreg;
 5287              		.loc 1 1953 10 is_stmt 0 view .LVU1806
 5288 0012 43F00043 		orr	r3, r3, #-2147483648
 5289              	.LVL414:
1954:Drivers/STM32F4xx_HAL_Driver/Src/stm32f4xx_ll_usb.c **** 
 5290              		.loc 1 1954 3 is_stmt 1 view .LVU1807
1954:Drivers/STM32F4xx_HAL_Driver/Src/stm32f4xx_ll_usb.c **** 
 5291              		.loc 1 1954 26 is_stmt 0 view .LVU1808
 5292 0016 C1F80035 		str	r3, [r1, #1280]
 5293              		.loc 1 1956 3 is_stmt 1 view .LVU1809
1957:Drivers/STM32F4xx_HAL_Driver/Src/stm32f4xx_ll_usb.c **** }
 5294              		.loc 1 1957 1 is_stmt 0 view .LVU1810
 5295 001a 0020     		movs	r0, #0
 5296              	.LVL415:
 5297              		.loc 1 1957 1 view .LVU1811
 5298 001c 7047     		bx	lr
 5299              	.L441:
 5300 001e 00BF     		.align	2
 5301              	.L440:
 5302 0020 00000880 		.word	-2146959360
 5303              		.cfi_endproc
 5304              	.LFE174:
 5306              		.section	.text.USB_StopHost,"ax",%progbits
 5307              		.align	1
 5308              		.p2align 2,,3
 5309              		.global	USB_StopHost
 5310              		.syntax unified
 5311              		.thumb
 5312              		.thumb_func
 5313              		.fpu fpv4-sp-d16
 5315              	USB_StopHost:
 5316              	.LVL416:
 5317              	.LFB175:
1958:Drivers/STM32F4xx_HAL_Driver/Src/stm32f4xx_ll_usb.c **** 
1959:Drivers/STM32F4xx_HAL_Driver/Src/stm32f4xx_ll_usb.c **** /**
1960:Drivers/STM32F4xx_HAL_Driver/Src/stm32f4xx_ll_usb.c ****   * @brief  Stop Host Core
ARM GAS  /tmp/ccDzXOxq.s 			page 155


1961:Drivers/STM32F4xx_HAL_Driver/Src/stm32f4xx_ll_usb.c ****   * @param  USBx  Selected device
1962:Drivers/STM32F4xx_HAL_Driver/Src/stm32f4xx_ll_usb.c ****   * @retval HAL state
1963:Drivers/STM32F4xx_HAL_Driver/Src/stm32f4xx_ll_usb.c ****   */
1964:Drivers/STM32F4xx_HAL_Driver/Src/stm32f4xx_ll_usb.c **** HAL_StatusTypeDef USB_StopHost(USB_OTG_GlobalTypeDef *USBx)
1965:Drivers/STM32F4xx_HAL_Driver/Src/stm32f4xx_ll_usb.c **** {
 5318              		.loc 1 1965 1 is_stmt 1 view -0
 5319              		.cfi_startproc
 5320              		@ args = 0, pretend = 0, frame = 0
 5321              		@ frame_needed = 0, uses_anonymous_args = 0
 5322              		@ link register save eliminated.
1966:Drivers/STM32F4xx_HAL_Driver/Src/stm32f4xx_ll_usb.c ****   uint32_t USBx_BASE = (uint32_t)USBx;
 5323              		.loc 1 1966 3 view .LVU1813
1967:Drivers/STM32F4xx_HAL_Driver/Src/stm32f4xx_ll_usb.c ****   uint32_t count = 0U;
 5324              		.loc 1 1967 3 view .LVU1814
1968:Drivers/STM32F4xx_HAL_Driver/Src/stm32f4xx_ll_usb.c ****   uint32_t value;
 5325              		.loc 1 1968 3 view .LVU1815
1969:Drivers/STM32F4xx_HAL_Driver/Src/stm32f4xx_ll_usb.c ****   uint32_t i;
 5326              		.loc 1 1969 3 view .LVU1816
1970:Drivers/STM32F4xx_HAL_Driver/Src/stm32f4xx_ll_usb.c **** 
1971:Drivers/STM32F4xx_HAL_Driver/Src/stm32f4xx_ll_usb.c ****   (void)USB_DisableGlobalInt(USBx);
 5327              		.loc 1 1971 3 view .LVU1817
 5328              	.LBB82:
 5329              	.LBI82:
 233:Drivers/STM32F4xx_HAL_Driver/Src/stm32f4xx_ll_usb.c **** {
 5330              		.loc 1 233 19 view .LVU1818
 5331              	.LBB83:
 235:Drivers/STM32F4xx_HAL_Driver/Src/stm32f4xx_ll_usb.c ****   return HAL_OK;
 5332              		.loc 1 235 3 view .LVU1819
 235:Drivers/STM32F4xx_HAL_Driver/Src/stm32f4xx_ll_usb.c ****   return HAL_OK;
 5333              		.loc 1 235 17 is_stmt 0 view .LVU1820
 5334 0000 8268     		ldr	r2, [r0, #8]
 5335              	.LBE83:
 5336              	.LBE82:
 5337              	.LBB86:
 5338              	.LBB87:
 457:Drivers/STM32F4xx_HAL_Driver/Src/stm32f4xx_ll_usb.c **** 
 5339              		.loc 1 457 17 view .LVU1821
 5340 0002 224B     		ldr	r3, .L467
 5341 0004 4FF48461 		mov	r1, #1056
 5342              	.LBE87:
 5343              	.LBE86:
 5344              	.LBB89:
 5345              	.LBB84:
 235:Drivers/STM32F4xx_HAL_Driver/Src/stm32f4xx_ll_usb.c ****   return HAL_OK;
 5346              		.loc 1 235 17 view .LVU1822
 5347 0008 22F00102 		bic	r2, r2, #1
 5348              	.LBE84:
 5349              	.LBE89:
1965:Drivers/STM32F4xx_HAL_Driver/Src/stm32f4xx_ll_usb.c ****   uint32_t USBx_BASE = (uint32_t)USBx;
 5350              		.loc 1 1965 1 view .LVU1823
 5351 000c 10B4     		push	{r4}
 5352              	.LCFI74:
 5353              		.cfi_def_cfa_offset 4
 5354              		.cfi_offset 4, -4
 5355              	.LBB90:
 5356              	.LBB85:
 235:Drivers/STM32F4xx_HAL_Driver/Src/stm32f4xx_ll_usb.c ****   return HAL_OK;
ARM GAS  /tmp/ccDzXOxq.s 			page 156


 5357              		.loc 1 235 17 view .LVU1824
 5358 000e 8260     		str	r2, [r0, #8]
 236:Drivers/STM32F4xx_HAL_Driver/Src/stm32f4xx_ll_usb.c **** }
 5359              		.loc 1 236 3 is_stmt 1 view .LVU1825
 5360              	.LVL417:
 236:Drivers/STM32F4xx_HAL_Driver/Src/stm32f4xx_ll_usb.c **** }
 5361              		.loc 1 236 3 is_stmt 0 view .LVU1826
 5362              	.LBE85:
 5363              	.LBE90:
1972:Drivers/STM32F4xx_HAL_Driver/Src/stm32f4xx_ll_usb.c **** 
1973:Drivers/STM32F4xx_HAL_Driver/Src/stm32f4xx_ll_usb.c ****   /* Flush FIFO */
1974:Drivers/STM32F4xx_HAL_Driver/Src/stm32f4xx_ll_usb.c ****   (void)USB_FlushTxFifo(USBx, 0x10U);
 5364              		.loc 1 1974 3 is_stmt 1 view .LVU1827
 5365              	.LBB91:
 5366              	.LBI86:
 453:Drivers/STM32F4xx_HAL_Driver/Src/stm32f4xx_ll_usb.c **** {
 5367              		.loc 1 453 19 view .LVU1828
 5368              	.LBB88:
 455:Drivers/STM32F4xx_HAL_Driver/Src/stm32f4xx_ll_usb.c **** 
 5369              		.loc 1 455 3 view .LVU1829
 457:Drivers/STM32F4xx_HAL_Driver/Src/stm32f4xx_ll_usb.c **** 
 5370              		.loc 1 457 3 view .LVU1830
 457:Drivers/STM32F4xx_HAL_Driver/Src/stm32f4xx_ll_usb.c **** 
 5371              		.loc 1 457 17 is_stmt 0 view .LVU1831
 5372 0010 0161     		str	r1, [r0, #16]
 459:Drivers/STM32F4xx_HAL_Driver/Src/stm32f4xx_ll_usb.c ****   {
 5373              		.loc 1 459 3 is_stmt 1 view .LVU1832
 461:Drivers/STM32F4xx_HAL_Driver/Src/stm32f4xx_ll_usb.c ****     {
 5374              		.loc 1 461 5 view .LVU1833
 5375              	.LVL418:
 461:Drivers/STM32F4xx_HAL_Driver/Src/stm32f4xx_ll_usb.c ****     {
 5376              		.loc 1 461 5 is_stmt 0 view .LVU1834
 5377 0012 01E0     		b	.L443
 5378              	.LVL419:
 5379              	.L445:
 461:Drivers/STM32F4xx_HAL_Driver/Src/stm32f4xx_ll_usb.c ****     {
 5380              		.loc 1 461 8 view .LVU1835
 5381 0014 013B     		subs	r3, r3, #1
 5382              	.LVL420:
 461:Drivers/STM32F4xx_HAL_Driver/Src/stm32f4xx_ll_usb.c ****     {
 5383              		.loc 1 461 8 view .LVU1836
 5384 0016 02D0     		beq	.L444
 5385              	.LVL421:
 5386              	.L443:
 459:Drivers/STM32F4xx_HAL_Driver/Src/stm32f4xx_ll_usb.c ****   {
 5387              		.loc 1 459 3 is_stmt 1 view .LVU1837
 461:Drivers/STM32F4xx_HAL_Driver/Src/stm32f4xx_ll_usb.c ****     {
 5388              		.loc 1 461 5 view .LVU1838
 465:Drivers/STM32F4xx_HAL_Driver/Src/stm32f4xx_ll_usb.c **** 
 5389              		.loc 1 465 11 view .LVU1839
 465:Drivers/STM32F4xx_HAL_Driver/Src/stm32f4xx_ll_usb.c **** 
 5390              		.loc 1 465 17 is_stmt 0 view .LVU1840
 5391 0018 0269     		ldr	r2, [r0, #16]
 465:Drivers/STM32F4xx_HAL_Driver/Src/stm32f4xx_ll_usb.c **** 
 5392              		.loc 1 465 3 view .LVU1841
 5393 001a 9106     		lsls	r1, r2, #26
 5394 001c FAD4     		bmi	.L445
ARM GAS  /tmp/ccDzXOxq.s 			page 157


 5395              	.LVL422:
 5396              	.L444:
 465:Drivers/STM32F4xx_HAL_Driver/Src/stm32f4xx_ll_usb.c **** 
 5397              		.loc 1 465 3 view .LVU1842
 5398              	.LBE88:
 5399              	.LBE91:
1975:Drivers/STM32F4xx_HAL_Driver/Src/stm32f4xx_ll_usb.c ****   (void)USB_FlushRxFifo(USBx);
 5400              		.loc 1 1975 3 is_stmt 1 view .LVU1843
 5401              	.LBB92:
 5402              	.LBI92:
 475:Drivers/STM32F4xx_HAL_Driver/Src/stm32f4xx_ll_usb.c **** {
 5403              		.loc 1 475 19 view .LVU1844
 5404              	.LBB93:
 477:Drivers/STM32F4xx_HAL_Driver/Src/stm32f4xx_ll_usb.c **** 
 5405              		.loc 1 477 3 view .LVU1845
 479:Drivers/STM32F4xx_HAL_Driver/Src/stm32f4xx_ll_usb.c **** 
 5406              		.loc 1 479 3 view .LVU1846
 479:Drivers/STM32F4xx_HAL_Driver/Src/stm32f4xx_ll_usb.c **** 
 5407              		.loc 1 479 17 is_stmt 0 view .LVU1847
 5408 001e 1023     		movs	r3, #16
 5409 0020 0361     		str	r3, [r0, #16]
 481:Drivers/STM32F4xx_HAL_Driver/Src/stm32f4xx_ll_usb.c ****   {
 5410              		.loc 1 481 3 is_stmt 1 view .LVU1848
 483:Drivers/STM32F4xx_HAL_Driver/Src/stm32f4xx_ll_usb.c ****     {
 5411              		.loc 1 483 5 view .LVU1849
 5412              	.LVL423:
 479:Drivers/STM32F4xx_HAL_Driver/Src/stm32f4xx_ll_usb.c **** 
 5413              		.loc 1 479 17 is_stmt 0 view .LVU1850
 5414 0022 1A4B     		ldr	r3, .L467
 5415 0024 01E0     		b	.L446
 5416              	.LVL424:
 5417              	.L448:
 483:Drivers/STM32F4xx_HAL_Driver/Src/stm32f4xx_ll_usb.c ****     {
 5418              		.loc 1 483 8 view .LVU1851
 5419 0026 013B     		subs	r3, r3, #1
 5420              	.LVL425:
 483:Drivers/STM32F4xx_HAL_Driver/Src/stm32f4xx_ll_usb.c ****     {
 5421              		.loc 1 483 8 view .LVU1852
 5422 0028 02D0     		beq	.L447
 5423              	.LVL426:
 5424              	.L446:
 481:Drivers/STM32F4xx_HAL_Driver/Src/stm32f4xx_ll_usb.c ****   {
 5425              		.loc 1 481 3 is_stmt 1 view .LVU1853
 483:Drivers/STM32F4xx_HAL_Driver/Src/stm32f4xx_ll_usb.c ****     {
 5426              		.loc 1 483 5 view .LVU1854
 487:Drivers/STM32F4xx_HAL_Driver/Src/stm32f4xx_ll_usb.c **** 
 5427              		.loc 1 487 11 view .LVU1855
 487:Drivers/STM32F4xx_HAL_Driver/Src/stm32f4xx_ll_usb.c **** 
 5428              		.loc 1 487 17 is_stmt 0 view .LVU1856
 5429 002a 0269     		ldr	r2, [r0, #16]
 487:Drivers/STM32F4xx_HAL_Driver/Src/stm32f4xx_ll_usb.c **** 
 5430              		.loc 1 487 3 view .LVU1857
 5431 002c D206     		lsls	r2, r2, #27
 5432 002e FAD4     		bmi	.L448
 5433              	.LVL427:
 5434              	.L447:
 487:Drivers/STM32F4xx_HAL_Driver/Src/stm32f4xx_ll_usb.c **** 
ARM GAS  /tmp/ccDzXOxq.s 			page 158


 5435              		.loc 1 487 3 view .LVU1858
 5436 0030 00F5A061 		add	r1, r0, #1280
 479:Drivers/STM32F4xx_HAL_Driver/Src/stm32f4xx_ll_usb.c **** 
 5437              		.loc 1 479 17 discriminator 3 view .LVU1859
 5438 0034 0A46     		mov	r2, r1
 5439 0036 00F5E064 		add	r4, r0, #1792
 5440              	.LVL428:
 5441              	.L449:
 479:Drivers/STM32F4xx_HAL_Driver/Src/stm32f4xx_ll_usb.c **** 
 5442              		.loc 1 479 17 discriminator 3 view .LVU1860
 5443              	.LBE93:
 5444              	.LBE92:
1976:Drivers/STM32F4xx_HAL_Driver/Src/stm32f4xx_ll_usb.c **** 
1977:Drivers/STM32F4xx_HAL_Driver/Src/stm32f4xx_ll_usb.c ****   /* Flush out any leftover queued requests. */
1978:Drivers/STM32F4xx_HAL_Driver/Src/stm32f4xx_ll_usb.c ****   for (i = 0U; i <= 15U; i++)
1979:Drivers/STM32F4xx_HAL_Driver/Src/stm32f4xx_ll_usb.c ****   {
1980:Drivers/STM32F4xx_HAL_Driver/Src/stm32f4xx_ll_usb.c ****     value = USBx_HC(i)->HCCHAR;
 5445              		.loc 1 1980 5 is_stmt 1 discriminator 3 view .LVU1861
 5446              		.loc 1 1980 11 is_stmt 0 discriminator 3 view .LVU1862
 5447 003a 1368     		ldr	r3, [r2]
 5448              	.LVL429:
1981:Drivers/STM32F4xx_HAL_Driver/Src/stm32f4xx_ll_usb.c ****     value |=  USB_OTG_HCCHAR_CHDIS;
 5449              		.loc 1 1981 5 is_stmt 1 discriminator 3 view .LVU1863
1982:Drivers/STM32F4xx_HAL_Driver/Src/stm32f4xx_ll_usb.c ****     value &= ~USB_OTG_HCCHAR_CHENA;
 5450              		.loc 1 1982 5 discriminator 3 view .LVU1864
1983:Drivers/STM32F4xx_HAL_Driver/Src/stm32f4xx_ll_usb.c ****     value &= ~USB_OTG_HCCHAR_EPDIR;
 5451              		.loc 1 1983 5 discriminator 3 view .LVU1865
 5452 003c 23F08023 		bic	r3, r3, #-2147450880
 5453              	.LVL430:
 5454              		.loc 1 1983 11 is_stmt 0 discriminator 3 view .LVU1866
 5455 0040 43F08043 		orr	r3, r3, #1073741824
 5456              	.LVL431:
1984:Drivers/STM32F4xx_HAL_Driver/Src/stm32f4xx_ll_usb.c ****     USBx_HC(i)->HCCHAR = value;
 5457              		.loc 1 1984 5 is_stmt 1 discriminator 3 view .LVU1867
 5458              		.loc 1 1984 24 is_stmt 0 discriminator 3 view .LVU1868
 5459 0044 42F8203B 		str	r3, [r2], #32
1978:Drivers/STM32F4xx_HAL_Driver/Src/stm32f4xx_ll_usb.c ****   {
 5460              		.loc 1 1978 26 is_stmt 1 discriminator 3 view .LVU1869
1978:Drivers/STM32F4xx_HAL_Driver/Src/stm32f4xx_ll_usb.c ****   {
 5461              		.loc 1 1978 16 discriminator 3 view .LVU1870
1978:Drivers/STM32F4xx_HAL_Driver/Src/stm32f4xx_ll_usb.c ****   {
 5462              		.loc 1 1978 3 is_stmt 0 discriminator 3 view .LVU1871
 5463 0048 A242     		cmp	r2, r4
 5464 004a F6D1     		bne	.L449
1967:Drivers/STM32F4xx_HAL_Driver/Src/stm32f4xx_ll_usb.c ****   uint32_t value;
 5465              		.loc 1 1967 12 view .LVU1872
 5466 004c 0023     		movs	r3, #0
 5467              	.LVL432:
 5468              	.L452:
1985:Drivers/STM32F4xx_HAL_Driver/Src/stm32f4xx_ll_usb.c ****   }
1986:Drivers/STM32F4xx_HAL_Driver/Src/stm32f4xx_ll_usb.c **** 
1987:Drivers/STM32F4xx_HAL_Driver/Src/stm32f4xx_ll_usb.c ****   /* Halt all channels to put them into a known state. */
1988:Drivers/STM32F4xx_HAL_Driver/Src/stm32f4xx_ll_usb.c ****   for (i = 0U; i <= 15U; i++)
1989:Drivers/STM32F4xx_HAL_Driver/Src/stm32f4xx_ll_usb.c ****   {
1990:Drivers/STM32F4xx_HAL_Driver/Src/stm32f4xx_ll_usb.c ****     value = USBx_HC(i)->HCCHAR;
 5469              		.loc 1 1990 5 is_stmt 1 view .LVU1873
 5470              		.loc 1 1990 11 is_stmt 0 view .LVU1874
ARM GAS  /tmp/ccDzXOxq.s 			page 159


 5471 004e 0A68     		ldr	r2, [r1]
 5472              	.LVL433:
1991:Drivers/STM32F4xx_HAL_Driver/Src/stm32f4xx_ll_usb.c ****     value |= USB_OTG_HCCHAR_CHDIS;
 5473              		.loc 1 1991 5 is_stmt 1 view .LVU1875
1992:Drivers/STM32F4xx_HAL_Driver/Src/stm32f4xx_ll_usb.c ****     value |= USB_OTG_HCCHAR_CHENA;
 5474              		.loc 1 1992 5 view .LVU1876
1993:Drivers/STM32F4xx_HAL_Driver/Src/stm32f4xx_ll_usb.c ****     value &= ~USB_OTG_HCCHAR_EPDIR;
 5475              		.loc 1 1993 5 view .LVU1877
 5476 0050 22F40042 		bic	r2, r2, #32768
 5477              	.LVL434:
 5478              		.loc 1 1993 11 is_stmt 0 view .LVU1878
 5479 0054 42F04042 		orr	r2, r2, #-1073741824
 5480              	.LVL435:
1994:Drivers/STM32F4xx_HAL_Driver/Src/stm32f4xx_ll_usb.c ****     USBx_HC(i)->HCCHAR = value;
 5481              		.loc 1 1994 5 is_stmt 1 view .LVU1879
 5482              		.loc 1 1994 24 is_stmt 0 view .LVU1880
 5483 0058 0A60     		str	r2, [r1]
 5484 005a 02E0     		b	.L451
 5485              	.LVL436:
 5486              	.L466:
1995:Drivers/STM32F4xx_HAL_Driver/Src/stm32f4xx_ll_usb.c **** 
1996:Drivers/STM32F4xx_HAL_Driver/Src/stm32f4xx_ll_usb.c ****     do
1997:Drivers/STM32F4xx_HAL_Driver/Src/stm32f4xx_ll_usb.c ****     {
1998:Drivers/STM32F4xx_HAL_Driver/Src/stm32f4xx_ll_usb.c ****       if (++count > 1000U)
1999:Drivers/STM32F4xx_HAL_Driver/Src/stm32f4xx_ll_usb.c ****       {
2000:Drivers/STM32F4xx_HAL_Driver/Src/stm32f4xx_ll_usb.c ****         break;
2001:Drivers/STM32F4xx_HAL_Driver/Src/stm32f4xx_ll_usb.c ****       }
2002:Drivers/STM32F4xx_HAL_Driver/Src/stm32f4xx_ll_usb.c ****     } while ((USBx_HC(i)->HCCHAR & USB_OTG_HCCHAR_CHENA) == USB_OTG_HCCHAR_CHENA);
 5487              		.loc 1 2002 25 view .LVU1881
 5488 005c 0A68     		ldr	r2, [r1]
 5489              		.loc 1 2002 5 view .LVU1882
 5490 005e 002A     		cmp	r2, #0
 5491 0060 03DA     		bge	.L450
 5492              	.L451:
1996:Drivers/STM32F4xx_HAL_Driver/Src/stm32f4xx_ll_usb.c ****     {
 5493              		.loc 1 1996 5 is_stmt 1 view .LVU1883
1998:Drivers/STM32F4xx_HAL_Driver/Src/stm32f4xx_ll_usb.c ****       {
 5494              		.loc 1 1998 7 view .LVU1884
 5495              		.loc 1 2002 13 view .LVU1885
1998:Drivers/STM32F4xx_HAL_Driver/Src/stm32f4xx_ll_usb.c ****       {
 5496              		.loc 1 1998 10 is_stmt 0 view .LVU1886
 5497 0062 0133     		adds	r3, r3, #1
 5498              	.LVL437:
1998:Drivers/STM32F4xx_HAL_Driver/Src/stm32f4xx_ll_usb.c ****       {
 5499              		.loc 1 1998 10 view .LVU1887
 5500 0064 B3F57A7F 		cmp	r3, #1000
 5501 0068 F8D9     		bls	.L466
 5502              	.L450:
1988:Drivers/STM32F4xx_HAL_Driver/Src/stm32f4xx_ll_usb.c ****   {
 5503              		.loc 1 1988 26 is_stmt 1 discriminator 2 view .LVU1888
1988:Drivers/STM32F4xx_HAL_Driver/Src/stm32f4xx_ll_usb.c ****   {
 5504              		.loc 1 1988 16 discriminator 2 view .LVU1889
 5505 006a 2031     		adds	r1, r1, #32
 5506              	.LVL438:
1988:Drivers/STM32F4xx_HAL_Driver/Src/stm32f4xx_ll_usb.c ****   {
 5507              		.loc 1 1988 3 is_stmt 0 discriminator 2 view .LVU1890
 5508 006c A142     		cmp	r1, r4
ARM GAS  /tmp/ccDzXOxq.s 			page 160


 5509 006e EED1     		bne	.L452
2003:Drivers/STM32F4xx_HAL_Driver/Src/stm32f4xx_ll_usb.c ****   }
2004:Drivers/STM32F4xx_HAL_Driver/Src/stm32f4xx_ll_usb.c **** 
2005:Drivers/STM32F4xx_HAL_Driver/Src/stm32f4xx_ll_usb.c ****   /* Clear any pending Host interrupts */
2006:Drivers/STM32F4xx_HAL_Driver/Src/stm32f4xx_ll_usb.c ****   USBx_HOST->HAINT = 0xFFFFFFFFU;
 5510              		.loc 1 2006 3 is_stmt 1 view .LVU1891
 5511              		.loc 1 2006 20 is_stmt 0 view .LVU1892
 5512 0070 4FF0FF33 		mov	r3, #-1
 5513              	.LVL439:
 5514              		.loc 1 2006 20 view .LVU1893
 5515 0074 C0F81434 		str	r3, [r0, #1044]
 5516              	.LVL440:
2007:Drivers/STM32F4xx_HAL_Driver/Src/stm32f4xx_ll_usb.c ****   USBx->GINTSTS = 0xFFFFFFFFU;
 5517              		.loc 1 2007 3 is_stmt 1 view .LVU1894
 5518              		.loc 1 2007 17 is_stmt 0 view .LVU1895
 5519 0078 4361     		str	r3, [r0, #20]
2008:Drivers/STM32F4xx_HAL_Driver/Src/stm32f4xx_ll_usb.c **** 
2009:Drivers/STM32F4xx_HAL_Driver/Src/stm32f4xx_ll_usb.c ****   (void)USB_EnableGlobalInt(USBx);
 5520              		.loc 1 2009 3 is_stmt 1 view .LVU1896
 5521              	.LVL441:
 5522              	.LBB94:
 5523              	.LBI94:
 221:Drivers/STM32F4xx_HAL_Driver/Src/stm32f4xx_ll_usb.c **** {
 5524              		.loc 1 221 19 view .LVU1897
 5525              	.LBB95:
 223:Drivers/STM32F4xx_HAL_Driver/Src/stm32f4xx_ll_usb.c ****   return HAL_OK;
 5526              		.loc 1 223 3 view .LVU1898
 223:Drivers/STM32F4xx_HAL_Driver/Src/stm32f4xx_ll_usb.c ****   return HAL_OK;
 5527              		.loc 1 223 17 is_stmt 0 view .LVU1899
 5528 007a 8368     		ldr	r3, [r0, #8]
 5529              	.LBE95:
 5530              	.LBE94:
2010:Drivers/STM32F4xx_HAL_Driver/Src/stm32f4xx_ll_usb.c **** 
2011:Drivers/STM32F4xx_HAL_Driver/Src/stm32f4xx_ll_usb.c ****   return HAL_OK;
2012:Drivers/STM32F4xx_HAL_Driver/Src/stm32f4xx_ll_usb.c **** }
 5531              		.loc 1 2012 1 view .LVU1900
 5532 007c 5DF8044B 		ldr	r4, [sp], #4
 5533              	.LCFI75:
 5534              		.cfi_restore 4
 5535              		.cfi_def_cfa_offset 0
 5536              	.LBB97:
 5537              	.LBB96:
 223:Drivers/STM32F4xx_HAL_Driver/Src/stm32f4xx_ll_usb.c ****   return HAL_OK;
 5538              		.loc 1 223 17 view .LVU1901
 5539 0080 43F00103 		orr	r3, r3, #1
 5540 0084 8360     		str	r3, [r0, #8]
 224:Drivers/STM32F4xx_HAL_Driver/Src/stm32f4xx_ll_usb.c **** }
 5541              		.loc 1 224 3 is_stmt 1 view .LVU1902
 5542              	.LVL442:
 224:Drivers/STM32F4xx_HAL_Driver/Src/stm32f4xx_ll_usb.c **** }
 5543              		.loc 1 224 3 is_stmt 0 view .LVU1903
 5544              	.LBE96:
 5545              	.LBE97:
2011:Drivers/STM32F4xx_HAL_Driver/Src/stm32f4xx_ll_usb.c **** }
 5546              		.loc 1 2011 3 is_stmt 1 view .LVU1904
 5547              		.loc 1 2012 1 is_stmt 0 view .LVU1905
 5548 0086 0020     		movs	r0, #0
ARM GAS  /tmp/ccDzXOxq.s 			page 161


 5549              	.LVL443:
 5550              		.loc 1 2012 1 view .LVU1906
 5551 0088 7047     		bx	lr
 5552              	.L468:
 5553 008a 00BF     		.align	2
 5554              	.L467:
 5555 008c 400D0300 		.word	200000
 5556              		.cfi_endproc
 5557              	.LFE175:
 5559              		.section	.text.USB_ActivateRemoteWakeup,"ax",%progbits
 5560              		.align	1
 5561              		.p2align 2,,3
 5562              		.global	USB_ActivateRemoteWakeup
 5563              		.syntax unified
 5564              		.thumb
 5565              		.thumb_func
 5566              		.fpu fpv4-sp-d16
 5568              	USB_ActivateRemoteWakeup:
 5569              	.LVL444:
 5570              	.LFB176:
2013:Drivers/STM32F4xx_HAL_Driver/Src/stm32f4xx_ll_usb.c **** 
2014:Drivers/STM32F4xx_HAL_Driver/Src/stm32f4xx_ll_usb.c **** /**
2015:Drivers/STM32F4xx_HAL_Driver/Src/stm32f4xx_ll_usb.c ****   * @brief  USB_ActivateRemoteWakeup active remote wakeup signalling
2016:Drivers/STM32F4xx_HAL_Driver/Src/stm32f4xx_ll_usb.c ****   * @param  USBx Selected device
2017:Drivers/STM32F4xx_HAL_Driver/Src/stm32f4xx_ll_usb.c ****   * @retval HAL status
2018:Drivers/STM32F4xx_HAL_Driver/Src/stm32f4xx_ll_usb.c ****   */
2019:Drivers/STM32F4xx_HAL_Driver/Src/stm32f4xx_ll_usb.c **** HAL_StatusTypeDef USB_ActivateRemoteWakeup(USB_OTG_GlobalTypeDef *USBx)
2020:Drivers/STM32F4xx_HAL_Driver/Src/stm32f4xx_ll_usb.c **** {
 5571              		.loc 1 2020 1 is_stmt 1 view -0
 5572              		.cfi_startproc
 5573              		@ args = 0, pretend = 0, frame = 0
 5574              		@ frame_needed = 0, uses_anonymous_args = 0
 5575              		@ link register save eliminated.
2021:Drivers/STM32F4xx_HAL_Driver/Src/stm32f4xx_ll_usb.c ****   uint32_t USBx_BASE = (uint32_t)USBx;
 5576              		.loc 1 2021 3 view .LVU1908
2022:Drivers/STM32F4xx_HAL_Driver/Src/stm32f4xx_ll_usb.c **** 
2023:Drivers/STM32F4xx_HAL_Driver/Src/stm32f4xx_ll_usb.c ****   if ((USBx_DEVICE->DSTS & USB_OTG_DSTS_SUSPSTS) == USB_OTG_DSTS_SUSPSTS)
 5577              		.loc 1 2023 3 view .LVU1909
 5578              		.loc 1 2023 19 is_stmt 0 view .LVU1910
 5579 0000 D0F80838 		ldr	r3, [r0, #2056]
 5580              		.loc 1 2023 6 view .LVU1911
 5581 0004 DB07     		lsls	r3, r3, #31
 5582              		.loc 1 2023 8 view .LVU1912
 5583 0006 00F50060 		add	r0, r0, #2048
 5584              	.LVL445:
 5585              		.loc 1 2023 6 view .LVU1913
 5586 000a 03D5     		bpl	.L470
2024:Drivers/STM32F4xx_HAL_Driver/Src/stm32f4xx_ll_usb.c ****   {
2025:Drivers/STM32F4xx_HAL_Driver/Src/stm32f4xx_ll_usb.c ****     /* active Remote wakeup signalling */
2026:Drivers/STM32F4xx_HAL_Driver/Src/stm32f4xx_ll_usb.c ****     USBx_DEVICE->DCTL |= USB_OTG_DCTL_RWUSIG;
 5587              		.loc 1 2026 5 is_stmt 1 view .LVU1914
 5588              		.loc 1 2026 23 is_stmt 0 view .LVU1915
 5589 000c 4368     		ldr	r3, [r0, #4]
 5590 000e 43F00103 		orr	r3, r3, #1
 5591 0012 4360     		str	r3, [r0, #4]
 5592              	.L470:
2027:Drivers/STM32F4xx_HAL_Driver/Src/stm32f4xx_ll_usb.c ****   }
ARM GAS  /tmp/ccDzXOxq.s 			page 162


2028:Drivers/STM32F4xx_HAL_Driver/Src/stm32f4xx_ll_usb.c **** 
2029:Drivers/STM32F4xx_HAL_Driver/Src/stm32f4xx_ll_usb.c ****   return HAL_OK;
 5593              		.loc 1 2029 3 is_stmt 1 view .LVU1916
2030:Drivers/STM32F4xx_HAL_Driver/Src/stm32f4xx_ll_usb.c **** }
 5594              		.loc 1 2030 1 is_stmt 0 view .LVU1917
 5595 0014 0020     		movs	r0, #0
 5596              	.LVL446:
 5597              		.loc 1 2030 1 view .LVU1918
 5598 0016 7047     		bx	lr
 5599              		.cfi_endproc
 5600              	.LFE176:
 5602              		.section	.text.USB_DeActivateRemoteWakeup,"ax",%progbits
 5603              		.align	1
 5604              		.p2align 2,,3
 5605              		.global	USB_DeActivateRemoteWakeup
 5606              		.syntax unified
 5607              		.thumb
 5608              		.thumb_func
 5609              		.fpu fpv4-sp-d16
 5611              	USB_DeActivateRemoteWakeup:
 5612              	.LVL447:
 5613              	.LFB177:
2031:Drivers/STM32F4xx_HAL_Driver/Src/stm32f4xx_ll_usb.c **** 
2032:Drivers/STM32F4xx_HAL_Driver/Src/stm32f4xx_ll_usb.c **** /**
2033:Drivers/STM32F4xx_HAL_Driver/Src/stm32f4xx_ll_usb.c ****   * @brief  USB_DeActivateRemoteWakeup de-active remote wakeup signalling
2034:Drivers/STM32F4xx_HAL_Driver/Src/stm32f4xx_ll_usb.c ****   * @param  USBx Selected device
2035:Drivers/STM32F4xx_HAL_Driver/Src/stm32f4xx_ll_usb.c ****   * @retval HAL status
2036:Drivers/STM32F4xx_HAL_Driver/Src/stm32f4xx_ll_usb.c ****   */
2037:Drivers/STM32F4xx_HAL_Driver/Src/stm32f4xx_ll_usb.c **** HAL_StatusTypeDef USB_DeActivateRemoteWakeup(USB_OTG_GlobalTypeDef *USBx)
2038:Drivers/STM32F4xx_HAL_Driver/Src/stm32f4xx_ll_usb.c **** {
 5614              		.loc 1 2038 1 is_stmt 1 view -0
 5615              		.cfi_startproc
 5616              		@ args = 0, pretend = 0, frame = 0
 5617              		@ frame_needed = 0, uses_anonymous_args = 0
 5618              		@ link register save eliminated.
2039:Drivers/STM32F4xx_HAL_Driver/Src/stm32f4xx_ll_usb.c ****   uint32_t USBx_BASE = (uint32_t)USBx;
 5619              		.loc 1 2039 3 view .LVU1920
2040:Drivers/STM32F4xx_HAL_Driver/Src/stm32f4xx_ll_usb.c **** 
2041:Drivers/STM32F4xx_HAL_Driver/Src/stm32f4xx_ll_usb.c ****   /* active Remote wakeup signalling */
2042:Drivers/STM32F4xx_HAL_Driver/Src/stm32f4xx_ll_usb.c ****   USBx_DEVICE->DCTL &= ~(USB_OTG_DCTL_RWUSIG);
 5620              		.loc 1 2042 3 view .LVU1921
 5621              		.loc 1 2042 21 is_stmt 0 view .LVU1922
 5622 0000 D0F80428 		ldr	r2, [r0, #2052]
 5623 0004 22F00102 		bic	r2, r2, #1
 5624 0008 00F50063 		add	r3, r0, #2048
2043:Drivers/STM32F4xx_HAL_Driver/Src/stm32f4xx_ll_usb.c **** 
2044:Drivers/STM32F4xx_HAL_Driver/Src/stm32f4xx_ll_usb.c ****   return HAL_OK;
2045:Drivers/STM32F4xx_HAL_Driver/Src/stm32f4xx_ll_usb.c **** }
 5625              		.loc 1 2045 1 view .LVU1923
 5626 000c 0020     		movs	r0, #0
 5627              	.LVL448:
2042:Drivers/STM32F4xx_HAL_Driver/Src/stm32f4xx_ll_usb.c **** 
 5628              		.loc 1 2042 21 view .LVU1924
 5629 000e 5A60     		str	r2, [r3, #4]
2044:Drivers/STM32F4xx_HAL_Driver/Src/stm32f4xx_ll_usb.c **** }
 5630              		.loc 1 2044 3 is_stmt 1 view .LVU1925
 5631              		.loc 1 2045 1 is_stmt 0 view .LVU1926
ARM GAS  /tmp/ccDzXOxq.s 			page 163


 5632 0010 7047     		bx	lr
 5633              		.cfi_endproc
 5634              	.LFE177:
 5636 0012 00BF     		.text
 5637              	.Letext0:
 5638              		.file 2 "/opt/gcc-arm-none-eabi-9-2020-q2-update/arm-none-eabi/include/machine/_default_types.h"
 5639              		.file 3 "/opt/gcc-arm-none-eabi-9-2020-q2-update/arm-none-eabi/include/sys/_stdint.h"
 5640              		.file 4 "Drivers/CMSIS/Include/cmsis_gcc.h"
 5641              		.file 5 "Drivers/CMSIS/Include/core_cm4.h"
 5642              		.file 6 "Drivers/CMSIS/Device/ST/STM32F4xx/Include/system_stm32f4xx.h"
 5643              		.file 7 "Drivers/CMSIS/Device/ST/STM32F4xx/Include/stm32f405xx.h"
 5644              		.file 8 "Drivers/STM32F4xx_HAL_Driver/Inc/stm32f4xx_hal_def.h"
 5645              		.file 9 "Drivers/STM32F4xx_HAL_Driver/Inc/stm32f4xx_ll_usb.h"
 5646              		.file 10 "Drivers/STM32F4xx_HAL_Driver/Inc/stm32f4xx_hal.h"
ARM GAS  /tmp/ccDzXOxq.s 			page 164


DEFINED SYMBOLS
                            *ABS*:0000000000000000 stm32f4xx_ll_usb.c
     /tmp/ccDzXOxq.s:18     .text.USB_CoreReset:0000000000000000 $t
     /tmp/ccDzXOxq.s:26     .text.USB_CoreReset:0000000000000000 USB_CoreReset
     /tmp/ccDzXOxq.s:110    .text.USB_CoreReset:0000000000000030 $d
     /tmp/ccDzXOxq.s:115    .text.USB_CoreInit:0000000000000000 $t
     /tmp/ccDzXOxq.s:123    .text.USB_CoreInit:0000000000000000 USB_CoreInit
     /tmp/ccDzXOxq.s:264    .text.USB_SetTurnaroundTime:0000000000000000 $t
     /tmp/ccDzXOxq.s:272    .text.USB_SetTurnaroundTime:0000000000000000 USB_SetTurnaroundTime
     /tmp/ccDzXOxq.s:454    .text.USB_SetTurnaroundTime:00000000000000b4 $d
     /tmp/ccDzXOxq.s:473    .text.USB_EnableGlobalInt:0000000000000000 $t
     /tmp/ccDzXOxq.s:481    .text.USB_EnableGlobalInt:0000000000000000 USB_EnableGlobalInt
     /tmp/ccDzXOxq.s:506    .text.USB_DisableGlobalInt:0000000000000000 $t
     /tmp/ccDzXOxq.s:514    .text.USB_DisableGlobalInt:0000000000000000 USB_DisableGlobalInt
     /tmp/ccDzXOxq.s:539    .text.USB_SetCurrentMode:0000000000000000 $t
     /tmp/ccDzXOxq.s:547    .text.USB_SetCurrentMode:0000000000000000 USB_SetCurrentMode
     /tmp/ccDzXOxq.s:610    .text.USB_DevInit:0000000000000000 $t
     /tmp/ccDzXOxq.s:618    .text.USB_DevInit:0000000000000000 USB_DevInit
     /tmp/ccDzXOxq.s:1088   .text.USB_DevInit:00000000000001a0 $d
     /tmp/ccDzXOxq.s:1094   .text.USB_FlushTxFifo:0000000000000000 $t
     /tmp/ccDzXOxq.s:1102   .text.USB_FlushTxFifo:0000000000000000 USB_FlushTxFifo
     /tmp/ccDzXOxq.s:1157   .text.USB_FlushTxFifo:0000000000000020 $d
     /tmp/ccDzXOxq.s:1162   .text.USB_FlushRxFifo:0000000000000000 $t
     /tmp/ccDzXOxq.s:1170   .text.USB_FlushRxFifo:0000000000000000 USB_FlushRxFifo
     /tmp/ccDzXOxq.s:1221   .text.USB_FlushRxFifo:000000000000001c $d
     /tmp/ccDzXOxq.s:1226   .text.USB_SetDevSpeed:0000000000000000 $t
     /tmp/ccDzXOxq.s:1234   .text.USB_SetDevSpeed:0000000000000000 USB_SetDevSpeed
     /tmp/ccDzXOxq.s:1260   .text.USB_GetDevSpeed:0000000000000000 $t
     /tmp/ccDzXOxq.s:1268   .text.USB_GetDevSpeed:0000000000000000 USB_GetDevSpeed
     /tmp/ccDzXOxq.s:1306   .text.USB_ActivateEndpoint:0000000000000000 $t
     /tmp/ccDzXOxq.s:1314   .text.USB_ActivateEndpoint:0000000000000000 USB_ActivateEndpoint
     /tmp/ccDzXOxq.s:1452   .text.USB_ActivateDedicatedEndpoint:0000000000000000 $t
     /tmp/ccDzXOxq.s:1460   .text.USB_ActivateDedicatedEndpoint:0000000000000000 USB_ActivateDedicatedEndpoint
     /tmp/ccDzXOxq.s:1596   .text.USB_DeactivateEndpoint:0000000000000000 $t
     /tmp/ccDzXOxq.s:1604   .text.USB_DeactivateEndpoint:0000000000000000 USB_DeactivateEndpoint
     /tmp/ccDzXOxq.s:1750   .text.USB_DeactivateEndpoint:00000000000000bc $d
     /tmp/ccDzXOxq.s:1756   .text.USB_DeactivateDedicatedEndpoint:0000000000000000 $t
     /tmp/ccDzXOxq.s:1764   .text.USB_DeactivateDedicatedEndpoint:0000000000000000 USB_DeactivateDedicatedEndpoint
     /tmp/ccDzXOxq.s:1868   .text.USB_EPStartXfer:0000000000000000 $t
     /tmp/ccDzXOxq.s:1876   .text.USB_EPStartXfer:0000000000000000 USB_EPStartXfer
     /tmp/ccDzXOxq.s:2331   .text.USB_EPStartXfer:0000000000000228 $d
     /tmp/ccDzXOxq.s:2336   .text.USB_EP0StartXfer:0000000000000000 $t
     /tmp/ccDzXOxq.s:2344   .text.USB_EP0StartXfer:0000000000000000 USB_EP0StartXfer
     /tmp/ccDzXOxq.s:2619   .text.USB_WritePacket:0000000000000000 $t
     /tmp/ccDzXOxq.s:2627   .text.USB_WritePacket:0000000000000000 USB_WritePacket
     /tmp/ccDzXOxq.s:2698   .text.USB_ReadPacket:0000000000000000 $t
     /tmp/ccDzXOxq.s:2706   .text.USB_ReadPacket:0000000000000000 USB_ReadPacket
     /tmp/ccDzXOxq.s:2767   .text.USB_EPSetStall:0000000000000000 $t
     /tmp/ccDzXOxq.s:2775   .text.USB_EPSetStall:0000000000000000 USB_EPSetStall
     /tmp/ccDzXOxq.s:2861   .text.USB_EPClearStall:0000000000000000 $t
     /tmp/ccDzXOxq.s:2869   .text.USB_EPClearStall:0000000000000000 USB_EPClearStall
     /tmp/ccDzXOxq.s:2952   .text.USB_StopDevice:0000000000000000 $t
     /tmp/ccDzXOxq.s:2960   .text.USB_StopDevice:0000000000000000 USB_StopDevice
     /tmp/ccDzXOxq.s:3125   .text.USB_StopDevice:0000000000000064 $d
     /tmp/ccDzXOxq.s:3130   .text.USB_SetDevAddress:0000000000000000 $t
     /tmp/ccDzXOxq.s:3138   .text.USB_SetDevAddress:0000000000000000 USB_SetDevAddress
     /tmp/ccDzXOxq.s:3173   .text.USB_DevConnect:0000000000000000 $t
ARM GAS  /tmp/ccDzXOxq.s 			page 165


     /tmp/ccDzXOxq.s:3181   .text.USB_DevConnect:0000000000000000 USB_DevConnect
     /tmp/ccDzXOxq.s:3210   .text.USB_DevDisconnect:0000000000000000 $t
     /tmp/ccDzXOxq.s:3218   .text.USB_DevDisconnect:0000000000000000 USB_DevDisconnect
     /tmp/ccDzXOxq.s:3247   .text.USB_ReadInterrupts:0000000000000000 $t
     /tmp/ccDzXOxq.s:3255   .text.USB_ReadInterrupts:0000000000000000 USB_ReadInterrupts
     /tmp/ccDzXOxq.s:3282   .text.USB_ReadDevAllOutEpInterrupt:0000000000000000 $t
     /tmp/ccDzXOxq.s:3290   .text.USB_ReadDevAllOutEpInterrupt:0000000000000000 USB_ReadDevAllOutEpInterrupt
     /tmp/ccDzXOxq.s:3323   .text.USB_ReadDevAllInEpInterrupt:0000000000000000 $t
     /tmp/ccDzXOxq.s:3331   .text.USB_ReadDevAllInEpInterrupt:0000000000000000 USB_ReadDevAllInEpInterrupt
     /tmp/ccDzXOxq.s:3364   .text.USB_ReadDevOutEPInterrupt:0000000000000000 $t
     /tmp/ccDzXOxq.s:3372   .text.USB_ReadDevOutEPInterrupt:0000000000000000 USB_ReadDevOutEPInterrupt
     /tmp/ccDzXOxq.s:3406   .text.USB_ReadDevInEPInterrupt:0000000000000000 $t
     /tmp/ccDzXOxq.s:3414   .text.USB_ReadDevInEPInterrupt:0000000000000000 USB_ReadDevInEPInterrupt
     /tmp/ccDzXOxq.s:3471   .text.USB_ClearInterrupts:0000000000000000 $t
     /tmp/ccDzXOxq.s:3479   .text.USB_ClearInterrupts:0000000000000000 USB_ClearInterrupts
     /tmp/ccDzXOxq.s:3500   .text.USB_GetMode:0000000000000000 $t
     /tmp/ccDzXOxq.s:3508   .text.USB_GetMode:0000000000000000 USB_GetMode
     /tmp/ccDzXOxq.s:3527   .text.USB_ActivateSetup:0000000000000000 $t
     /tmp/ccDzXOxq.s:3535   .text.USB_ActivateSetup:0000000000000000 USB_ActivateSetup
     /tmp/ccDzXOxq.s:3565   .text.USB_EP0_OutStart:0000000000000000 $t
     /tmp/ccDzXOxq.s:3573   .text.USB_EP0_OutStart:0000000000000000 USB_EP0_OutStart
     /tmp/ccDzXOxq.s:3672   .text.USB_EP0_OutStart:0000000000000054 $d
     /tmp/ccDzXOxq.s:3677   .text.USB_InitFSLSPClkSel:0000000000000000 $t
     /tmp/ccDzXOxq.s:3685   .text.USB_InitFSLSPClkSel:0000000000000000 USB_InitFSLSPClkSel
     /tmp/ccDzXOxq.s:3745   .text.USB_ResetPort:0000000000000000 $t
     /tmp/ccDzXOxq.s:3753   .text.USB_ResetPort:0000000000000000 USB_ResetPort
     /tmp/ccDzXOxq.s:3823   .text.USB_DriveVbus:0000000000000000 $t
     /tmp/ccDzXOxq.s:3831   .text.USB_DriveVbus:0000000000000000 USB_DriveVbus
     /tmp/ccDzXOxq.s:3921   .text.USB_HostInit:0000000000000000 $t
     /tmp/ccDzXOxq.s:3929   .text.USB_HostInit:0000000000000000 USB_HostInit
     /tmp/ccDzXOxq.s:4216   .text.USB_HostInit:00000000000000f4 $d
     /tmp/ccDzXOxq.s:4226   .text.USB_GetHostSpeed:0000000000000000 $t
     /tmp/ccDzXOxq.s:4234   .text.USB_GetHostSpeed:0000000000000000 USB_GetHostSpeed
     /tmp/ccDzXOxq.s:4271   .text.USB_GetCurrentFrame:0000000000000000 $t
     /tmp/ccDzXOxq.s:4279   .text.USB_GetCurrentFrame:0000000000000000 USB_GetCurrentFrame
     /tmp/ccDzXOxq.s:4302   .text.USB_HC_Init:0000000000000000 $t
     /tmp/ccDzXOxq.s:4310   .text.USB_HC_Init:0000000000000000 USB_HC_Init
     /tmp/ccDzXOxq.s:4350   .text.USB_HC_Init:0000000000000028 $d
     /tmp/ccDzXOxq.s:4354   .text.USB_HC_Init:000000000000002c $t
     /tmp/ccDzXOxq.s:4592   .text.USB_HC_StartXfer:0000000000000000 $t
     /tmp/ccDzXOxq.s:4600   .text.USB_HC_StartXfer:0000000000000000 USB_HC_StartXfer
     /tmp/ccDzXOxq.s:4871   .text.USB_HC_StartXfer:0000000000000118 $d
     /tmp/ccDzXOxq.s:4875   .text.USB_HC_StartXfer:000000000000011c $t
     /tmp/ccDzXOxq.s:4998   .text.USB_HC_StartXfer:0000000000000190 $d
     /tmp/ccDzXOxq.s:5003   .text.USB_HC_ReadInterrupt:0000000000000000 $t
     /tmp/ccDzXOxq.s:5011   .text.USB_HC_ReadInterrupt:0000000000000000 USB_HC_ReadInterrupt
     /tmp/ccDzXOxq.s:5034   .text.USB_HC_Halt:0000000000000000 $t
     /tmp/ccDzXOxq.s:5042   .text.USB_HC_Halt:0000000000000000 USB_HC_Halt
     /tmp/ccDzXOxq.s:5252   .text.USB_DoPing:0000000000000000 $t
     /tmp/ccDzXOxq.s:5260   .text.USB_DoPing:0000000000000000 USB_DoPing
     /tmp/ccDzXOxq.s:5302   .text.USB_DoPing:0000000000000020 $d
     /tmp/ccDzXOxq.s:5307   .text.USB_StopHost:0000000000000000 $t
     /tmp/ccDzXOxq.s:5315   .text.USB_StopHost:0000000000000000 USB_StopHost
     /tmp/ccDzXOxq.s:5555   .text.USB_StopHost:000000000000008c $d
     /tmp/ccDzXOxq.s:5560   .text.USB_ActivateRemoteWakeup:0000000000000000 $t
     /tmp/ccDzXOxq.s:5568   .text.USB_ActivateRemoteWakeup:0000000000000000 USB_ActivateRemoteWakeup
     /tmp/ccDzXOxq.s:5603   .text.USB_DeActivateRemoteWakeup:0000000000000000 $t
ARM GAS  /tmp/ccDzXOxq.s 			page 166


     /tmp/ccDzXOxq.s:5611   .text.USB_DeActivateRemoteWakeup:0000000000000000 USB_DeActivateRemoteWakeup

UNDEFINED SYMBOLS
HAL_Delay
