ARM GAS  /tmp/ccHzo8Bb.s 			page 1


   1              		.cpu cortex-m4
   2              		.eabi_attribute 27, 1
   3              		.eabi_attribute 28, 1
   4              		.eabi_attribute 20, 1
   5              		.eabi_attribute 21, 1
   6              		.eabi_attribute 23, 3
   7              		.eabi_attribute 24, 1
   8              		.eabi_attribute 25, 1
   9              		.eabi_attribute 26, 1
  10              		.eabi_attribute 30, 2
  11              		.eabi_attribute 34, 1
  12              		.eabi_attribute 18, 4
  13              		.file	"syscalls.c"
  14              		.text
  15              	.Ltext0:
  16              		.cfi_sections	.debug_frame
  17              		.section	.text.initialise_monitor_handles,"ax",%progbits
  18              		.align	1
  19              		.p2align 2,,3
  20              		.global	initialise_monitor_handles
  21              		.arch armv7e-m
  22              		.syntax unified
  23              		.thumb
  24              		.thumb_func
  25              		.fpu fpv4-sp-d16
  27              	initialise_monitor_handles:
  28              	.LFB25:
  29              		.file 1 "Src/syscalls.c"
   1:Src/syscalls.c **** /**
   2:Src/syscalls.c **** *****************************************************************************
   3:Src/syscalls.c **** **
   4:Src/syscalls.c **** **  File        : syscalls.c
   5:Src/syscalls.c **** **
   6:Src/syscalls.c **** **  Author		: Auto-generated by System workbench for STM32
   7:Src/syscalls.c **** **
   8:Src/syscalls.c **** **  Abstract    : System Workbench Minimal System calls file
   9:Src/syscalls.c **** **
  10:Src/syscalls.c **** ** 		          For more information about which c-functions
  11:Src/syscalls.c **** **                need which of these lowlevel functions
  12:Src/syscalls.c **** **                please consult the Newlib libc-manual
  13:Src/syscalls.c **** **
  14:Src/syscalls.c **** **  Target      : STMicroelectronics STM32
  15:Src/syscalls.c **** **
  16:Src/syscalls.c **** **  Distribution: The file is distributed “as is,” without any warranty
  17:Src/syscalls.c **** **                of any kind.
  18:Src/syscalls.c **** **
  19:Src/syscalls.c **** *****************************************************************************
  20:Src/syscalls.c **** ** @attention
  21:Src/syscalls.c **** **
  22:Src/syscalls.c **** ** <h2><center>&copy; COPYRIGHT(c) 2019 STMicroelectronics</center></h2>
  23:Src/syscalls.c **** **
  24:Src/syscalls.c **** ** Redistribution and use in source and binary forms, with or without modification,
  25:Src/syscalls.c **** ** are permitted provided that the following conditions are met:
  26:Src/syscalls.c **** **   1. Redistributions of source code must retain the above copyright notice,
  27:Src/syscalls.c **** **      this list of conditions and the following disclaimer.
  28:Src/syscalls.c **** **   2. Redistributions in binary form must reproduce the above copyright notice,
  29:Src/syscalls.c **** **      this list of conditions and the following disclaimer in the documentation
ARM GAS  /tmp/ccHzo8Bb.s 			page 2


  30:Src/syscalls.c **** **      and/or other materials provided with the distribution.
  31:Src/syscalls.c **** **   3. Neither the name of STMicroelectronics nor the names of its contributors
  32:Src/syscalls.c **** **      may be used to endorse or promote products derived from this software
  33:Src/syscalls.c **** **      without specific prior written permission.
  34:Src/syscalls.c **** **
  35:Src/syscalls.c **** ** THIS SOFTWARE IS PROVIDED BY THE COPYRIGHT HOLDERS AND CONTRIBUTORS "AS IS"
  36:Src/syscalls.c **** ** AND ANY EXPRESS OR IMPLIED WARRANTIES, INCLUDING, BUT NOT LIMITED TO, THE
  37:Src/syscalls.c **** ** IMPLIED WARRANTIES OF MERCHANTABILITY AND FITNESS FOR A PARTICULAR PURPOSE ARE
  38:Src/syscalls.c **** ** DISCLAIMED. IN NO EVENT SHALL THE COPYRIGHT HOLDER OR CONTRIBUTORS BE LIABLE
  39:Src/syscalls.c **** ** FOR ANY DIRECT, INDIRECT, INCIDENTAL, SPECIAL, EXEMPLARY, OR CONSEQUENTIAL
  40:Src/syscalls.c **** ** DAMAGES (INCLUDING, BUT NOT LIMITED TO, PROCUREMENT OF SUBSTITUTE GOODS OR
  41:Src/syscalls.c **** ** SERVICES; LOSS OF USE, DATA, OR PROFITS; OR BUSINESS INTERRUPTION) HOWEVER
  42:Src/syscalls.c **** ** CAUSED AND ON ANY THEORY OF LIABILITY, WHETHER IN CONTRACT, STRICT LIABILITY,
  43:Src/syscalls.c **** ** OR TORT (INCLUDING NEGLIGENCE OR OTHERWISE) ARISING IN ANY WAY OUT OF THE USE
  44:Src/syscalls.c **** ** OF THIS SOFTWARE, EVEN IF ADVISED OF THE POSSIBILITY OF SUCH DAMAGE.
  45:Src/syscalls.c **** **
  46:Src/syscalls.c **** *****************************************************************************
  47:Src/syscalls.c **** */
  48:Src/syscalls.c **** 
  49:Src/syscalls.c **** /* Includes */
  50:Src/syscalls.c **** #include <sys/stat.h>
  51:Src/syscalls.c **** #include <stdlib.h>
  52:Src/syscalls.c **** #include <errno.h>
  53:Src/syscalls.c **** #include <stdio.h>
  54:Src/syscalls.c **** #include <signal.h>
  55:Src/syscalls.c **** #include <time.h>
  56:Src/syscalls.c **** #include <sys/time.h>
  57:Src/syscalls.c **** #include <sys/times.h>
  58:Src/syscalls.c **** 
  59:Src/syscalls.c **** 
  60:Src/syscalls.c **** /* Variables */
  61:Src/syscalls.c **** //#undef errno
  62:Src/syscalls.c **** extern int errno;
  63:Src/syscalls.c **** extern int __io_putchar(int ch) __attribute__((weak));
  64:Src/syscalls.c **** extern int __io_getchar(void) __attribute__((weak));
  65:Src/syscalls.c **** 
  66:Src/syscalls.c **** register char * stack_ptr asm("sp");
  67:Src/syscalls.c **** 
  68:Src/syscalls.c **** char *__env[1] = { 0 };
  69:Src/syscalls.c **** char **environ = __env;
  70:Src/syscalls.c **** 
  71:Src/syscalls.c **** 
  72:Src/syscalls.c **** /* Functions */
  73:Src/syscalls.c **** void initialise_monitor_handles()
  74:Src/syscalls.c **** {
  30              		.loc 1 74 1 view -0
  31              		.cfi_startproc
  32              		@ args = 0, pretend = 0, frame = 0
  33              		@ frame_needed = 0, uses_anonymous_args = 0
  34              		@ link register save eliminated.
  75:Src/syscalls.c **** }
  35              		.loc 1 75 1 view .LVU1
  36 0000 7047     		bx	lr
  37              		.cfi_endproc
  38              	.LFE25:
  40 0002 00BF     		.section	.text._getpid,"ax",%progbits
  41              		.align	1
ARM GAS  /tmp/ccHzo8Bb.s 			page 3


  42              		.p2align 2,,3
  43              		.global	_getpid
  44              		.syntax unified
  45              		.thumb
  46              		.thumb_func
  47              		.fpu fpv4-sp-d16
  49              	_getpid:
  50              	.LFB26:
  76:Src/syscalls.c **** 
  77:Src/syscalls.c **** int _getpid(void)
  78:Src/syscalls.c **** {
  51              		.loc 1 78 1 view -0
  52              		.cfi_startproc
  53              		@ args = 0, pretend = 0, frame = 0
  54              		@ frame_needed = 0, uses_anonymous_args = 0
  55              		@ link register save eliminated.
  79:Src/syscalls.c **** 	return 1;
  56              		.loc 1 79 2 view .LVU3
  80:Src/syscalls.c **** }
  57              		.loc 1 80 1 is_stmt 0 view .LVU4
  58 0000 0120     		movs	r0, #1
  59 0002 7047     		bx	lr
  60              		.cfi_endproc
  61              	.LFE26:
  63              		.section	.text._kill,"ax",%progbits
  64              		.align	1
  65              		.p2align 2,,3
  66              		.global	_kill
  67              		.syntax unified
  68              		.thumb
  69              		.thumb_func
  70              		.fpu fpv4-sp-d16
  72              	_kill:
  73              	.LVL0:
  74              	.LFB27:
  81:Src/syscalls.c **** 
  82:Src/syscalls.c **** int _kill(int pid, int sig)
  83:Src/syscalls.c **** {
  75              		.loc 1 83 1 is_stmt 1 view -0
  76              		.cfi_startproc
  77              		@ args = 0, pretend = 0, frame = 0
  78              		@ frame_needed = 0, uses_anonymous_args = 0
  84:Src/syscalls.c **** 	errno = EINVAL;
  79              		.loc 1 84 2 view .LVU6
  83:Src/syscalls.c **** 	errno = EINVAL;
  80              		.loc 1 83 1 is_stmt 0 view .LVU7
  81 0000 08B5     		push	{r3, lr}
  82              	.LCFI0:
  83              		.cfi_def_cfa_offset 8
  84              		.cfi_offset 3, -8
  85              		.cfi_offset 14, -4
  86              		.loc 1 84 2 view .LVU8
  87 0002 FFF7FEFF 		bl	__errno
  88              	.LVL1:
  89              		.loc 1 84 8 view .LVU9
  90 0006 1623     		movs	r3, #22
  91 0008 0360     		str	r3, [r0]
ARM GAS  /tmp/ccHzo8Bb.s 			page 4


  85:Src/syscalls.c **** 	return -1;
  92              		.loc 1 85 2 is_stmt 1 view .LVU10
  86:Src/syscalls.c **** }
  93              		.loc 1 86 1 is_stmt 0 view .LVU11
  94 000a 4FF0FF30 		mov	r0, #-1
  95 000e 08BD     		pop	{r3, pc}
  96              		.cfi_endproc
  97              	.LFE27:
  99              		.section	.text._exit,"ax",%progbits
 100              		.align	1
 101              		.p2align 2,,3
 102              		.global	_exit
 103              		.syntax unified
 104              		.thumb
 105              		.thumb_func
 106              		.fpu fpv4-sp-d16
 108              	_exit:
 109              	.LVL2:
 110              	.LFB28:
  87:Src/syscalls.c **** 
  88:Src/syscalls.c **** void _exit (int status)
  89:Src/syscalls.c **** {
 111              		.loc 1 89 1 is_stmt 1 view -0
 112              		.cfi_startproc
 113              		@ Volatile: function does not return.
 114              		@ args = 0, pretend = 0, frame = 0
 115              		@ frame_needed = 0, uses_anonymous_args = 0
  90:Src/syscalls.c **** 	_kill(status, -1);
 116              		.loc 1 90 2 view .LVU13
 117              	.LBB4:
 118              	.LBI4:
  82:Src/syscalls.c **** {
 119              		.loc 1 82 5 view .LVU14
 120              	.LBB5:
  84:Src/syscalls.c **** 	return -1;
 121              		.loc 1 84 2 view .LVU15
 122              	.LBE5:
 123              	.LBE4:
  89:Src/syscalls.c **** 	_kill(status, -1);
 124              		.loc 1 89 1 is_stmt 0 view .LVU16
 125 0000 08B5     		push	{r3, lr}
 126              	.LCFI1:
 127              		.cfi_def_cfa_offset 8
 128              		.cfi_offset 3, -8
 129              		.cfi_offset 14, -4
 130              	.LBB7:
 131              	.LBB6:
  84:Src/syscalls.c **** 	return -1;
 132              		.loc 1 84 2 view .LVU17
 133 0002 FFF7FEFF 		bl	__errno
 134              	.LVL3:
  84:Src/syscalls.c **** 	return -1;
 135              		.loc 1 84 8 view .LVU18
 136 0006 1623     		movs	r3, #22
 137 0008 0360     		str	r3, [r0]
  85:Src/syscalls.c **** }
 138              		.loc 1 85 2 is_stmt 1 view .LVU19
ARM GAS  /tmp/ccHzo8Bb.s 			page 5


 139              	.LVL4:
 140              	.L7:
  85:Src/syscalls.c **** }
 141              		.loc 1 85 2 is_stmt 0 view .LVU20
 142              	.LBE6:
 143              	.LBE7:
  91:Src/syscalls.c **** 	while (1) {}		/* Make sure we hang here */
 144              		.loc 1 91 2 is_stmt 1 discriminator 1 view .LVU21
 145              		.loc 1 91 13 discriminator 1 view .LVU22
 146              		.loc 1 91 8 discriminator 1 view .LVU23
 147              		.loc 1 91 2 discriminator 1 view .LVU24
 148              		.loc 1 91 13 discriminator 1 view .LVU25
 149              		.loc 1 91 8 discriminator 1 view .LVU26
 150 000a FEE7     		b	.L7
 151              		.cfi_endproc
 152              	.LFE28:
 154              		.section	.text._read,"ax",%progbits
 155              		.align	1
 156              		.p2align 2,,3
 157              		.weak	_read
 158              		.syntax unified
 159              		.thumb
 160              		.thumb_func
 161              		.fpu fpv4-sp-d16
 163              	_read:
 164              	.LVL5:
 165              	.LFB29:
  92:Src/syscalls.c **** }
  93:Src/syscalls.c **** 
  94:Src/syscalls.c **** __attribute__((weak)) int _read(int file, char *ptr, int len)
  95:Src/syscalls.c **** {
 166              		.loc 1 95 1 view -0
 167              		.cfi_startproc
 168              		@ args = 0, pretend = 0, frame = 0
 169              		@ frame_needed = 0, uses_anonymous_args = 0
  96:Src/syscalls.c **** 	int DataIdx;
 170              		.loc 1 96 2 view .LVU28
  97:Src/syscalls.c **** 
  98:Src/syscalls.c **** 	for (DataIdx = 0; DataIdx < len; DataIdx++)
 171              		.loc 1 98 2 view .LVU29
 172              		.loc 1 98 20 view .LVU30
  95:Src/syscalls.c **** 	int DataIdx;
 173              		.loc 1 95 1 is_stmt 0 view .LVU31
 174 0000 70B5     		push	{r4, r5, r6, lr}
 175              	.LCFI2:
 176              		.cfi_def_cfa_offset 16
 177              		.cfi_offset 4, -16
 178              		.cfi_offset 5, -12
 179              		.cfi_offset 6, -8
 180              		.cfi_offset 14, -4
 181              		.loc 1 98 2 view .LVU32
 182 0002 161E     		subs	r6, r2, #0
 183 0004 07DD     		ble	.L10
 184 0006 0C46     		mov	r4, r1
 185 0008 8D19     		adds	r5, r1, r6
 186              	.LVL6:
 187              	.L11:
ARM GAS  /tmp/ccHzo8Bb.s 			page 6


  99:Src/syscalls.c **** 	{
 100:Src/syscalls.c **** 		*ptr++ = __io_getchar();
 188              		.loc 1 100 3 is_stmt 1 discriminator 3 view .LVU33
 189              		.loc 1 100 12 is_stmt 0 discriminator 3 view .LVU34
 190 000a FFF7FEFF 		bl	__io_getchar
 191              	.LVL7:
 192              		.loc 1 100 10 discriminator 3 view .LVU35
 193 000e 04F8010B 		strb	r0, [r4], #1
 194              	.LVL8:
  98:Src/syscalls.c **** 	{
 195              		.loc 1 98 35 is_stmt 1 discriminator 3 view .LVU36
  98:Src/syscalls.c **** 	{
 196              		.loc 1 98 20 discriminator 3 view .LVU37
  98:Src/syscalls.c **** 	{
 197              		.loc 1 98 2 is_stmt 0 discriminator 3 view .LVU38
 198 0012 A542     		cmp	r5, r4
 199 0014 F9D1     		bne	.L11
 200              	.LVL9:
 201              	.L10:
 101:Src/syscalls.c **** 	}
 102:Src/syscalls.c **** 
 103:Src/syscalls.c **** return len;
 202              		.loc 1 103 1 is_stmt 1 view .LVU39
 104:Src/syscalls.c **** }
 203              		.loc 1 104 1 is_stmt 0 view .LVU40
 204 0016 3046     		mov	r0, r6
 205 0018 70BD     		pop	{r4, r5, r6, pc}
 206              		.loc 1 104 1 view .LVU41
 207              		.cfi_endproc
 208              	.LFE29:
 210 001a 00BF     		.section	.text._write,"ax",%progbits
 211              		.align	1
 212              		.p2align 2,,3
 213              		.weak	_write
 214              		.syntax unified
 215              		.thumb
 216              		.thumb_func
 217              		.fpu fpv4-sp-d16
 219              	_write:
 220              	.LVL10:
 221              	.LFB30:
 105:Src/syscalls.c **** 
 106:Src/syscalls.c **** __attribute__((weak)) int _write(int file, char *ptr, int len)
 107:Src/syscalls.c **** {
 222              		.loc 1 107 1 is_stmt 1 view -0
 223              		.cfi_startproc
 224              		@ args = 0, pretend = 0, frame = 0
 225              		@ frame_needed = 0, uses_anonymous_args = 0
 108:Src/syscalls.c **** 	int DataIdx;
 226              		.loc 1 108 2 view .LVU43
 109:Src/syscalls.c **** 
 110:Src/syscalls.c **** 	for (DataIdx = 0; DataIdx < len; DataIdx++)
 227              		.loc 1 110 2 view .LVU44
 228              		.loc 1 110 20 view .LVU45
 107:Src/syscalls.c **** 	int DataIdx;
 229              		.loc 1 107 1 is_stmt 0 view .LVU46
 230 0000 70B5     		push	{r4, r5, r6, lr}
ARM GAS  /tmp/ccHzo8Bb.s 			page 7


 231              	.LCFI3:
 232              		.cfi_def_cfa_offset 16
 233              		.cfi_offset 4, -16
 234              		.cfi_offset 5, -12
 235              		.cfi_offset 6, -8
 236              		.cfi_offset 14, -4
 237              		.loc 1 110 2 view .LVU47
 238 0002 161E     		subs	r6, r2, #0
 239 0004 07DD     		ble	.L15
 240 0006 0C46     		mov	r4, r1
 241 0008 8D19     		adds	r5, r1, r6
 242              	.LVL11:
 243              	.L16:
 111:Src/syscalls.c **** 	{
 112:Src/syscalls.c **** 		__io_putchar(*ptr++);
 244              		.loc 1 112 3 is_stmt 1 discriminator 3 view .LVU48
 245              		.loc 1 112 3 is_stmt 0 discriminator 3 view .LVU49
 246 000a 14F8010B 		ldrb	r0, [r4], #1	@ zero_extendqisi2
 247              	.LVL12:
 248              		.loc 1 112 3 discriminator 3 view .LVU50
 249 000e FFF7FEFF 		bl	__io_putchar
 250              	.LVL13:
 110:Src/syscalls.c **** 	{
 251              		.loc 1 110 35 is_stmt 1 discriminator 3 view .LVU51
 110:Src/syscalls.c **** 	{
 252              		.loc 1 110 20 discriminator 3 view .LVU52
 110:Src/syscalls.c **** 	{
 253              		.loc 1 110 2 is_stmt 0 discriminator 3 view .LVU53
 254 0012 A542     		cmp	r5, r4
 255 0014 F9D1     		bne	.L16
 256              	.LVL14:
 257              	.L15:
 113:Src/syscalls.c **** 	}
 114:Src/syscalls.c **** 	return len;
 258              		.loc 1 114 2 is_stmt 1 view .LVU54
 115:Src/syscalls.c **** }
 259              		.loc 1 115 1 is_stmt 0 view .LVU55
 260 0016 3046     		mov	r0, r6
 261 0018 70BD     		pop	{r4, r5, r6, pc}
 262              		.loc 1 115 1 view .LVU56
 263              		.cfi_endproc
 264              	.LFE30:
 266 001a 00BF     		.section	.text._sbrk,"ax",%progbits
 267              		.align	1
 268              		.p2align 2,,3
 269              		.global	_sbrk
 270              		.syntax unified
 271              		.thumb
 272              		.thumb_func
 273              		.fpu fpv4-sp-d16
 275              	_sbrk:
 276              	.LVL15:
 277              	.LFB31:
 116:Src/syscalls.c **** 
 117:Src/syscalls.c **** caddr_t _sbrk(int incr)
 118:Src/syscalls.c **** {
 278              		.loc 1 118 1 is_stmt 1 view -0
ARM GAS  /tmp/ccHzo8Bb.s 			page 8


 279              		.cfi_startproc
 280              		@ args = 0, pretend = 0, frame = 0
 281              		@ frame_needed = 0, uses_anonymous_args = 0
 119:Src/syscalls.c **** 	extern char end asm("end");
 282              		.loc 1 119 2 view .LVU58
 120:Src/syscalls.c **** 	static char *heap_end;
 283              		.loc 1 120 2 view .LVU59
 121:Src/syscalls.c **** 	char *prev_heap_end;
 284              		.loc 1 121 2 view .LVU60
 122:Src/syscalls.c **** 
 123:Src/syscalls.c **** 	if (heap_end == 0)
 285              		.loc 1 123 2 view .LVU61
 286              		.loc 1 123 15 is_stmt 0 view .LVU62
 287 0000 0C4A     		ldr	r2, .L26
 118:Src/syscalls.c **** 	extern char end asm("end");
 288              		.loc 1 118 1 view .LVU63
 289 0002 08B5     		push	{r3, lr}
 290              	.LCFI4:
 291              		.cfi_def_cfa_offset 8
 292              		.cfi_offset 3, -8
 293              		.cfi_offset 14, -4
 294              		.loc 1 123 15 view .LVU64
 295 0004 1368     		ldr	r3, [r2]
 296              		.loc 1 123 5 view .LVU65
 297 0006 33B1     		cbz	r3, .L24
 124:Src/syscalls.c **** 		heap_end = &end;
 125:Src/syscalls.c **** 
 126:Src/syscalls.c **** 	prev_heap_end = heap_end;
 298              		.loc 1 126 2 is_stmt 1 view .LVU66
 299              	.LVL16:
 127:Src/syscalls.c **** 	if (heap_end + incr > stack_ptr)
 300              		.loc 1 127 2 view .LVU67
 301              		.loc 1 127 15 is_stmt 0 view .LVU68
 302 0008 1844     		add	r0, r0, r3
 303              	.LVL17:
 304              		.loc 1 127 5 view .LVU69
 305 000a 6946     		mov	r1, sp
 306 000c 8842     		cmp	r0, r1
 307 000e 08D8     		bhi	.L25
 308              	.LVL18:
 309              	.L21:
 128:Src/syscalls.c **** 	{
 129:Src/syscalls.c **** //		write(1, "Heap and stack collision\n", 25);
 130:Src/syscalls.c **** //		abort();
 131:Src/syscalls.c **** 		errno = ENOMEM;
 132:Src/syscalls.c **** 		return (caddr_t) -1;
 133:Src/syscalls.c **** 	}
 134:Src/syscalls.c **** 
 135:Src/syscalls.c **** 	heap_end += incr;
 310              		.loc 1 135 2 is_stmt 1 view .LVU70
 311              		.loc 1 135 11 is_stmt 0 view .LVU71
 312 0010 1060     		str	r0, [r2]
 313              	.LVL19:
 136:Src/syscalls.c **** 
 137:Src/syscalls.c **** 	return (caddr_t) prev_heap_end;
 314              		.loc 1 137 2 is_stmt 1 view .LVU72
 138:Src/syscalls.c **** }
ARM GAS  /tmp/ccHzo8Bb.s 			page 9


 315              		.loc 1 138 1 is_stmt 0 view .LVU73
 316 0012 1846     		mov	r0, r3
 317 0014 08BD     		pop	{r3, pc}
 318              	.LVL20:
 319              	.L24:
 124:Src/syscalls.c **** 
 320              		.loc 1 124 3 is_stmt 1 view .LVU74
 124:Src/syscalls.c **** 
 321              		.loc 1 124 12 is_stmt 0 view .LVU75
 322 0016 084B     		ldr	r3, .L26+4
 323 0018 1360     		str	r3, [r2]
 126:Src/syscalls.c **** 	if (heap_end + incr > stack_ptr)
 324              		.loc 1 126 2 is_stmt 1 view .LVU76
 325              	.LVL21:
 127:Src/syscalls.c **** 	{
 326              		.loc 1 127 2 view .LVU77
 127:Src/syscalls.c **** 	{
 327              		.loc 1 127 15 is_stmt 0 view .LVU78
 328 001a 1844     		add	r0, r0, r3
 329              	.LVL22:
 127:Src/syscalls.c **** 	{
 330              		.loc 1 127 5 view .LVU79
 331 001c 6946     		mov	r1, sp
 332 001e 8842     		cmp	r0, r1
 333 0020 F6D9     		bls	.L21
 334              	.L25:
 131:Src/syscalls.c **** 		return (caddr_t) -1;
 335              		.loc 1 131 3 is_stmt 1 view .LVU80
 336 0022 FFF7FEFF 		bl	__errno
 337              	.LVL23:
 131:Src/syscalls.c **** 		return (caddr_t) -1;
 338              		.loc 1 131 9 is_stmt 0 view .LVU81
 339 0026 0C23     		movs	r3, #12
 340 0028 0360     		str	r3, [r0]
 132:Src/syscalls.c **** 	}
 341              		.loc 1 132 3 is_stmt 1 view .LVU82
 132:Src/syscalls.c **** 	}
 342              		.loc 1 132 10 is_stmt 0 view .LVU83
 343 002a 4FF0FF33 		mov	r3, #-1
 344              		.loc 1 138 1 view .LVU84
 345 002e 1846     		mov	r0, r3
 346 0030 08BD     		pop	{r3, pc}
 347              	.L27:
 348 0032 00BF     		.align	2
 349              	.L26:
 350 0034 00000000 		.word	.LANCHOR0
 351 0038 00000000 		.word	end
 352              		.cfi_endproc
 353              	.LFE31:
 355              		.section	.text._close,"ax",%progbits
 356              		.align	1
 357              		.p2align 2,,3
 358              		.global	_close
 359              		.syntax unified
 360              		.thumb
 361              		.thumb_func
 362              		.fpu fpv4-sp-d16
ARM GAS  /tmp/ccHzo8Bb.s 			page 10


 364              	_close:
 365              	.LVL24:
 366              	.LFB32:
 139:Src/syscalls.c **** 
 140:Src/syscalls.c **** int _close(int file)
 141:Src/syscalls.c **** {
 367              		.loc 1 141 1 is_stmt 1 view -0
 368              		.cfi_startproc
 369              		@ args = 0, pretend = 0, frame = 0
 370              		@ frame_needed = 0, uses_anonymous_args = 0
 371              		@ link register save eliminated.
 142:Src/syscalls.c **** 	return -1;
 372              		.loc 1 142 2 view .LVU86
 143:Src/syscalls.c **** }
 373              		.loc 1 143 1 is_stmt 0 view .LVU87
 374 0000 4FF0FF30 		mov	r0, #-1
 375              	.LVL25:
 376              		.loc 1 143 1 view .LVU88
 377 0004 7047     		bx	lr
 378              		.cfi_endproc
 379              	.LFE32:
 381 0006 00BF     		.section	.text._fstat,"ax",%progbits
 382              		.align	1
 383              		.p2align 2,,3
 384              		.global	_fstat
 385              		.syntax unified
 386              		.thumb
 387              		.thumb_func
 388              		.fpu fpv4-sp-d16
 390              	_fstat:
 391              	.LVL26:
 392              	.LFB33:
 144:Src/syscalls.c **** 
 145:Src/syscalls.c **** 
 146:Src/syscalls.c **** int _fstat(int file, struct stat *st)
 147:Src/syscalls.c **** {
 393              		.loc 1 147 1 is_stmt 1 view -0
 394              		.cfi_startproc
 395              		@ args = 0, pretend = 0, frame = 0
 396              		@ frame_needed = 0, uses_anonymous_args = 0
 397              		@ link register save eliminated.
 148:Src/syscalls.c **** 	st->st_mode = S_IFCHR;
 398              		.loc 1 148 2 view .LVU90
 399              		.loc 1 148 14 is_stmt 0 view .LVU91
 400 0000 4FF40053 		mov	r3, #8192
 401 0004 4B60     		str	r3, [r1, #4]
 149:Src/syscalls.c **** 	return 0;
 402              		.loc 1 149 2 is_stmt 1 view .LVU92
 150:Src/syscalls.c **** }
 403              		.loc 1 150 1 is_stmt 0 view .LVU93
 404 0006 0020     		movs	r0, #0
 405              	.LVL27:
 406              		.loc 1 150 1 view .LVU94
 407 0008 7047     		bx	lr
 408              		.cfi_endproc
 409              	.LFE33:
 411 000a 00BF     		.section	.text._isatty,"ax",%progbits
ARM GAS  /tmp/ccHzo8Bb.s 			page 11


 412              		.align	1
 413              		.p2align 2,,3
 414              		.global	_isatty
 415              		.syntax unified
 416              		.thumb
 417              		.thumb_func
 418              		.fpu fpv4-sp-d16
 420              	_isatty:
 421              	.LVL28:
 422              	.LFB34:
 151:Src/syscalls.c **** 
 152:Src/syscalls.c **** int _isatty(int file)
 153:Src/syscalls.c **** {
 423              		.loc 1 153 1 is_stmt 1 view -0
 424              		.cfi_startproc
 425              		@ args = 0, pretend = 0, frame = 0
 426              		@ frame_needed = 0, uses_anonymous_args = 0
 427              		@ link register save eliminated.
 154:Src/syscalls.c **** 	return 1;
 428              		.loc 1 154 2 view .LVU96
 155:Src/syscalls.c **** }
 429              		.loc 1 155 1 is_stmt 0 view .LVU97
 430 0000 0120     		movs	r0, #1
 431              	.LVL29:
 432              		.loc 1 155 1 view .LVU98
 433 0002 7047     		bx	lr
 434              		.cfi_endproc
 435              	.LFE34:
 437              		.section	.text._lseek,"ax",%progbits
 438              		.align	1
 439              		.p2align 2,,3
 440              		.global	_lseek
 441              		.syntax unified
 442              		.thumb
 443              		.thumb_func
 444              		.fpu fpv4-sp-d16
 446              	_lseek:
 447              	.LVL30:
 448              	.LFB35:
 156:Src/syscalls.c **** 
 157:Src/syscalls.c **** int _lseek(int file, int ptr, int dir)
 158:Src/syscalls.c **** {
 449              		.loc 1 158 1 is_stmt 1 view -0
 450              		.cfi_startproc
 451              		@ args = 0, pretend = 0, frame = 0
 452              		@ frame_needed = 0, uses_anonymous_args = 0
 453              		@ link register save eliminated.
 159:Src/syscalls.c **** 	return 0;
 454              		.loc 1 159 2 view .LVU100
 160:Src/syscalls.c **** }
 455              		.loc 1 160 1 is_stmt 0 view .LVU101
 456 0000 0020     		movs	r0, #0
 457              	.LVL31:
 458              		.loc 1 160 1 view .LVU102
 459 0002 7047     		bx	lr
 460              		.cfi_endproc
 461              	.LFE35:
ARM GAS  /tmp/ccHzo8Bb.s 			page 12


 463              		.section	.text._open,"ax",%progbits
 464              		.align	1
 465              		.p2align 2,,3
 466              		.global	_open
 467              		.syntax unified
 468              		.thumb
 469              		.thumb_func
 470              		.fpu fpv4-sp-d16
 472              	_open:
 473              	.LVL32:
 474              	.LFB36:
 161:Src/syscalls.c **** 
 162:Src/syscalls.c **** int _open(char *path, int flags, ...)
 163:Src/syscalls.c **** {
 475              		.loc 1 163 1 is_stmt 1 view -0
 476              		.cfi_startproc
 477              		@ args = 4, pretend = 12, frame = 0
 478              		@ frame_needed = 0, uses_anonymous_args = 1
 479              		@ link register save eliminated.
 164:Src/syscalls.c **** 	/* Pretend like we always fail */
 165:Src/syscalls.c **** 	return -1;
 480              		.loc 1 165 2 view .LVU104
 163:Src/syscalls.c **** 	/* Pretend like we always fail */
 481              		.loc 1 163 1 is_stmt 0 view .LVU105
 482 0000 0EB4     		push	{r1, r2, r3}
 483              	.LCFI5:
 484              		.cfi_def_cfa_offset 12
 485              		.cfi_offset 1, -12
 486              		.cfi_offset 2, -8
 487              		.cfi_offset 3, -4
 166:Src/syscalls.c **** }
 488              		.loc 1 166 1 view .LVU106
 489 0002 4FF0FF30 		mov	r0, #-1
 490              	.LVL33:
 491              		.loc 1 166 1 view .LVU107
 492 0006 03B0     		add	sp, sp, #12
 493              	.LCFI6:
 494              		.cfi_restore 3
 495              		.cfi_restore 2
 496              		.cfi_restore 1
 497              		.cfi_def_cfa_offset 0
 498 0008 7047     		bx	lr
 499              		.cfi_endproc
 500              	.LFE36:
 502              		.section	.text._wait,"ax",%progbits
 503              		.align	1
 504              		.p2align 2,,3
 505              		.global	_wait
 506              		.syntax unified
 507              		.thumb
 508              		.thumb_func
 509              		.fpu fpv4-sp-d16
 511              	_wait:
 512              	.LVL34:
 513              	.LFB37:
 167:Src/syscalls.c **** 
 168:Src/syscalls.c **** int _wait(int *status)
ARM GAS  /tmp/ccHzo8Bb.s 			page 13


 169:Src/syscalls.c **** {
 514              		.loc 1 169 1 is_stmt 1 view -0
 515              		.cfi_startproc
 516              		@ args = 0, pretend = 0, frame = 0
 517              		@ frame_needed = 0, uses_anonymous_args = 0
 170:Src/syscalls.c **** 	errno = ECHILD;
 518              		.loc 1 170 2 view .LVU109
 169:Src/syscalls.c **** 	errno = ECHILD;
 519              		.loc 1 169 1 is_stmt 0 view .LVU110
 520 0000 08B5     		push	{r3, lr}
 521              	.LCFI7:
 522              		.cfi_def_cfa_offset 8
 523              		.cfi_offset 3, -8
 524              		.cfi_offset 14, -4
 525              		.loc 1 170 2 view .LVU111
 526 0002 FFF7FEFF 		bl	__errno
 527              	.LVL35:
 528              		.loc 1 170 8 view .LVU112
 529 0006 0A23     		movs	r3, #10
 530 0008 0360     		str	r3, [r0]
 171:Src/syscalls.c **** 	return -1;
 531              		.loc 1 171 2 is_stmt 1 view .LVU113
 172:Src/syscalls.c **** }
 532              		.loc 1 172 1 is_stmt 0 view .LVU114
 533 000a 4FF0FF30 		mov	r0, #-1
 534 000e 08BD     		pop	{r3, pc}
 535              		.cfi_endproc
 536              	.LFE37:
 538              		.section	.text._unlink,"ax",%progbits
 539              		.align	1
 540              		.p2align 2,,3
 541              		.global	_unlink
 542              		.syntax unified
 543              		.thumb
 544              		.thumb_func
 545              		.fpu fpv4-sp-d16
 547              	_unlink:
 548              	.LVL36:
 549              	.LFB38:
 173:Src/syscalls.c **** 
 174:Src/syscalls.c **** int _unlink(char *name)
 175:Src/syscalls.c **** {
 550              		.loc 1 175 1 is_stmt 1 view -0
 551              		.cfi_startproc
 552              		@ args = 0, pretend = 0, frame = 0
 553              		@ frame_needed = 0, uses_anonymous_args = 0
 176:Src/syscalls.c **** 	errno = ENOENT;
 554              		.loc 1 176 2 view .LVU116
 175:Src/syscalls.c **** 	errno = ENOENT;
 555              		.loc 1 175 1 is_stmt 0 view .LVU117
 556 0000 08B5     		push	{r3, lr}
 557              	.LCFI8:
 558              		.cfi_def_cfa_offset 8
 559              		.cfi_offset 3, -8
 560              		.cfi_offset 14, -4
 561              		.loc 1 176 2 view .LVU118
 562 0002 FFF7FEFF 		bl	__errno
ARM GAS  /tmp/ccHzo8Bb.s 			page 14


 563              	.LVL37:
 564              		.loc 1 176 8 view .LVU119
 565 0006 0223     		movs	r3, #2
 566 0008 0360     		str	r3, [r0]
 177:Src/syscalls.c **** 	return -1;
 567              		.loc 1 177 2 is_stmt 1 view .LVU120
 178:Src/syscalls.c **** }
 568              		.loc 1 178 1 is_stmt 0 view .LVU121
 569 000a 4FF0FF30 		mov	r0, #-1
 570 000e 08BD     		pop	{r3, pc}
 571              		.cfi_endproc
 572              	.LFE38:
 574              		.section	.text._times,"ax",%progbits
 575              		.align	1
 576              		.p2align 2,,3
 577              		.global	_times
 578              		.syntax unified
 579              		.thumb
 580              		.thumb_func
 581              		.fpu fpv4-sp-d16
 583              	_times:
 584              	.LVL38:
 585              	.LFB39:
 179:Src/syscalls.c **** 
 180:Src/syscalls.c **** int _times(struct tms *buf)
 181:Src/syscalls.c **** {
 586              		.loc 1 181 1 is_stmt 1 view -0
 587              		.cfi_startproc
 588              		@ args = 0, pretend = 0, frame = 0
 589              		@ frame_needed = 0, uses_anonymous_args = 0
 590              		@ link register save eliminated.
 182:Src/syscalls.c **** 	return -1;
 591              		.loc 1 182 2 view .LVU123
 183:Src/syscalls.c **** }
 592              		.loc 1 183 1 is_stmt 0 view .LVU124
 593 0000 4FF0FF30 		mov	r0, #-1
 594              	.LVL39:
 595              		.loc 1 183 1 view .LVU125
 596 0004 7047     		bx	lr
 597              		.cfi_endproc
 598              	.LFE39:
 600 0006 00BF     		.section	.text._stat,"ax",%progbits
 601              		.align	1
 602              		.p2align 2,,3
 603              		.global	_stat
 604              		.syntax unified
 605              		.thumb
 606              		.thumb_func
 607              		.fpu fpv4-sp-d16
 609              	_stat:
 610              	.LVL40:
 611              	.LFB40:
 184:Src/syscalls.c **** 
 185:Src/syscalls.c **** int _stat(char *file, struct stat *st)
 186:Src/syscalls.c **** {
 612              		.loc 1 186 1 is_stmt 1 view -0
 613              		.cfi_startproc
ARM GAS  /tmp/ccHzo8Bb.s 			page 15


 614              		@ args = 0, pretend = 0, frame = 0
 615              		@ frame_needed = 0, uses_anonymous_args = 0
 616              		@ link register save eliminated.
 187:Src/syscalls.c **** 	st->st_mode = S_IFCHR;
 617              		.loc 1 187 2 view .LVU127
 618              		.loc 1 187 14 is_stmt 0 view .LVU128
 619 0000 4FF40053 		mov	r3, #8192
 620 0004 4B60     		str	r3, [r1, #4]
 188:Src/syscalls.c **** 	return 0;
 621              		.loc 1 188 2 is_stmt 1 view .LVU129
 189:Src/syscalls.c **** }
 622              		.loc 1 189 1 is_stmt 0 view .LVU130
 623 0006 0020     		movs	r0, #0
 624              	.LVL41:
 625              		.loc 1 189 1 view .LVU131
 626 0008 7047     		bx	lr
 627              		.cfi_endproc
 628              	.LFE40:
 630 000a 00BF     		.section	.text._link,"ax",%progbits
 631              		.align	1
 632              		.p2align 2,,3
 633              		.global	_link
 634              		.syntax unified
 635              		.thumb
 636              		.thumb_func
 637              		.fpu fpv4-sp-d16
 639              	_link:
 640              	.LVL42:
 641              	.LFB41:
 190:Src/syscalls.c **** 
 191:Src/syscalls.c **** int _link(char *old, char *new)
 192:Src/syscalls.c **** {
 642              		.loc 1 192 1 is_stmt 1 view -0
 643              		.cfi_startproc
 644              		@ args = 0, pretend = 0, frame = 0
 645              		@ frame_needed = 0, uses_anonymous_args = 0
 193:Src/syscalls.c **** 	errno = EMLINK;
 646              		.loc 1 193 2 view .LVU133
 192:Src/syscalls.c **** 	errno = EMLINK;
 647              		.loc 1 192 1 is_stmt 0 view .LVU134
 648 0000 08B5     		push	{r3, lr}
 649              	.LCFI9:
 650              		.cfi_def_cfa_offset 8
 651              		.cfi_offset 3, -8
 652              		.cfi_offset 14, -4
 653              		.loc 1 193 2 view .LVU135
 654 0002 FFF7FEFF 		bl	__errno
 655              	.LVL43:
 656              		.loc 1 193 8 view .LVU136
 657 0006 1F23     		movs	r3, #31
 658 0008 0360     		str	r3, [r0]
 194:Src/syscalls.c **** 	return -1;
 659              		.loc 1 194 2 is_stmt 1 view .LVU137
 195:Src/syscalls.c **** }
 660              		.loc 1 195 1 is_stmt 0 view .LVU138
 661 000a 4FF0FF30 		mov	r0, #-1
 662 000e 08BD     		pop	{r3, pc}
ARM GAS  /tmp/ccHzo8Bb.s 			page 16


 663              		.cfi_endproc
 664              	.LFE41:
 666              		.section	.text._fork,"ax",%progbits
 667              		.align	1
 668              		.p2align 2,,3
 669              		.global	_fork
 670              		.syntax unified
 671              		.thumb
 672              		.thumb_func
 673              		.fpu fpv4-sp-d16
 675              	_fork:
 676              	.LFB42:
 196:Src/syscalls.c **** 
 197:Src/syscalls.c **** int _fork(void)
 198:Src/syscalls.c **** {
 677              		.loc 1 198 1 is_stmt 1 view -0
 678              		.cfi_startproc
 679              		@ args = 0, pretend = 0, frame = 0
 680              		@ frame_needed = 0, uses_anonymous_args = 0
 199:Src/syscalls.c **** 	errno = EAGAIN;
 681              		.loc 1 199 2 view .LVU140
 198:Src/syscalls.c **** 	errno = EAGAIN;
 682              		.loc 1 198 1 is_stmt 0 view .LVU141
 683 0000 08B5     		push	{r3, lr}
 684              	.LCFI10:
 685              		.cfi_def_cfa_offset 8
 686              		.cfi_offset 3, -8
 687              		.cfi_offset 14, -4
 688              		.loc 1 199 2 view .LVU142
 689 0002 FFF7FEFF 		bl	__errno
 690              	.LVL44:
 691              		.loc 1 199 8 view .LVU143
 692 0006 0B23     		movs	r3, #11
 693 0008 0360     		str	r3, [r0]
 200:Src/syscalls.c **** 	return -1;
 694              		.loc 1 200 2 is_stmt 1 view .LVU144
 201:Src/syscalls.c **** }
 695              		.loc 1 201 1 is_stmt 0 view .LVU145
 696 000a 4FF0FF30 		mov	r0, #-1
 697 000e 08BD     		pop	{r3, pc}
 698              		.cfi_endproc
 699              	.LFE42:
 701              		.section	.text._execve,"ax",%progbits
 702              		.align	1
 703              		.p2align 2,,3
 704              		.global	_execve
 705              		.syntax unified
 706              		.thumb
 707              		.thumb_func
 708              		.fpu fpv4-sp-d16
 710              	_execve:
 711              	.LVL45:
 712              	.LFB43:
 202:Src/syscalls.c **** 
 203:Src/syscalls.c **** int _execve(char *name, char **argv, char **env)
 204:Src/syscalls.c **** {
 713              		.loc 1 204 1 is_stmt 1 view -0
ARM GAS  /tmp/ccHzo8Bb.s 			page 17


 714              		.cfi_startproc
 715              		@ args = 0, pretend = 0, frame = 0
 716              		@ frame_needed = 0, uses_anonymous_args = 0
 205:Src/syscalls.c **** 	errno = ENOMEM;
 717              		.loc 1 205 2 view .LVU147
 204:Src/syscalls.c **** 	errno = ENOMEM;
 718              		.loc 1 204 1 is_stmt 0 view .LVU148
 719 0000 08B5     		push	{r3, lr}
 720              	.LCFI11:
 721              		.cfi_def_cfa_offset 8
 722              		.cfi_offset 3, -8
 723              		.cfi_offset 14, -4
 724              		.loc 1 205 2 view .LVU149
 725 0002 FFF7FEFF 		bl	__errno
 726              	.LVL46:
 727              		.loc 1 205 8 view .LVU150
 728 0006 0C23     		movs	r3, #12
 729 0008 0360     		str	r3, [r0]
 206:Src/syscalls.c **** 	return -1;
 730              		.loc 1 206 2 is_stmt 1 view .LVU151
 207:Src/syscalls.c **** }
 731              		.loc 1 207 1 is_stmt 0 view .LVU152
 732 000a 4FF0FF30 		mov	r0, #-1
 733 000e 08BD     		pop	{r3, pc}
 734              		.cfi_endproc
 735              	.LFE43:
 737              		.global	environ
 738              		.global	__env
 739              		.section	.bss.__env,"aw",%nobits
 740              		.align	2
 743              	__env:
 744 0000 00000000 		.space	4
 745              		.section	.bss.heap_end.7385,"aw",%nobits
 746              		.align	2
 747              		.set	.LANCHOR0,. + 0
 750              	heap_end.7385:
 751 0000 00000000 		.space	4
 752              		.section	.data.environ,"aw"
 753              		.align	2
 756              	environ:
 757 0000 00000000 		.word	__env
 758              		.weak	__io_putchar
 759              		.weak	__io_getchar
 760              		.text
 761              	.Letext0:
 762              		.file 2 "/opt/gcc-arm-none-eabi-9-2020-q2-update/arm-none-eabi/include/machine/_default_types.h"
 763              		.file 3 "/opt/gcc-arm-none-eabi-9-2020-q2-update/lib/gcc/arm-none-eabi/9.3.1/include/stddef.h"
 764              		.file 4 "/opt/gcc-arm-none-eabi-9-2020-q2-update/arm-none-eabi/include/sys/_types.h"
 765              		.file 5 "/opt/gcc-arm-none-eabi-9-2020-q2-update/arm-none-eabi/include/sys/reent.h"
 766              		.file 6 "/opt/gcc-arm-none-eabi-9-2020-q2-update/arm-none-eabi/include/sys/lock.h"
 767              		.file 7 "/opt/gcc-arm-none-eabi-9-2020-q2-update/arm-none-eabi/include/sys/_timeval.h"
 768              		.file 8 "/opt/gcc-arm-none-eabi-9-2020-q2-update/arm-none-eabi/include/sys/_timespec.h"
 769              		.file 9 "/opt/gcc-arm-none-eabi-9-2020-q2-update/arm-none-eabi/include/sys/types.h"
 770              		.file 10 "/opt/gcc-arm-none-eabi-9-2020-q2-update/arm-none-eabi/include/time.h"
 771              		.file 11 "/opt/gcc-arm-none-eabi-9-2020-q2-update/arm-none-eabi/include/sys/stat.h"
 772              		.file 12 "/opt/gcc-arm-none-eabi-9-2020-q2-update/arm-none-eabi/include/stdlib.h"
 773              		.file 13 "/opt/gcc-arm-none-eabi-9-2020-q2-update/arm-none-eabi/include/sys/errno.h"
ARM GAS  /tmp/ccHzo8Bb.s 			page 18


 774              		.file 14 "/opt/gcc-arm-none-eabi-9-2020-q2-update/arm-none-eabi/include/sys/times.h"
ARM GAS  /tmp/ccHzo8Bb.s 			page 19

