ARM GAS  /tmp/ccmXnEWy.s 			page 1


   1              		.cpu cortex-m4
   2              		.eabi_attribute 27, 1
   3              		.eabi_attribute 28, 1
   4              		.eabi_attribute 20, 1
   5              		.eabi_attribute 21, 1
   6              		.eabi_attribute 23, 3
   7              		.eabi_attribute 24, 1
   8              		.eabi_attribute 25, 1
   9              		.eabi_attribute 26, 1
  10              		.eabi_attribute 30, 2
  11              		.eabi_attribute 34, 1
  12              		.eabi_attribute 18, 4
  13              		.file	"usb_device.c"
  14              		.text
  15              	.Ltext0:
  16              		.cfi_sections	.debug_frame
  17              		.section	.text.MX_USB_DEVICE_Init,"ax",%progbits
  18              		.align	1
  19              		.p2align 2,,3
  20              		.global	MX_USB_DEVICE_Init
  21              		.arch armv7e-m
  22              		.syntax unified
  23              		.thumb
  24              		.thumb_func
  25              		.fpu fpv4-sp-d16
  27              	MX_USB_DEVICE_Init:
  28              	.LFB134:
  29              		.file 1 "Src/usb_device.c"
   1:Src/usb_device.c **** /* USER CODE BEGIN Header */
   2:Src/usb_device.c **** /**
   3:Src/usb_device.c ****   ******************************************************************************
   4:Src/usb_device.c ****   * @file           : usb_device.c
   5:Src/usb_device.c ****   * @version        : v1.0_Cube
   6:Src/usb_device.c ****   * @brief          : This file implements the USB Device
   7:Src/usb_device.c ****   ******************************************************************************
   8:Src/usb_device.c ****   * @attention
   9:Src/usb_device.c ****   *
  10:Src/usb_device.c ****   * <h2><center>&copy; Copyright (c) 2021 STMicroelectronics.
  11:Src/usb_device.c ****   * All rights reserved.</center></h2>
  12:Src/usb_device.c ****   *
  13:Src/usb_device.c ****   * This software component is licensed by ST under Ultimate Liberty license
  14:Src/usb_device.c ****   * SLA0044, the "License"; You may not use this file except in compliance with
  15:Src/usb_device.c ****   * the License. You may obtain a copy of the License at:
  16:Src/usb_device.c ****   *                             www.st.com/SLA0044
  17:Src/usb_device.c ****   *
  18:Src/usb_device.c ****   ******************************************************************************
  19:Src/usb_device.c ****   */
  20:Src/usb_device.c **** /* USER CODE END Header */
  21:Src/usb_device.c **** 
  22:Src/usb_device.c **** /* Includes ------------------------------------------------------------------*/
  23:Src/usb_device.c **** 
  24:Src/usb_device.c **** #include "usb_device.h"
  25:Src/usb_device.c **** #include "usbd_core.h"
  26:Src/usb_device.c **** #include "usbd_desc.h"
  27:Src/usb_device.c **** #include "usbd_cdc.h"
  28:Src/usb_device.c **** #include "usbd_cdc_if.h"
  29:Src/usb_device.c **** 
ARM GAS  /tmp/ccmXnEWy.s 			page 2


  30:Src/usb_device.c **** /* USER CODE BEGIN Includes */
  31:Src/usb_device.c **** 
  32:Src/usb_device.c **** /* USER CODE END Includes */
  33:Src/usb_device.c **** 
  34:Src/usb_device.c **** /* USER CODE BEGIN PV */
  35:Src/usb_device.c **** /* Private variables ---------------------------------------------------------*/
  36:Src/usb_device.c **** 
  37:Src/usb_device.c **** /* USER CODE END PV */
  38:Src/usb_device.c **** 
  39:Src/usb_device.c **** /* USER CODE BEGIN PFP */
  40:Src/usb_device.c **** /* Private function prototypes -----------------------------------------------*/
  41:Src/usb_device.c **** 
  42:Src/usb_device.c **** /* USER CODE END PFP */
  43:Src/usb_device.c **** 
  44:Src/usb_device.c **** /* USB Device Core handle declaration. */
  45:Src/usb_device.c **** USBD_HandleTypeDef hUsbDeviceFS;
  46:Src/usb_device.c **** 
  47:Src/usb_device.c **** /*
  48:Src/usb_device.c ****  * -- Insert your variables declaration here --
  49:Src/usb_device.c ****  */
  50:Src/usb_device.c **** /* USER CODE BEGIN 0 */
  51:Src/usb_device.c **** 
  52:Src/usb_device.c **** /* USER CODE END 0 */
  53:Src/usb_device.c **** 
  54:Src/usb_device.c **** /*
  55:Src/usb_device.c ****  * -- Insert your external function declaration here --
  56:Src/usb_device.c ****  */
  57:Src/usb_device.c **** /* USER CODE BEGIN 1 */
  58:Src/usb_device.c **** 
  59:Src/usb_device.c **** /* USER CODE END 1 */
  60:Src/usb_device.c **** 
  61:Src/usb_device.c **** /**
  62:Src/usb_device.c ****   * Init USB device Library, add supported class and start the library
  63:Src/usb_device.c ****   * @retval None
  64:Src/usb_device.c ****   */
  65:Src/usb_device.c **** void MX_USB_DEVICE_Init(void)
  66:Src/usb_device.c **** {
  30              		.loc 1 66 1 view -0
  31              		.cfi_startproc
  32              		@ args = 0, pretend = 0, frame = 0
  33              		@ frame_needed = 0, uses_anonymous_args = 0
  67:Src/usb_device.c ****   /* USER CODE BEGIN USB_DEVICE_Init_PreTreatment */
  68:Src/usb_device.c **** 
  69:Src/usb_device.c ****   /* USER CODE END USB_DEVICE_Init_PreTreatment */
  70:Src/usb_device.c **** 
  71:Src/usb_device.c ****   /* Init Device Library, add supported class and start the library. */
  72:Src/usb_device.c ****   if (USBD_Init(&hUsbDeviceFS, &FS_Desc, DEVICE_FS) != USBD_OK)
  34              		.loc 1 72 3 view .LVU1
  66:Src/usb_device.c ****   /* USER CODE BEGIN USB_DEVICE_Init_PreTreatment */
  35              		.loc 1 66 1 is_stmt 0 view .LVU2
  36 0000 08B5     		push	{r3, lr}
  37              	.LCFI0:
  38              		.cfi_def_cfa_offset 8
  39              		.cfi_offset 3, -8
  40              		.cfi_offset 14, -4
  41              		.loc 1 72 7 view .LVU3
  42 0002 1849     		ldr	r1, .L21
ARM GAS  /tmp/ccmXnEWy.s 			page 3


  43 0004 1848     		ldr	r0, .L21+4
  44 0006 0022     		movs	r2, #0
  45 0008 FFF7FEFF 		bl	USBD_Init
  46              	.LVL0:
  47              		.loc 1 72 6 view .LVU4
  48 000c 70B9     		cbnz	r0, .L17
  73:Src/usb_device.c ****   {
  74:Src/usb_device.c ****     Error_Handler();
  75:Src/usb_device.c ****   }
  76:Src/usb_device.c ****   if (USBD_RegisterClass(&hUsbDeviceFS, &USBD_CDC) != USBD_OK)
  49              		.loc 1 76 3 is_stmt 1 view .LVU5
  50              		.loc 1 76 7 is_stmt 0 view .LVU6
  51 000e 1749     		ldr	r1, .L21+8
  52 0010 1548     		ldr	r0, .L21+4
  53 0012 FFF7FEFF 		bl	USBD_RegisterClass
  54              	.LVL1:
  55              		.loc 1 76 6 view .LVU7
  56 0016 88B9     		cbnz	r0, .L18
  57              	.L3:
  77:Src/usb_device.c ****   {
  78:Src/usb_device.c ****     Error_Handler();
  79:Src/usb_device.c ****   }
  80:Src/usb_device.c ****   if (USBD_CDC_RegisterInterface(&hUsbDeviceFS, &USBD_Interface_fops_FS) != USBD_OK)
  58              		.loc 1 80 3 is_stmt 1 view .LVU8
  59              		.loc 1 80 7 is_stmt 0 view .LVU9
  60 0018 1549     		ldr	r1, .L21+12
  61 001a 1348     		ldr	r0, .L21+4
  62 001c FFF7FEFF 		bl	USBD_CDC_RegisterInterface
  63              	.LVL2:
  64              		.loc 1 80 6 view .LVU10
  65 0020 A0B9     		cbnz	r0, .L19
  66              	.L4:
  81:Src/usb_device.c ****   {
  82:Src/usb_device.c ****     Error_Handler();
  83:Src/usb_device.c ****   }
  84:Src/usb_device.c ****   if (USBD_Start(&hUsbDeviceFS) != USBD_OK)
  67              		.loc 1 84 3 is_stmt 1 view .LVU11
  68              		.loc 1 84 7 is_stmt 0 view .LVU12
  69 0022 1148     		ldr	r0, .L21+4
  70 0024 FFF7FEFF 		bl	USBD_Start
  71              	.LVL3:
  72              		.loc 1 84 6 view .LVU13
  73 0028 B8B9     		cbnz	r0, .L20
  74              	.L1:
  85:Src/usb_device.c ****   {
  86:Src/usb_device.c ****     Error_Handler();
  87:Src/usb_device.c ****   }
  88:Src/usb_device.c **** 
  89:Src/usb_device.c ****   /* USER CODE BEGIN USB_DEVICE_Init_PostTreatment */
  90:Src/usb_device.c **** 
  91:Src/usb_device.c ****   /* USER CODE END USB_DEVICE_Init_PostTreatment */
  92:Src/usb_device.c **** }
  75              		.loc 1 92 1 view .LVU14
  76 002a 08BD     		pop	{r3, pc}
  77              	.L17:
  74:Src/usb_device.c ****   }
  78              		.loc 1 74 5 is_stmt 1 view .LVU15
ARM GAS  /tmp/ccmXnEWy.s 			page 4


  79 002c FFF7FEFF 		bl	Error_Handler
  80              	.LVL4:
  76:Src/usb_device.c ****   {
  81              		.loc 1 76 3 view .LVU16
  76:Src/usb_device.c ****   {
  82              		.loc 1 76 7 is_stmt 0 view .LVU17
  83 0030 0E49     		ldr	r1, .L21+8
  84 0032 0D48     		ldr	r0, .L21+4
  85 0034 FFF7FEFF 		bl	USBD_RegisterClass
  86              	.LVL5:
  76:Src/usb_device.c ****   {
  87              		.loc 1 76 6 view .LVU18
  88 0038 0028     		cmp	r0, #0
  89 003a EDD0     		beq	.L3
  90              	.L18:
  78:Src/usb_device.c ****   }
  91              		.loc 1 78 5 is_stmt 1 view .LVU19
  92 003c FFF7FEFF 		bl	Error_Handler
  93              	.LVL6:
  80:Src/usb_device.c ****   {
  94              		.loc 1 80 3 view .LVU20
  80:Src/usb_device.c ****   {
  95              		.loc 1 80 7 is_stmt 0 view .LVU21
  96 0040 0B49     		ldr	r1, .L21+12
  97 0042 0948     		ldr	r0, .L21+4
  98 0044 FFF7FEFF 		bl	USBD_CDC_RegisterInterface
  99              	.LVL7:
  80:Src/usb_device.c ****   {
 100              		.loc 1 80 6 view .LVU22
 101 0048 0028     		cmp	r0, #0
 102 004a EAD0     		beq	.L4
 103              	.L19:
  82:Src/usb_device.c ****   }
 104              		.loc 1 82 5 is_stmt 1 view .LVU23
 105 004c FFF7FEFF 		bl	Error_Handler
 106              	.LVL8:
  84:Src/usb_device.c ****   {
 107              		.loc 1 84 3 view .LVU24
  84:Src/usb_device.c ****   {
 108              		.loc 1 84 7 is_stmt 0 view .LVU25
 109 0050 0548     		ldr	r0, .L21+4
 110 0052 FFF7FEFF 		bl	USBD_Start
 111              	.LVL9:
  84:Src/usb_device.c ****   {
 112              		.loc 1 84 6 view .LVU26
 113 0056 0028     		cmp	r0, #0
 114 0058 E7D0     		beq	.L1
 115              	.L20:
  86:Src/usb_device.c ****   }
 116              		.loc 1 86 5 is_stmt 1 view .LVU27
 117              		.loc 1 92 1 is_stmt 0 view .LVU28
 118 005a BDE80840 		pop	{r3, lr}
 119              	.LCFI1:
 120              		.cfi_restore 14
 121              		.cfi_restore 3
 122              		.cfi_def_cfa_offset 0
  86:Src/usb_device.c ****   }
ARM GAS  /tmp/ccmXnEWy.s 			page 5


 123              		.loc 1 86 5 view .LVU29
 124 005e FFF7FEBF 		b	Error_Handler
 125              	.LVL10:
 126              	.L22:
 127 0062 00BF     		.align	2
 128              	.L21:
 129 0064 00000000 		.word	FS_Desc
 130 0068 00000000 		.word	hUsbDeviceFS
 131 006c 00000000 		.word	USBD_CDC
 132 0070 00000000 		.word	USBD_Interface_fops_FS
 133              		.cfi_endproc
 134              	.LFE134:
 136              		.comm	hUsbDeviceFS,720,4
 137              		.text
 138              	.Letext0:
 139              		.file 2 "/opt/gcc-arm-none-eabi-9-2020-q2-update/arm-none-eabi/include/machine/_default_types.h"
 140              		.file 3 "/opt/gcc-arm-none-eabi-9-2020-q2-update/arm-none-eabi/include/sys/_stdint.h"
 141              		.file 4 "Drivers/CMSIS/Include/core_cm4.h"
 142              		.file 5 "Drivers/CMSIS/Device/ST/STM32F4xx/Include/system_stm32f4xx.h"
 143              		.file 6 "Drivers/STM32F4xx_HAL_Driver/Inc/stm32f4xx_hal.h"
 144              		.file 7 "/opt/gcc-arm-none-eabi-9-2020-q2-update/lib/gcc/arm-none-eabi/9.3.1/include/stddef.h"
 145              		.file 8 "/opt/gcc-arm-none-eabi-9-2020-q2-update/arm-none-eabi/include/sys/_types.h"
 146              		.file 9 "/opt/gcc-arm-none-eabi-9-2020-q2-update/arm-none-eabi/include/sys/reent.h"
 147              		.file 10 "/opt/gcc-arm-none-eabi-9-2020-q2-update/arm-none-eabi/include/sys/lock.h"
 148              		.file 11 "/opt/gcc-arm-none-eabi-9-2020-q2-update/arm-none-eabi/include/stdlib.h"
 149              		.file 12 "Middlewares/ST/STM32_USB_Device_Library/Core/Inc/usbd_def.h"
 150              		.file 13 "Inc/usbd_desc.h"
 151              		.file 14 "Middlewares/ST/STM32_USB_Device_Library/Class/CDC/Inc/usbd_cdc.h"
 152              		.file 15 "Inc/usbd_cdc_if.h"
 153              		.file 16 "Middlewares/ST/STM32_USB_Device_Library/Core/Inc/usbd_core.h"
 154              		.file 17 "Inc/main.h"
ARM GAS  /tmp/ccmXnEWy.s 			page 6

