ARM GAS  /tmp/ccFeeFGq.s 			page 1


   1              		.cpu cortex-m4
   2              		.eabi_attribute 27, 1
   3              		.eabi_attribute 28, 1
   4              		.eabi_attribute 20, 1
   5              		.eabi_attribute 21, 1
   6              		.eabi_attribute 23, 3
   7              		.eabi_attribute 24, 1
   8              		.eabi_attribute 25, 1
   9              		.eabi_attribute 26, 1
  10              		.eabi_attribute 30, 2
  11              		.eabi_attribute 34, 1
  12              		.eabi_attribute 18, 4
  13              		.file	"usbd_conf.c"
  14              		.text
  15              	.Ltext0:
  16              		.cfi_sections	.debug_frame
  17              		.section	.text.HAL_PCD_MspInit,"ax",%progbits
  18              		.align	1
  19              		.p2align 2,,3
  20              		.global	HAL_PCD_MspInit
  21              		.arch armv7e-m
  22              		.syntax unified
  23              		.thumb
  24              		.thumb_func
  25              		.fpu fpv4-sp-d16
  27              	HAL_PCD_MspInit:
  28              	.LVL0:
  29              	.LFB134:
  30              		.file 1 "Src/usbd_conf.c"
   1:Src/usbd_conf.c **** /* USER CODE BEGIN Header */
   2:Src/usbd_conf.c **** /**
   3:Src/usbd_conf.c ****   ******************************************************************************
   4:Src/usbd_conf.c ****   * @file           : usbd_conf.c
   5:Src/usbd_conf.c ****   * @version        : v1.0_Cube
   6:Src/usbd_conf.c ****   * @brief          : This file implements the board support package for the USB device library
   7:Src/usbd_conf.c ****   ******************************************************************************
   8:Src/usbd_conf.c ****   * @attention
   9:Src/usbd_conf.c ****   *
  10:Src/usbd_conf.c ****   * <h2><center>&copy; Copyright (c) 2021 STMicroelectronics.
  11:Src/usbd_conf.c ****   * All rights reserved.</center></h2>
  12:Src/usbd_conf.c ****   *
  13:Src/usbd_conf.c ****   * This software component is licensed by ST under Ultimate Liberty license
  14:Src/usbd_conf.c ****   * SLA0044, the "License"; You may not use this file except in compliance with
  15:Src/usbd_conf.c ****   * the License. You may obtain a copy of the License at:
  16:Src/usbd_conf.c ****   *                             www.st.com/SLA0044
  17:Src/usbd_conf.c ****   *
  18:Src/usbd_conf.c ****   ******************************************************************************
  19:Src/usbd_conf.c ****   */
  20:Src/usbd_conf.c **** /* USER CODE END Header */
  21:Src/usbd_conf.c **** 
  22:Src/usbd_conf.c **** /* Includes ------------------------------------------------------------------*/
  23:Src/usbd_conf.c **** #include "stm32f4xx.h"
  24:Src/usbd_conf.c **** #include "stm32f4xx_hal.h"
  25:Src/usbd_conf.c **** #include "usbd_def.h"
  26:Src/usbd_conf.c **** #include "usbd_core.h"
  27:Src/usbd_conf.c **** 
  28:Src/usbd_conf.c **** #include "usbd_cdc.h"
ARM GAS  /tmp/ccFeeFGq.s 			page 2


  29:Src/usbd_conf.c **** 
  30:Src/usbd_conf.c **** /* USER CODE BEGIN Includes */
  31:Src/usbd_conf.c **** 
  32:Src/usbd_conf.c **** /* USER CODE END Includes */
  33:Src/usbd_conf.c **** 
  34:Src/usbd_conf.c **** /* Private typedef -----------------------------------------------------------*/
  35:Src/usbd_conf.c **** /* Private define ------------------------------------------------------------*/
  36:Src/usbd_conf.c **** /* Private macro -------------------------------------------------------------*/
  37:Src/usbd_conf.c **** 
  38:Src/usbd_conf.c **** /* USER CODE BEGIN PV */
  39:Src/usbd_conf.c **** /* Private variables ---------------------------------------------------------*/
  40:Src/usbd_conf.c **** 
  41:Src/usbd_conf.c **** /* USER CODE END PV */
  42:Src/usbd_conf.c **** 
  43:Src/usbd_conf.c **** PCD_HandleTypeDef hpcd_USB_OTG_FS;
  44:Src/usbd_conf.c **** void Error_Handler(void);
  45:Src/usbd_conf.c **** 
  46:Src/usbd_conf.c **** /* External functions --------------------------------------------------------*/
  47:Src/usbd_conf.c **** void SystemClock_Config(void);
  48:Src/usbd_conf.c **** 
  49:Src/usbd_conf.c **** /* USER CODE BEGIN 0 */
  50:Src/usbd_conf.c **** 
  51:Src/usbd_conf.c **** /* USER CODE END 0 */
  52:Src/usbd_conf.c **** 
  53:Src/usbd_conf.c **** /* USER CODE BEGIN PFP */
  54:Src/usbd_conf.c **** /* Private function prototypes -----------------------------------------------*/
  55:Src/usbd_conf.c **** USBD_StatusTypeDef USBD_Get_USB_Status(HAL_StatusTypeDef hal_status);
  56:Src/usbd_conf.c **** 
  57:Src/usbd_conf.c **** /* USER CODE END PFP */
  58:Src/usbd_conf.c **** 
  59:Src/usbd_conf.c **** /* Private functions ---------------------------------------------------------*/
  60:Src/usbd_conf.c **** 
  61:Src/usbd_conf.c **** /* USER CODE BEGIN 1 */
  62:Src/usbd_conf.c **** 
  63:Src/usbd_conf.c **** /* USER CODE END 1 */
  64:Src/usbd_conf.c **** 
  65:Src/usbd_conf.c **** /*******************************************************************************
  66:Src/usbd_conf.c ****                        LL Driver Callbacks (PCD -> USB Device Library)
  67:Src/usbd_conf.c **** *******************************************************************************/
  68:Src/usbd_conf.c **** /* MSP Init */
  69:Src/usbd_conf.c **** 
  70:Src/usbd_conf.c **** void HAL_PCD_MspInit(PCD_HandleTypeDef* pcdHandle)
  71:Src/usbd_conf.c **** {
  31              		.loc 1 71 1 view -0
  32              		.cfi_startproc
  33              		@ args = 0, pretend = 0, frame = 32
  34              		@ frame_needed = 0, uses_anonymous_args = 0
  72:Src/usbd_conf.c ****   GPIO_InitTypeDef GPIO_InitStruct = {0};
  35              		.loc 1 72 3 view .LVU1
  71:Src/usbd_conf.c ****   GPIO_InitTypeDef GPIO_InitStruct = {0};
  36              		.loc 1 71 1 is_stmt 0 view .LVU2
  37 0000 70B5     		push	{r4, r5, r6, lr}
  38              	.LCFI0:
  39              		.cfi_def_cfa_offset 16
  40              		.cfi_offset 4, -16
  41              		.cfi_offset 5, -12
  42              		.cfi_offset 6, -8
ARM GAS  /tmp/ccFeeFGq.s 			page 3


  43              		.cfi_offset 14, -4
  73:Src/usbd_conf.c ****   if(pcdHandle->Instance==USB_OTG_FS)
  44              		.loc 1 73 5 view .LVU3
  45 0002 0368     		ldr	r3, [r0]
  71:Src/usbd_conf.c ****   GPIO_InitTypeDef GPIO_InitStruct = {0};
  46              		.loc 1 71 1 view .LVU4
  47 0004 88B0     		sub	sp, sp, #32
  48              	.LCFI1:
  49              		.cfi_def_cfa_offset 48
  72:Src/usbd_conf.c ****   GPIO_InitTypeDef GPIO_InitStruct = {0};
  50              		.loc 1 72 20 view .LVU5
  51 0006 0024     		movs	r4, #0
  52              		.loc 1 73 5 view .LVU6
  53 0008 B3F1A04F 		cmp	r3, #1342177280
  72:Src/usbd_conf.c ****   GPIO_InitTypeDef GPIO_InitStruct = {0};
  54              		.loc 1 72 20 view .LVU7
  55 000c CDE90344 		strd	r4, r4, [sp, #12]
  56 0010 CDE90544 		strd	r4, r4, [sp, #20]
  57 0014 0794     		str	r4, [sp, #28]
  58              		.loc 1 73 3 is_stmt 1 view .LVU8
  59              		.loc 1 73 5 is_stmt 0 view .LVU9
  60 0016 01D0     		beq	.L5
  74:Src/usbd_conf.c ****   {
  75:Src/usbd_conf.c ****   /* USER CODE BEGIN USB_OTG_FS_MspInit 0 */
  76:Src/usbd_conf.c **** 
  77:Src/usbd_conf.c ****   /* USER CODE END USB_OTG_FS_MspInit 0 */
  78:Src/usbd_conf.c **** 
  79:Src/usbd_conf.c ****     __HAL_RCC_GPIOA_CLK_ENABLE();
  80:Src/usbd_conf.c ****     /**USB_OTG_FS GPIO Configuration
  81:Src/usbd_conf.c ****     PA10     ------> USB_OTG_FS_ID
  82:Src/usbd_conf.c ****     PA11     ------> USB_OTG_FS_DM
  83:Src/usbd_conf.c ****     PA12     ------> USB_OTG_FS_DP
  84:Src/usbd_conf.c ****     */
  85:Src/usbd_conf.c ****     GPIO_InitStruct.Pin = GPIO_PIN_10|USB_DM_Pin|USB_DP_Pin;
  86:Src/usbd_conf.c ****     GPIO_InitStruct.Mode = GPIO_MODE_AF_PP;
  87:Src/usbd_conf.c ****     GPIO_InitStruct.Pull = GPIO_NOPULL;
  88:Src/usbd_conf.c ****     GPIO_InitStruct.Speed = GPIO_SPEED_FREQ_VERY_HIGH;
  89:Src/usbd_conf.c ****     GPIO_InitStruct.Alternate = GPIO_AF10_OTG_FS;
  90:Src/usbd_conf.c ****     HAL_GPIO_Init(GPIOA, &GPIO_InitStruct);
  91:Src/usbd_conf.c **** 
  92:Src/usbd_conf.c ****     /* Peripheral clock enable */
  93:Src/usbd_conf.c ****     __HAL_RCC_USB_OTG_FS_CLK_ENABLE();
  94:Src/usbd_conf.c **** 
  95:Src/usbd_conf.c ****     /* Peripheral interrupt init */
  96:Src/usbd_conf.c ****     HAL_NVIC_SetPriority(OTG_FS_IRQn, 5, 0);
  97:Src/usbd_conf.c ****     HAL_NVIC_EnableIRQ(OTG_FS_IRQn);
  98:Src/usbd_conf.c ****   /* USER CODE BEGIN USB_OTG_FS_MspInit 1 */
  99:Src/usbd_conf.c **** 
 100:Src/usbd_conf.c ****   /* USER CODE END USB_OTG_FS_MspInit 1 */
 101:Src/usbd_conf.c ****   }
 102:Src/usbd_conf.c **** }
  61              		.loc 1 102 1 view .LVU10
  62 0018 08B0     		add	sp, sp, #32
  63              	.LCFI2:
  64              		.cfi_remember_state
  65              		.cfi_def_cfa_offset 16
  66              		@ sp needed
ARM GAS  /tmp/ccFeeFGq.s 			page 4


  67 001a 70BD     		pop	{r4, r5, r6, pc}
  68              	.L5:
  69              	.LCFI3:
  70              		.cfi_restore_state
  79:Src/usbd_conf.c ****     /**USB_OTG_FS GPIO Configuration
  71              		.loc 1 79 5 is_stmt 1 view .LVU11
  72              	.LBB24:
  79:Src/usbd_conf.c ****     /**USB_OTG_FS GPIO Configuration
  73              		.loc 1 79 5 view .LVU12
  74 001c 184D     		ldr	r5, .L6
  75 001e 0194     		str	r4, [sp, #4]
  79:Src/usbd_conf.c ****     /**USB_OTG_FS GPIO Configuration
  76              		.loc 1 79 5 view .LVU13
  77 0020 2B6B     		ldr	r3, [r5, #48]
  78              	.LBE24:
  90:Src/usbd_conf.c **** 
  79              		.loc 1 90 5 is_stmt 0 view .LVU14
  80 0022 1848     		ldr	r0, .L6+4
  81              	.LVL1:
  82              	.LBB25:
  79:Src/usbd_conf.c ****     /**USB_OTG_FS GPIO Configuration
  83              		.loc 1 79 5 view .LVU15
  84 0024 43F00103 		orr	r3, r3, #1
  85 0028 2B63     		str	r3, [r5, #48]
  79:Src/usbd_conf.c ****     /**USB_OTG_FS GPIO Configuration
  86              		.loc 1 79 5 is_stmt 1 view .LVU16
  87 002a 2B6B     		ldr	r3, [r5, #48]
  88              	.LBE25:
  87:Src/usbd_conf.c ****     GPIO_InitStruct.Speed = GPIO_SPEED_FREQ_VERY_HIGH;
  89              		.loc 1 87 26 is_stmt 0 view .LVU17
  90 002c 0594     		str	r4, [sp, #20]
  91              	.LBB26:
  79:Src/usbd_conf.c ****     /**USB_OTG_FS GPIO Configuration
  92              		.loc 1 79 5 view .LVU18
  93 002e 03F00103 		and	r3, r3, #1
  94 0032 0193     		str	r3, [sp, #4]
  79:Src/usbd_conf.c ****     /**USB_OTG_FS GPIO Configuration
  95              		.loc 1 79 5 is_stmt 1 view .LVU19
  96              	.LBE26:
  85:Src/usbd_conf.c ****     GPIO_InitStruct.Mode = GPIO_MODE_AF_PP;
  97              		.loc 1 85 25 is_stmt 0 view .LVU20
  98 0034 4FF4E052 		mov	r2, #7168
  86:Src/usbd_conf.c ****     GPIO_InitStruct.Pull = GPIO_NOPULL;
  99              		.loc 1 86 26 view .LVU21
 100 0038 0223     		movs	r3, #2
  90:Src/usbd_conf.c **** 
 101              		.loc 1 90 5 view .LVU22
 102 003a 03A9     		add	r1, sp, #12
  85:Src/usbd_conf.c ****     GPIO_InitStruct.Mode = GPIO_MODE_AF_PP;
 103              		.loc 1 85 25 view .LVU23
 104 003c 0392     		str	r2, [sp, #12]
  86:Src/usbd_conf.c ****     GPIO_InitStruct.Pull = GPIO_NOPULL;
 105              		.loc 1 86 26 view .LVU24
 106 003e 0493     		str	r3, [sp, #16]
  88:Src/usbd_conf.c ****     GPIO_InitStruct.Alternate = GPIO_AF10_OTG_FS;
 107              		.loc 1 88 27 view .LVU25
 108 0040 0322     		movs	r2, #3
ARM GAS  /tmp/ccFeeFGq.s 			page 5


  89:Src/usbd_conf.c ****     HAL_GPIO_Init(GPIOA, &GPIO_InitStruct);
 109              		.loc 1 89 31 view .LVU26
 110 0042 0A23     		movs	r3, #10
 111 0044 CDE90623 		strd	r2, r3, [sp, #24]
 112              	.LBB27:
  79:Src/usbd_conf.c ****     /**USB_OTG_FS GPIO Configuration
 113              		.loc 1 79 5 view .LVU27
 114 0048 019E     		ldr	r6, [sp, #4]
 115              	.LBE27:
  79:Src/usbd_conf.c ****     /**USB_OTG_FS GPIO Configuration
 116              		.loc 1 79 5 is_stmt 1 view .LVU28
  85:Src/usbd_conf.c ****     GPIO_InitStruct.Mode = GPIO_MODE_AF_PP;
 117              		.loc 1 85 5 view .LVU29
  86:Src/usbd_conf.c ****     GPIO_InitStruct.Pull = GPIO_NOPULL;
 118              		.loc 1 86 5 view .LVU30
  87:Src/usbd_conf.c ****     GPIO_InitStruct.Speed = GPIO_SPEED_FREQ_VERY_HIGH;
 119              		.loc 1 87 5 view .LVU31
  88:Src/usbd_conf.c ****     GPIO_InitStruct.Alternate = GPIO_AF10_OTG_FS;
 120              		.loc 1 88 5 view .LVU32
  90:Src/usbd_conf.c **** 
 121              		.loc 1 90 5 view .LVU33
 122 004a FFF7FEFF 		bl	HAL_GPIO_Init
 123              	.LVL2:
  93:Src/usbd_conf.c **** 
 124              		.loc 1 93 5 view .LVU34
  93:Src/usbd_conf.c **** 
 125              		.loc 1 93 5 view .LVU35
 126 004e 6B6B     		ldr	r3, [r5, #52]
 127 0050 43F08003 		orr	r3, r3, #128
 128 0054 6B63     		str	r3, [r5, #52]
  93:Src/usbd_conf.c **** 
 129              		.loc 1 93 5 view .LVU36
 130              	.LBB28:
  93:Src/usbd_conf.c **** 
 131              		.loc 1 93 5 view .LVU37
 132 0056 0294     		str	r4, [sp, #8]
  93:Src/usbd_conf.c **** 
 133              		.loc 1 93 5 view .LVU38
 134 0058 6B6C     		ldr	r3, [r5, #68]
 135 005a 43F48043 		orr	r3, r3, #16384
 136 005e 6B64     		str	r3, [r5, #68]
  93:Src/usbd_conf.c **** 
 137              		.loc 1 93 5 view .LVU39
 138 0060 6B6C     		ldr	r3, [r5, #68]
 139 0062 03F48043 		and	r3, r3, #16384
 140              	.LBE28:
  96:Src/usbd_conf.c ****     HAL_NVIC_EnableIRQ(OTG_FS_IRQn);
 141              		.loc 1 96 5 is_stmt 0 view .LVU40
 142 0066 2246     		mov	r2, r4
 143              	.LBB29:
  93:Src/usbd_conf.c **** 
 144              		.loc 1 93 5 view .LVU41
 145 0068 0293     		str	r3, [sp, #8]
  93:Src/usbd_conf.c **** 
 146              		.loc 1 93 5 is_stmt 1 view .LVU42
 147              	.LBE29:
  96:Src/usbd_conf.c ****     HAL_NVIC_EnableIRQ(OTG_FS_IRQn);
ARM GAS  /tmp/ccFeeFGq.s 			page 6


 148              		.loc 1 96 5 is_stmt 0 view .LVU43
 149 006a 0521     		movs	r1, #5
 150 006c 4320     		movs	r0, #67
 151              	.LBB30:
  93:Src/usbd_conf.c **** 
 152              		.loc 1 93 5 view .LVU44
 153 006e 029B     		ldr	r3, [sp, #8]
 154              	.LBE30:
  93:Src/usbd_conf.c **** 
 155              		.loc 1 93 5 is_stmt 1 view .LVU45
  93:Src/usbd_conf.c **** 
 156              		.loc 1 93 5 view .LVU46
  96:Src/usbd_conf.c ****     HAL_NVIC_EnableIRQ(OTG_FS_IRQn);
 157              		.loc 1 96 5 view .LVU47
 158 0070 FFF7FEFF 		bl	HAL_NVIC_SetPriority
 159              	.LVL3:
  97:Src/usbd_conf.c ****   /* USER CODE BEGIN USB_OTG_FS_MspInit 1 */
 160              		.loc 1 97 5 view .LVU48
 161 0074 4320     		movs	r0, #67
 162 0076 FFF7FEFF 		bl	HAL_NVIC_EnableIRQ
 163              	.LVL4:
 164              		.loc 1 102 1 is_stmt 0 view .LVU49
 165 007a 08B0     		add	sp, sp, #32
 166              	.LCFI4:
 167              		.cfi_def_cfa_offset 16
 168              		@ sp needed
 169 007c 70BD     		pop	{r4, r5, r6, pc}
 170              	.L7:
 171 007e 00BF     		.align	2
 172              	.L6:
 173 0080 00380240 		.word	1073887232
 174 0084 00000240 		.word	1073872896
 175              		.cfi_endproc
 176              	.LFE134:
 178              		.section	.text.HAL_PCD_MspDeInit,"ax",%progbits
 179              		.align	1
 180              		.p2align 2,,3
 181              		.global	HAL_PCD_MspDeInit
 182              		.syntax unified
 183              		.thumb
 184              		.thumb_func
 185              		.fpu fpv4-sp-d16
 187              	HAL_PCD_MspDeInit:
 188              	.LVL5:
 189              	.LFB135:
 103:Src/usbd_conf.c **** 
 104:Src/usbd_conf.c **** void HAL_PCD_MspDeInit(PCD_HandleTypeDef* pcdHandle)
 105:Src/usbd_conf.c **** {
 190              		.loc 1 105 1 is_stmt 1 view -0
 191              		.cfi_startproc
 192              		@ args = 0, pretend = 0, frame = 0
 193              		@ frame_needed = 0, uses_anonymous_args = 0
 106:Src/usbd_conf.c ****   if(pcdHandle->Instance==USB_OTG_FS)
 194              		.loc 1 106 3 view .LVU51
 105:Src/usbd_conf.c ****   if(pcdHandle->Instance==USB_OTG_FS)
 195              		.loc 1 105 1 is_stmt 0 view .LVU52
 196 0000 08B5     		push	{r3, lr}
ARM GAS  /tmp/ccFeeFGq.s 			page 7


 197              	.LCFI5:
 198              		.cfi_def_cfa_offset 8
 199              		.cfi_offset 3, -8
 200              		.cfi_offset 14, -4
 201              		.loc 1 106 5 view .LVU53
 202 0002 0368     		ldr	r3, [r0]
 203 0004 B3F1A04F 		cmp	r3, #1342177280
 204 0008 00D0     		beq	.L11
 107:Src/usbd_conf.c ****   {
 108:Src/usbd_conf.c ****   /* USER CODE BEGIN USB_OTG_FS_MspDeInit 0 */
 109:Src/usbd_conf.c **** 
 110:Src/usbd_conf.c ****   /* USER CODE END USB_OTG_FS_MspDeInit 0 */
 111:Src/usbd_conf.c ****     /* Peripheral clock disable */
 112:Src/usbd_conf.c ****     __HAL_RCC_USB_OTG_FS_CLK_DISABLE();
 113:Src/usbd_conf.c **** 
 114:Src/usbd_conf.c ****     /**USB_OTG_FS GPIO Configuration
 115:Src/usbd_conf.c ****     PA10     ------> USB_OTG_FS_ID
 116:Src/usbd_conf.c ****     PA11     ------> USB_OTG_FS_DM
 117:Src/usbd_conf.c ****     PA12     ------> USB_OTG_FS_DP
 118:Src/usbd_conf.c ****     */
 119:Src/usbd_conf.c ****     HAL_GPIO_DeInit(GPIOA, GPIO_PIN_10|USB_DM_Pin|USB_DP_Pin);
 120:Src/usbd_conf.c **** 
 121:Src/usbd_conf.c ****     /* Peripheral interrupt Deinit*/
 122:Src/usbd_conf.c ****     HAL_NVIC_DisableIRQ(OTG_FS_IRQn);
 123:Src/usbd_conf.c **** 
 124:Src/usbd_conf.c ****   /* USER CODE BEGIN USB_OTG_FS_MspDeInit 1 */
 125:Src/usbd_conf.c **** 
 126:Src/usbd_conf.c ****   /* USER CODE END USB_OTG_FS_MspDeInit 1 */
 127:Src/usbd_conf.c ****   }
 128:Src/usbd_conf.c **** }
 205              		.loc 1 128 1 view .LVU54
 206 000a 08BD     		pop	{r3, pc}
 207              	.L11:
 112:Src/usbd_conf.c **** 
 208              		.loc 1 112 5 is_stmt 1 view .LVU55
 209 000c 074A     		ldr	r2, .L12
 119:Src/usbd_conf.c **** 
 210              		.loc 1 119 5 is_stmt 0 view .LVU56
 211 000e 0848     		ldr	r0, .L12+4
 212              	.LVL6:
 112:Src/usbd_conf.c **** 
 213              		.loc 1 112 5 view .LVU57
 214 0010 536B     		ldr	r3, [r2, #52]
 215 0012 23F08003 		bic	r3, r3, #128
 216 0016 5363     		str	r3, [r2, #52]
 119:Src/usbd_conf.c **** 
 217              		.loc 1 119 5 is_stmt 1 view .LVU58
 218 0018 4FF4E051 		mov	r1, #7168
 219 001c FFF7FEFF 		bl	HAL_GPIO_DeInit
 220              	.LVL7:
 122:Src/usbd_conf.c **** 
 221              		.loc 1 122 5 view .LVU59
 222              		.loc 1 128 1 is_stmt 0 view .LVU60
 223 0020 BDE80840 		pop	{r3, lr}
 224              	.LCFI6:
 225              		.cfi_restore 14
 226              		.cfi_restore 3
ARM GAS  /tmp/ccFeeFGq.s 			page 8


 227              		.cfi_def_cfa_offset 0
 122:Src/usbd_conf.c **** 
 228              		.loc 1 122 5 view .LVU61
 229 0024 4320     		movs	r0, #67
 230 0026 FFF7FEBF 		b	HAL_NVIC_DisableIRQ
 231              	.LVL8:
 232              	.L13:
 233 002a 00BF     		.align	2
 234              	.L12:
 235 002c 00380240 		.word	1073887232
 236 0030 00000240 		.word	1073872896
 237              		.cfi_endproc
 238              	.LFE135:
 240              		.section	.text.HAL_PCD_SetupStageCallback,"ax",%progbits
 241              		.align	1
 242              		.p2align 2,,3
 243              		.global	HAL_PCD_SetupStageCallback
 244              		.syntax unified
 245              		.thumb
 246              		.thumb_func
 247              		.fpu fpv4-sp-d16
 249              	HAL_PCD_SetupStageCallback:
 250              	.LVL9:
 251              	.LFB136:
 129:Src/usbd_conf.c **** 
 130:Src/usbd_conf.c **** /**
 131:Src/usbd_conf.c ****   * @brief  Setup stage callback
 132:Src/usbd_conf.c ****   * @param  hpcd: PCD handle
 133:Src/usbd_conf.c ****   * @retval None
 134:Src/usbd_conf.c ****   */
 135:Src/usbd_conf.c **** #if (USE_HAL_PCD_REGISTER_CALLBACKS == 1U)
 136:Src/usbd_conf.c **** static void PCD_SetupStageCallback(PCD_HandleTypeDef *hpcd)
 137:Src/usbd_conf.c **** #else
 138:Src/usbd_conf.c **** void HAL_PCD_SetupStageCallback(PCD_HandleTypeDef *hpcd)
 139:Src/usbd_conf.c **** #endif /* USE_HAL_PCD_REGISTER_CALLBACKS */
 140:Src/usbd_conf.c **** {
 252              		.loc 1 140 1 is_stmt 1 view -0
 253              		.cfi_startproc
 254              		@ args = 0, pretend = 0, frame = 0
 255              		@ frame_needed = 0, uses_anonymous_args = 0
 256              		@ link register save eliminated.
 141:Src/usbd_conf.c ****   USBD_LL_SetupStage((USBD_HandleTypeDef*)hpcd->pData, (uint8_t *)hpcd->Setup);
 257              		.loc 1 141 3 view .LVU63
 258 0000 00F57171 		add	r1, r0, #964
 259 0004 D0F80404 		ldr	r0, [r0, #1028]
 260              	.LVL10:
 261              		.loc 1 141 3 is_stmt 0 view .LVU64
 262 0008 FFF7FEBF 		b	USBD_LL_SetupStage
 263              	.LVL11:
 264              		.loc 1 141 3 view .LVU65
 265              		.cfi_endproc
 266              	.LFE136:
 268              		.section	.text.HAL_PCD_DataOutStageCallback,"ax",%progbits
 269              		.align	1
 270              		.p2align 2,,3
 271              		.global	HAL_PCD_DataOutStageCallback
 272              		.syntax unified
ARM GAS  /tmp/ccFeeFGq.s 			page 9


 273              		.thumb
 274              		.thumb_func
 275              		.fpu fpv4-sp-d16
 277              	HAL_PCD_DataOutStageCallback:
 278              	.LVL12:
 279              	.LFB137:
 142:Src/usbd_conf.c **** }
 143:Src/usbd_conf.c **** 
 144:Src/usbd_conf.c **** /**
 145:Src/usbd_conf.c ****   * @brief  Data Out stage callback.
 146:Src/usbd_conf.c ****   * @param  hpcd: PCD handle
 147:Src/usbd_conf.c ****   * @param  epnum: Endpoint number
 148:Src/usbd_conf.c ****   * @retval None
 149:Src/usbd_conf.c ****   */
 150:Src/usbd_conf.c **** #if (USE_HAL_PCD_REGISTER_CALLBACKS == 1U)
 151:Src/usbd_conf.c **** static void PCD_DataOutStageCallback(PCD_HandleTypeDef *hpcd, uint8_t epnum)
 152:Src/usbd_conf.c **** #else
 153:Src/usbd_conf.c **** void HAL_PCD_DataOutStageCallback(PCD_HandleTypeDef *hpcd, uint8_t epnum)
 154:Src/usbd_conf.c **** #endif /* USE_HAL_PCD_REGISTER_CALLBACKS */
 155:Src/usbd_conf.c **** {
 280              		.loc 1 155 1 is_stmt 1 view -0
 281              		.cfi_startproc
 282              		@ args = 0, pretend = 0, frame = 0
 283              		@ frame_needed = 0, uses_anonymous_args = 0
 284              		@ link register save eliminated.
 156:Src/usbd_conf.c ****   USBD_LL_DataOutStage((USBD_HandleTypeDef*)hpcd->pData, epnum, hpcd->OUT_ep[epnum].xfer_buff);
 285              		.loc 1 156 3 view .LVU67
 286 0000 C1EBC103 		rsb	r3, r1, r1, lsl #3
 287 0004 00EB8303 		add	r3, r0, r3, lsl #2
 288 0008 D0F80404 		ldr	r0, [r0, #1028]
 289              	.LVL13:
 290              		.loc 1 156 3 is_stmt 0 view .LVU68
 291 000c D3F80822 		ldr	r2, [r3, #520]
 292 0010 FFF7FEBF 		b	USBD_LL_DataOutStage
 293              	.LVL14:
 294              		.loc 1 156 3 view .LVU69
 295              		.cfi_endproc
 296              	.LFE137:
 298              		.section	.text.HAL_PCD_DataInStageCallback,"ax",%progbits
 299              		.align	1
 300              		.p2align 2,,3
 301              		.global	HAL_PCD_DataInStageCallback
 302              		.syntax unified
 303              		.thumb
 304              		.thumb_func
 305              		.fpu fpv4-sp-d16
 307              	HAL_PCD_DataInStageCallback:
 308              	.LVL15:
 309              	.LFB138:
 157:Src/usbd_conf.c **** }
 158:Src/usbd_conf.c **** 
 159:Src/usbd_conf.c **** /**
 160:Src/usbd_conf.c ****   * @brief  Data In stage callback.
 161:Src/usbd_conf.c ****   * @param  hpcd: PCD handle
 162:Src/usbd_conf.c ****   * @param  epnum: Endpoint number
 163:Src/usbd_conf.c ****   * @retval None
 164:Src/usbd_conf.c ****   */
ARM GAS  /tmp/ccFeeFGq.s 			page 10


 165:Src/usbd_conf.c **** #if (USE_HAL_PCD_REGISTER_CALLBACKS == 1U)
 166:Src/usbd_conf.c **** static void PCD_DataInStageCallback(PCD_HandleTypeDef *hpcd, uint8_t epnum)
 167:Src/usbd_conf.c **** #else
 168:Src/usbd_conf.c **** void HAL_PCD_DataInStageCallback(PCD_HandleTypeDef *hpcd, uint8_t epnum)
 169:Src/usbd_conf.c **** #endif /* USE_HAL_PCD_REGISTER_CALLBACKS */
 170:Src/usbd_conf.c **** {
 310              		.loc 1 170 1 is_stmt 1 view -0
 311              		.cfi_startproc
 312              		@ args = 0, pretend = 0, frame = 0
 313              		@ frame_needed = 0, uses_anonymous_args = 0
 314              		@ link register save eliminated.
 171:Src/usbd_conf.c ****   USBD_LL_DataInStage((USBD_HandleTypeDef*)hpcd->pData, epnum, hpcd->IN_ep[epnum].xfer_buff);
 315              		.loc 1 171 3 view .LVU71
 316 0000 C1EBC103 		rsb	r3, r1, r1, lsl #3
 317 0004 00EB8303 		add	r3, r0, r3, lsl #2
 318 0008 D0F80404 		ldr	r0, [r0, #1028]
 319              	.LVL16:
 320              		.loc 1 171 3 is_stmt 0 view .LVU72
 321 000c 9A6C     		ldr	r2, [r3, #72]
 322 000e FFF7FEBF 		b	USBD_LL_DataInStage
 323              	.LVL17:
 324              		.loc 1 171 3 view .LVU73
 325              		.cfi_endproc
 326              	.LFE138:
 328 0012 00BF     		.section	.text.HAL_PCD_SOFCallback,"ax",%progbits
 329              		.align	1
 330              		.p2align 2,,3
 331              		.global	HAL_PCD_SOFCallback
 332              		.syntax unified
 333              		.thumb
 334              		.thumb_func
 335              		.fpu fpv4-sp-d16
 337              	HAL_PCD_SOFCallback:
 338              	.LVL18:
 339              	.LFB139:
 172:Src/usbd_conf.c **** }
 173:Src/usbd_conf.c **** 
 174:Src/usbd_conf.c **** /**
 175:Src/usbd_conf.c ****   * @brief  SOF callback.
 176:Src/usbd_conf.c ****   * @param  hpcd: PCD handle
 177:Src/usbd_conf.c ****   * @retval None
 178:Src/usbd_conf.c ****   */
 179:Src/usbd_conf.c **** #if (USE_HAL_PCD_REGISTER_CALLBACKS == 1U)
 180:Src/usbd_conf.c **** static void PCD_SOFCallback(PCD_HandleTypeDef *hpcd)
 181:Src/usbd_conf.c **** #else
 182:Src/usbd_conf.c **** void HAL_PCD_SOFCallback(PCD_HandleTypeDef *hpcd)
 183:Src/usbd_conf.c **** #endif /* USE_HAL_PCD_REGISTER_CALLBACKS */
 184:Src/usbd_conf.c **** {
 340              		.loc 1 184 1 is_stmt 1 view -0
 341              		.cfi_startproc
 342              		@ args = 0, pretend = 0, frame = 0
 343              		@ frame_needed = 0, uses_anonymous_args = 0
 344              		@ link register save eliminated.
 185:Src/usbd_conf.c ****   USBD_LL_SOF((USBD_HandleTypeDef*)hpcd->pData);
 345              		.loc 1 185 3 view .LVU75
 346 0000 D0F80404 		ldr	r0, [r0, #1028]
 347              	.LVL19:
ARM GAS  /tmp/ccFeeFGq.s 			page 11


 348              		.loc 1 185 3 is_stmt 0 view .LVU76
 349 0004 FFF7FEBF 		b	USBD_LL_SOF
 350              	.LVL20:
 351              		.cfi_endproc
 352              	.LFE139:
 354              		.section	.text.HAL_PCD_ResetCallback,"ax",%progbits
 355              		.align	1
 356              		.p2align 2,,3
 357              		.global	HAL_PCD_ResetCallback
 358              		.syntax unified
 359              		.thumb
 360              		.thumb_func
 361              		.fpu fpv4-sp-d16
 363              	HAL_PCD_ResetCallback:
 364              	.LVL21:
 365              	.LFB140:
 186:Src/usbd_conf.c **** }
 187:Src/usbd_conf.c **** 
 188:Src/usbd_conf.c **** /**
 189:Src/usbd_conf.c ****   * @brief  Reset callback.
 190:Src/usbd_conf.c ****   * @param  hpcd: PCD handle
 191:Src/usbd_conf.c ****   * @retval None
 192:Src/usbd_conf.c ****   */
 193:Src/usbd_conf.c **** #if (USE_HAL_PCD_REGISTER_CALLBACKS == 1U)
 194:Src/usbd_conf.c **** static void PCD_ResetCallback(PCD_HandleTypeDef *hpcd)
 195:Src/usbd_conf.c **** #else
 196:Src/usbd_conf.c **** void HAL_PCD_ResetCallback(PCD_HandleTypeDef *hpcd)
 197:Src/usbd_conf.c **** #endif /* USE_HAL_PCD_REGISTER_CALLBACKS */
 198:Src/usbd_conf.c **** {
 366              		.loc 1 198 1 is_stmt 1 view -0
 367              		.cfi_startproc
 368              		@ args = 0, pretend = 0, frame = 0
 369              		@ frame_needed = 0, uses_anonymous_args = 0
 199:Src/usbd_conf.c ****   USBD_SpeedTypeDef speed = USBD_SPEED_FULL;
 370              		.loc 1 199 3 view .LVU78
 200:Src/usbd_conf.c **** 
 201:Src/usbd_conf.c ****   if ( hpcd->Init.speed == PCD_SPEED_HIGH)
 371              		.loc 1 201 3 view .LVU79
 372              		.loc 1 201 18 is_stmt 0 view .LVU80
 373 0000 C168     		ldr	r1, [r0, #12]
 198:Src/usbd_conf.c ****   USBD_SpeedTypeDef speed = USBD_SPEED_FULL;
 374              		.loc 1 198 1 view .LVU81
 375 0002 10B5     		push	{r4, lr}
 376              	.LCFI7:
 377              		.cfi_def_cfa_offset 8
 378              		.cfi_offset 4, -8
 379              		.cfi_offset 14, -4
 198:Src/usbd_conf.c ****   USBD_SpeedTypeDef speed = USBD_SPEED_FULL;
 380              		.loc 1 198 1 view .LVU82
 381 0004 0446     		mov	r4, r0
 382              		.loc 1 201 6 view .LVU83
 383 0006 11B1     		cbz	r1, .L19
 202:Src/usbd_conf.c ****   {
 203:Src/usbd_conf.c ****     speed = USBD_SPEED_HIGH;
 204:Src/usbd_conf.c ****   }
 205:Src/usbd_conf.c ****   else if ( hpcd->Init.speed == PCD_SPEED_FULL)
 384              		.loc 1 205 8 is_stmt 1 view .LVU84
ARM GAS  /tmp/ccFeeFGq.s 			page 12


 385              		.loc 1 205 11 is_stmt 0 view .LVU85
 386 0008 0229     		cmp	r1, #2
 387 000a 0AD1     		bne	.L23
 206:Src/usbd_conf.c ****   {
 207:Src/usbd_conf.c ****     speed = USBD_SPEED_FULL;
 388              		.loc 1 207 11 view .LVU86
 389 000c 0121     		movs	r1, #1
 390              	.LVL22:
 391              	.L19:
 208:Src/usbd_conf.c ****   }
 209:Src/usbd_conf.c ****   else
 210:Src/usbd_conf.c ****   {
 211:Src/usbd_conf.c ****     Error_Handler();
 212:Src/usbd_conf.c ****   }
 213:Src/usbd_conf.c ****     /* Set Speed. */
 214:Src/usbd_conf.c ****   USBD_LL_SetSpeed((USBD_HandleTypeDef*)hpcd->pData, speed);
 392              		.loc 1 214 3 is_stmt 1 view .LVU87
 393 000e D4F80404 		ldr	r0, [r4, #1028]
 394 0012 FFF7FEFF 		bl	USBD_LL_SetSpeed
 395              	.LVL23:
 215:Src/usbd_conf.c **** 
 216:Src/usbd_conf.c ****   /* Reset Device. */
 217:Src/usbd_conf.c ****   USBD_LL_Reset((USBD_HandleTypeDef*)hpcd->pData);
 396              		.loc 1 217 3 view .LVU88
 397 0016 D4F80404 		ldr	r0, [r4, #1028]
 218:Src/usbd_conf.c **** }
 398              		.loc 1 218 1 is_stmt 0 view .LVU89
 399 001a BDE81040 		pop	{r4, lr}
 400              	.LCFI8:
 401              		.cfi_remember_state
 402              		.cfi_restore 14
 403              		.cfi_restore 4
 404              		.cfi_def_cfa_offset 0
 405              	.LVL24:
 217:Src/usbd_conf.c **** }
 406              		.loc 1 217 3 view .LVU90
 407 001e FFF7FEBF 		b	USBD_LL_Reset
 408              	.LVL25:
 409              	.L23:
 410              	.LCFI9:
 411              		.cfi_restore_state
 211:Src/usbd_conf.c ****   }
 412              		.loc 1 211 5 is_stmt 1 view .LVU91
 413 0022 FFF7FEFF 		bl	Error_Handler
 414              	.LVL26:
 199:Src/usbd_conf.c **** 
 415              		.loc 1 199 21 is_stmt 0 view .LVU92
 416 0026 0121     		movs	r1, #1
 417 0028 F1E7     		b	.L19
 418              		.cfi_endproc
 419              	.LFE140:
 421 002a 00BF     		.section	.text.HAL_PCD_SuspendCallback,"ax",%progbits
 422              		.align	1
 423              		.p2align 2,,3
 424              		.global	HAL_PCD_SuspendCallback
 425              		.syntax unified
 426              		.thumb
ARM GAS  /tmp/ccFeeFGq.s 			page 13


 427              		.thumb_func
 428              		.fpu fpv4-sp-d16
 430              	HAL_PCD_SuspendCallback:
 431              	.LVL27:
 432              	.LFB141:
 219:Src/usbd_conf.c **** 
 220:Src/usbd_conf.c **** /**
 221:Src/usbd_conf.c ****   * @brief  Suspend callback.
 222:Src/usbd_conf.c ****   * When Low power mode is enabled the debug cannot be used (IAR, Keil doesn't support it)
 223:Src/usbd_conf.c ****   * @param  hpcd: PCD handle
 224:Src/usbd_conf.c ****   * @retval None
 225:Src/usbd_conf.c ****   */
 226:Src/usbd_conf.c **** #if (USE_HAL_PCD_REGISTER_CALLBACKS == 1U)
 227:Src/usbd_conf.c **** static void PCD_SuspendCallback(PCD_HandleTypeDef *hpcd)
 228:Src/usbd_conf.c **** #else
 229:Src/usbd_conf.c **** void HAL_PCD_SuspendCallback(PCD_HandleTypeDef *hpcd)
 230:Src/usbd_conf.c **** #endif /* USE_HAL_PCD_REGISTER_CALLBACKS */
 231:Src/usbd_conf.c **** {
 433              		.loc 1 231 1 is_stmt 1 view -0
 434              		.cfi_startproc
 435              		@ args = 0, pretend = 0, frame = 0
 436              		@ frame_needed = 0, uses_anonymous_args = 0
 232:Src/usbd_conf.c ****   /* Inform USB library that core enters in suspend Mode. */
 233:Src/usbd_conf.c ****   USBD_LL_Suspend((USBD_HandleTypeDef*)hpcd->pData);
 437              		.loc 1 233 3 view .LVU94
 231:Src/usbd_conf.c ****   /* Inform USB library that core enters in suspend Mode. */
 438              		.loc 1 231 1 is_stmt 0 view .LVU95
 439 0000 10B5     		push	{r4, lr}
 440              	.LCFI10:
 441              		.cfi_def_cfa_offset 8
 442              		.cfi_offset 4, -8
 443              		.cfi_offset 14, -4
 231:Src/usbd_conf.c ****   /* Inform USB library that core enters in suspend Mode. */
 444              		.loc 1 231 1 view .LVU96
 445 0002 0446     		mov	r4, r0
 446              		.loc 1 233 3 view .LVU97
 447 0004 D0F80404 		ldr	r0, [r0, #1028]
 448              	.LVL28:
 449              		.loc 1 233 3 view .LVU98
 450 0008 FFF7FEFF 		bl	USBD_LL_Suspend
 451              	.LVL29:
 234:Src/usbd_conf.c ****   __HAL_PCD_GATE_PHYCLOCK(hpcd);
 452              		.loc 1 234 3 is_stmt 1 view .LVU99
 453 000c 2268     		ldr	r2, [r4]
 454 000e D2F8003E 		ldr	r3, [r2, #3584]
 455 0012 43F00103 		orr	r3, r3, #1
 456 0016 C2F8003E 		str	r3, [r2, #3584]
 235:Src/usbd_conf.c ****   /* Enter in STOP mode. */
 236:Src/usbd_conf.c ****   /* USER CODE BEGIN 2 */
 237:Src/usbd_conf.c ****   if (hpcd->Init.low_power_enable)
 457              		.loc 1 237 3 view .LVU100
 458              		.loc 1 237 6 is_stmt 0 view .LVU101
 459 001a 236A     		ldr	r3, [r4, #32]
 460 001c 23B1     		cbz	r3, .L24
 238:Src/usbd_conf.c ****   {
 239:Src/usbd_conf.c ****     /* Set SLEEPDEEP bit and SleepOnExit of Cortex System Control Register. */
 240:Src/usbd_conf.c ****     SCB->SCR |= (uint32_t)((uint32_t)(SCB_SCR_SLEEPDEEP_Msk | SCB_SCR_SLEEPONEXIT_Msk));
ARM GAS  /tmp/ccFeeFGq.s 			page 14


 461              		.loc 1 240 5 is_stmt 1 view .LVU102
 462              		.loc 1 240 14 is_stmt 0 view .LVU103
 463 001e 034A     		ldr	r2, .L30
 464 0020 1369     		ldr	r3, [r2, #16]
 465 0022 43F00603 		orr	r3, r3, #6
 466 0026 1361     		str	r3, [r2, #16]
 467              	.L24:
 241:Src/usbd_conf.c ****   }
 242:Src/usbd_conf.c ****   /* USER CODE END 2 */
 243:Src/usbd_conf.c **** }
 468              		.loc 1 243 1 view .LVU104
 469 0028 10BD     		pop	{r4, pc}
 470              	.LVL30:
 471              	.L31:
 472              		.loc 1 243 1 view .LVU105
 473 002a 00BF     		.align	2
 474              	.L30:
 475 002c 00ED00E0 		.word	-536810240
 476              		.cfi_endproc
 477              	.LFE141:
 479              		.section	.text.HAL_PCD_ResumeCallback,"ax",%progbits
 480              		.align	1
 481              		.p2align 2,,3
 482              		.global	HAL_PCD_ResumeCallback
 483              		.syntax unified
 484              		.thumb
 485              		.thumb_func
 486              		.fpu fpv4-sp-d16
 488              	HAL_PCD_ResumeCallback:
 489              	.LVL31:
 490              	.LFB142:
 244:Src/usbd_conf.c **** 
 245:Src/usbd_conf.c **** /**
 246:Src/usbd_conf.c ****   * @brief  Resume callback.
 247:Src/usbd_conf.c ****   * When Low power mode is enabled the debug cannot be used (IAR, Keil doesn't support it)
 248:Src/usbd_conf.c ****   * @param  hpcd: PCD handle
 249:Src/usbd_conf.c ****   * @retval None
 250:Src/usbd_conf.c ****   */
 251:Src/usbd_conf.c **** #if (USE_HAL_PCD_REGISTER_CALLBACKS == 1U)
 252:Src/usbd_conf.c **** static void PCD_ResumeCallback(PCD_HandleTypeDef *hpcd)
 253:Src/usbd_conf.c **** #else
 254:Src/usbd_conf.c **** void HAL_PCD_ResumeCallback(PCD_HandleTypeDef *hpcd)
 255:Src/usbd_conf.c **** #endif /* USE_HAL_PCD_REGISTER_CALLBACKS */
 256:Src/usbd_conf.c **** {
 491              		.loc 1 256 1 is_stmt 1 view -0
 492              		.cfi_startproc
 493              		@ args = 0, pretend = 0, frame = 0
 494              		@ frame_needed = 0, uses_anonymous_args = 0
 495              		@ link register save eliminated.
 257:Src/usbd_conf.c ****   /* USER CODE BEGIN 3 */
 258:Src/usbd_conf.c **** 
 259:Src/usbd_conf.c ****   /* USER CODE END 3 */
 260:Src/usbd_conf.c ****   USBD_LL_Resume((USBD_HandleTypeDef*)hpcd->pData);
 496              		.loc 1 260 3 view .LVU107
 497 0000 D0F80404 		ldr	r0, [r0, #1028]
 498              	.LVL32:
 499              		.loc 1 260 3 is_stmt 0 view .LVU108
ARM GAS  /tmp/ccFeeFGq.s 			page 15


 500 0004 FFF7FEBF 		b	USBD_LL_Resume
 501              	.LVL33:
 502              		.cfi_endproc
 503              	.LFE142:
 505              		.section	.text.HAL_PCD_ISOOUTIncompleteCallback,"ax",%progbits
 506              		.align	1
 507              		.p2align 2,,3
 508              		.global	HAL_PCD_ISOOUTIncompleteCallback
 509              		.syntax unified
 510              		.thumb
 511              		.thumb_func
 512              		.fpu fpv4-sp-d16
 514              	HAL_PCD_ISOOUTIncompleteCallback:
 515              	.LVL34:
 516              	.LFB143:
 261:Src/usbd_conf.c **** }
 262:Src/usbd_conf.c **** 
 263:Src/usbd_conf.c **** /**
 264:Src/usbd_conf.c ****   * @brief  ISOOUTIncomplete callback.
 265:Src/usbd_conf.c ****   * @param  hpcd: PCD handle
 266:Src/usbd_conf.c ****   * @param  epnum: Endpoint number
 267:Src/usbd_conf.c ****   * @retval None
 268:Src/usbd_conf.c ****   */
 269:Src/usbd_conf.c **** #if (USE_HAL_PCD_REGISTER_CALLBACKS == 1U)
 270:Src/usbd_conf.c **** static void PCD_ISOOUTIncompleteCallback(PCD_HandleTypeDef *hpcd, uint8_t epnum)
 271:Src/usbd_conf.c **** #else
 272:Src/usbd_conf.c **** void HAL_PCD_ISOOUTIncompleteCallback(PCD_HandleTypeDef *hpcd, uint8_t epnum)
 273:Src/usbd_conf.c **** #endif /* USE_HAL_PCD_REGISTER_CALLBACKS */
 274:Src/usbd_conf.c **** {
 517              		.loc 1 274 1 is_stmt 1 view -0
 518              		.cfi_startproc
 519              		@ args = 0, pretend = 0, frame = 0
 520              		@ frame_needed = 0, uses_anonymous_args = 0
 521              		@ link register save eliminated.
 275:Src/usbd_conf.c ****   USBD_LL_IsoOUTIncomplete((USBD_HandleTypeDef*)hpcd->pData, epnum);
 522              		.loc 1 275 3 view .LVU110
 523 0000 D0F80404 		ldr	r0, [r0, #1028]
 524              	.LVL35:
 525              		.loc 1 275 3 is_stmt 0 view .LVU111
 526 0004 FFF7FEBF 		b	USBD_LL_IsoOUTIncomplete
 527              	.LVL36:
 528              		.loc 1 275 3 view .LVU112
 529              		.cfi_endproc
 530              	.LFE143:
 532              		.section	.text.HAL_PCD_ISOINIncompleteCallback,"ax",%progbits
 533              		.align	1
 534              		.p2align 2,,3
 535              		.global	HAL_PCD_ISOINIncompleteCallback
 536              		.syntax unified
 537              		.thumb
 538              		.thumb_func
 539              		.fpu fpv4-sp-d16
 541              	HAL_PCD_ISOINIncompleteCallback:
 542              	.LVL37:
 543              	.LFB144:
 276:Src/usbd_conf.c **** }
 277:Src/usbd_conf.c **** 
ARM GAS  /tmp/ccFeeFGq.s 			page 16


 278:Src/usbd_conf.c **** /**
 279:Src/usbd_conf.c ****   * @brief  ISOINIncomplete callback.
 280:Src/usbd_conf.c ****   * @param  hpcd: PCD handle
 281:Src/usbd_conf.c ****   * @param  epnum: Endpoint number
 282:Src/usbd_conf.c ****   * @retval None
 283:Src/usbd_conf.c ****   */
 284:Src/usbd_conf.c **** #if (USE_HAL_PCD_REGISTER_CALLBACKS == 1U)
 285:Src/usbd_conf.c **** static void PCD_ISOINIncompleteCallback(PCD_HandleTypeDef *hpcd, uint8_t epnum)
 286:Src/usbd_conf.c **** #else
 287:Src/usbd_conf.c **** void HAL_PCD_ISOINIncompleteCallback(PCD_HandleTypeDef *hpcd, uint8_t epnum)
 288:Src/usbd_conf.c **** #endif /* USE_HAL_PCD_REGISTER_CALLBACKS */
 289:Src/usbd_conf.c **** {
 544              		.loc 1 289 1 is_stmt 1 view -0
 545              		.cfi_startproc
 546              		@ args = 0, pretend = 0, frame = 0
 547              		@ frame_needed = 0, uses_anonymous_args = 0
 548              		@ link register save eliminated.
 290:Src/usbd_conf.c ****   USBD_LL_IsoINIncomplete((USBD_HandleTypeDef*)hpcd->pData, epnum);
 549              		.loc 1 290 3 view .LVU114
 550 0000 D0F80404 		ldr	r0, [r0, #1028]
 551              	.LVL38:
 552              		.loc 1 290 3 is_stmt 0 view .LVU115
 553 0004 FFF7FEBF 		b	USBD_LL_IsoINIncomplete
 554              	.LVL39:
 555              		.loc 1 290 3 view .LVU116
 556              		.cfi_endproc
 557              	.LFE144:
 559              		.section	.text.HAL_PCD_ConnectCallback,"ax",%progbits
 560              		.align	1
 561              		.p2align 2,,3
 562              		.global	HAL_PCD_ConnectCallback
 563              		.syntax unified
 564              		.thumb
 565              		.thumb_func
 566              		.fpu fpv4-sp-d16
 568              	HAL_PCD_ConnectCallback:
 569              	.LVL40:
 570              	.LFB145:
 291:Src/usbd_conf.c **** }
 292:Src/usbd_conf.c **** 
 293:Src/usbd_conf.c **** /**
 294:Src/usbd_conf.c ****   * @brief  Connect callback.
 295:Src/usbd_conf.c ****   * @param  hpcd: PCD handle
 296:Src/usbd_conf.c ****   * @retval None
 297:Src/usbd_conf.c ****   */
 298:Src/usbd_conf.c **** #if (USE_HAL_PCD_REGISTER_CALLBACKS == 1U)
 299:Src/usbd_conf.c **** static void PCD_ConnectCallback(PCD_HandleTypeDef *hpcd)
 300:Src/usbd_conf.c **** #else
 301:Src/usbd_conf.c **** void HAL_PCD_ConnectCallback(PCD_HandleTypeDef *hpcd)
 302:Src/usbd_conf.c **** #endif /* USE_HAL_PCD_REGISTER_CALLBACKS */
 303:Src/usbd_conf.c **** {
 571              		.loc 1 303 1 is_stmt 1 view -0
 572              		.cfi_startproc
 573              		@ args = 0, pretend = 0, frame = 0
 574              		@ frame_needed = 0, uses_anonymous_args = 0
 575              		@ link register save eliminated.
 304:Src/usbd_conf.c ****   USBD_LL_DevConnected((USBD_HandleTypeDef*)hpcd->pData);
ARM GAS  /tmp/ccFeeFGq.s 			page 17


 576              		.loc 1 304 3 view .LVU118
 577 0000 D0F80404 		ldr	r0, [r0, #1028]
 578              	.LVL41:
 579              		.loc 1 304 3 is_stmt 0 view .LVU119
 580 0004 FFF7FEBF 		b	USBD_LL_DevConnected
 581              	.LVL42:
 582              		.cfi_endproc
 583              	.LFE145:
 585              		.section	.text.HAL_PCD_DisconnectCallback,"ax",%progbits
 586              		.align	1
 587              		.p2align 2,,3
 588              		.global	HAL_PCD_DisconnectCallback
 589              		.syntax unified
 590              		.thumb
 591              		.thumb_func
 592              		.fpu fpv4-sp-d16
 594              	HAL_PCD_DisconnectCallback:
 595              	.LVL43:
 596              	.LFB146:
 305:Src/usbd_conf.c **** }
 306:Src/usbd_conf.c **** 
 307:Src/usbd_conf.c **** /**
 308:Src/usbd_conf.c ****   * @brief  Disconnect callback.
 309:Src/usbd_conf.c ****   * @param  hpcd: PCD handle
 310:Src/usbd_conf.c ****   * @retval None
 311:Src/usbd_conf.c ****   */
 312:Src/usbd_conf.c **** #if (USE_HAL_PCD_REGISTER_CALLBACKS == 1U)
 313:Src/usbd_conf.c **** static void PCD_DisconnectCallback(PCD_HandleTypeDef *hpcd)
 314:Src/usbd_conf.c **** #else
 315:Src/usbd_conf.c **** void HAL_PCD_DisconnectCallback(PCD_HandleTypeDef *hpcd)
 316:Src/usbd_conf.c **** #endif /* USE_HAL_PCD_REGISTER_CALLBACKS */
 317:Src/usbd_conf.c **** {
 597              		.loc 1 317 1 is_stmt 1 view -0
 598              		.cfi_startproc
 599              		@ args = 0, pretend = 0, frame = 0
 600              		@ frame_needed = 0, uses_anonymous_args = 0
 601              		@ link register save eliminated.
 318:Src/usbd_conf.c ****   USBD_LL_DevDisconnected((USBD_HandleTypeDef*)hpcd->pData);
 602              		.loc 1 318 3 view .LVU121
 603 0000 D0F80404 		ldr	r0, [r0, #1028]
 604              	.LVL44:
 605              		.loc 1 318 3 is_stmt 0 view .LVU122
 606 0004 FFF7FEBF 		b	USBD_LL_DevDisconnected
 607              	.LVL45:
 608              		.cfi_endproc
 609              	.LFE146:
 611              		.section	.text.USBD_LL_Init,"ax",%progbits
 612              		.align	1
 613              		.p2align 2,,3
 614              		.global	USBD_LL_Init
 615              		.syntax unified
 616              		.thumb
 617              		.thumb_func
 618              		.fpu fpv4-sp-d16
 620              	USBD_LL_Init:
 621              	.LVL46:
 622              	.LFB147:
ARM GAS  /tmp/ccFeeFGq.s 			page 18


 319:Src/usbd_conf.c **** }
 320:Src/usbd_conf.c **** 
 321:Src/usbd_conf.c **** /*******************************************************************************
 322:Src/usbd_conf.c ****                        LL Driver Interface (USB Device Library --> PCD)
 323:Src/usbd_conf.c **** *******************************************************************************/
 324:Src/usbd_conf.c **** 
 325:Src/usbd_conf.c **** /**
 326:Src/usbd_conf.c ****   * @brief  Initializes the low level portion of the device driver.
 327:Src/usbd_conf.c ****   * @param  pdev: Device handle
 328:Src/usbd_conf.c ****   * @retval USBD status
 329:Src/usbd_conf.c ****   */
 330:Src/usbd_conf.c **** USBD_StatusTypeDef USBD_LL_Init(USBD_HandleTypeDef *pdev)
 331:Src/usbd_conf.c **** {
 623              		.loc 1 331 1 is_stmt 1 view -0
 624              		.cfi_startproc
 625              		@ args = 0, pretend = 0, frame = 0
 626              		@ frame_needed = 0, uses_anonymous_args = 0
 332:Src/usbd_conf.c ****   /* Init USB Ip. */
 333:Src/usbd_conf.c ****   if (pdev->id == DEVICE_FS) {
 627              		.loc 1 333 3 view .LVU124
 628              		.loc 1 333 6 is_stmt 0 view .LVU125
 629 0000 0278     		ldrb	r2, [r0]	@ zero_extendqisi2
 630 0002 0AB1     		cbz	r2, .L47
 334:Src/usbd_conf.c ****   /* Link the driver to the stack. */
 335:Src/usbd_conf.c ****   hpcd_USB_OTG_FS.pData = pdev;
 336:Src/usbd_conf.c ****   pdev->pData = &hpcd_USB_OTG_FS;
 337:Src/usbd_conf.c **** 
 338:Src/usbd_conf.c ****   hpcd_USB_OTG_FS.Instance = USB_OTG_FS;
 339:Src/usbd_conf.c ****   hpcd_USB_OTG_FS.Init.dev_endpoints = 4;
 340:Src/usbd_conf.c ****   hpcd_USB_OTG_FS.Init.speed = PCD_SPEED_FULL;
 341:Src/usbd_conf.c ****   hpcd_USB_OTG_FS.Init.dma_enable = DISABLE;
 342:Src/usbd_conf.c ****   hpcd_USB_OTG_FS.Init.phy_itface = PCD_PHY_EMBEDDED;
 343:Src/usbd_conf.c ****   hpcd_USB_OTG_FS.Init.Sof_enable = DISABLE;
 344:Src/usbd_conf.c ****   hpcd_USB_OTG_FS.Init.low_power_enable = DISABLE;
 345:Src/usbd_conf.c ****   hpcd_USB_OTG_FS.Init.lpm_enable = DISABLE;
 346:Src/usbd_conf.c ****   hpcd_USB_OTG_FS.Init.vbus_sensing_enable = DISABLE;
 347:Src/usbd_conf.c ****   hpcd_USB_OTG_FS.Init.use_dedicated_ep1 = DISABLE;
 348:Src/usbd_conf.c ****   if (HAL_PCD_Init(&hpcd_USB_OTG_FS) != HAL_OK)
 349:Src/usbd_conf.c ****   {
 350:Src/usbd_conf.c ****     Error_Handler( );
 351:Src/usbd_conf.c ****   }
 352:Src/usbd_conf.c **** 
 353:Src/usbd_conf.c **** #if (USE_HAL_PCD_REGISTER_CALLBACKS == 1U)
 354:Src/usbd_conf.c ****   /* Register USB PCD CallBacks */
 355:Src/usbd_conf.c ****   HAL_PCD_RegisterCallback(&hpcd_USB_OTG_FS, HAL_PCD_SOF_CB_ID, PCD_SOFCallback);
 356:Src/usbd_conf.c ****   HAL_PCD_RegisterCallback(&hpcd_USB_OTG_FS, HAL_PCD_SETUPSTAGE_CB_ID, PCD_SetupStageCallback);
 357:Src/usbd_conf.c ****   HAL_PCD_RegisterCallback(&hpcd_USB_OTG_FS, HAL_PCD_RESET_CB_ID, PCD_ResetCallback);
 358:Src/usbd_conf.c ****   HAL_PCD_RegisterCallback(&hpcd_USB_OTG_FS, HAL_PCD_SUSPEND_CB_ID, PCD_SuspendCallback);
 359:Src/usbd_conf.c ****   HAL_PCD_RegisterCallback(&hpcd_USB_OTG_FS, HAL_PCD_RESUME_CB_ID, PCD_ResumeCallback);
 360:Src/usbd_conf.c ****   HAL_PCD_RegisterCallback(&hpcd_USB_OTG_FS, HAL_PCD_CONNECT_CB_ID, PCD_ConnectCallback);
 361:Src/usbd_conf.c ****   HAL_PCD_RegisterCallback(&hpcd_USB_OTG_FS, HAL_PCD_DISCONNECT_CB_ID, PCD_DisconnectCallback);
 362:Src/usbd_conf.c **** 
 363:Src/usbd_conf.c ****   HAL_PCD_RegisterDataOutStageCallback(&hpcd_USB_OTG_FS, PCD_DataOutStageCallback);
 364:Src/usbd_conf.c ****   HAL_PCD_RegisterDataInStageCallback(&hpcd_USB_OTG_FS, PCD_DataInStageCallback);
 365:Src/usbd_conf.c ****   HAL_PCD_RegisterIsoOutIncpltCallback(&hpcd_USB_OTG_FS, PCD_ISOOUTIncompleteCallback);
 366:Src/usbd_conf.c ****   HAL_PCD_RegisterIsoInIncpltCallback(&hpcd_USB_OTG_FS, PCD_ISOINIncompleteCallback);
 367:Src/usbd_conf.c **** #endif /* USE_HAL_PCD_REGISTER_CALLBACKS */
ARM GAS  /tmp/ccFeeFGq.s 			page 19


 368:Src/usbd_conf.c ****   HAL_PCDEx_SetRxFiFo(&hpcd_USB_OTG_FS, 0x80);
 369:Src/usbd_conf.c ****   HAL_PCDEx_SetTxFiFo(&hpcd_USB_OTG_FS, 0, 0x40);
 370:Src/usbd_conf.c ****   HAL_PCDEx_SetTxFiFo(&hpcd_USB_OTG_FS, 1, 0x80);
 371:Src/usbd_conf.c ****   }
 372:Src/usbd_conf.c ****   return USBD_OK;
 631              		.loc 1 372 3 is_stmt 1 view .LVU126
 373:Src/usbd_conf.c **** }
 632              		.loc 1 373 1 is_stmt 0 view .LVU127
 633 0004 0020     		movs	r0, #0
 634              	.LVL47:
 635              		.loc 1 373 1 view .LVU128
 636 0006 7047     		bx	lr
 637              	.LVL48:
 638              	.L47:
 335:Src/usbd_conf.c ****   pdev->pData = &hpcd_USB_OTG_FS;
 639              		.loc 1 335 3 is_stmt 1 view .LVU129
 331:Src/usbd_conf.c ****   /* Init USB Ip. */
 640              		.loc 1 331 1 is_stmt 0 view .LVU130
 641 0008 38B5     		push	{r3, r4, r5, lr}
 642              	.LCFI11:
 643              		.cfi_def_cfa_offset 16
 644              		.cfi_offset 3, -16
 645              		.cfi_offset 4, -12
 646              		.cfi_offset 5, -8
 647              		.cfi_offset 14, -4
 335:Src/usbd_conf.c ****   pdev->pData = &hpcd_USB_OTG_FS;
 648              		.loc 1 335 25 view .LVU131
 649 000a 154B     		ldr	r3, .L49
 340:Src/usbd_conf.c ****   hpcd_USB_OTG_FS.Init.dma_enable = DISABLE;
 650              		.loc 1 340 30 view .LVU132
 651 000c 0221     		movs	r1, #2
 335:Src/usbd_conf.c ****   pdev->pData = &hpcd_USB_OTG_FS;
 652              		.loc 1 335 25 view .LVU133
 653 000e C3F80404 		str	r0, [r3, #1028]
 336:Src/usbd_conf.c **** 
 654              		.loc 1 336 3 is_stmt 1 view .LVU134
 338:Src/usbd_conf.c ****   hpcd_USB_OTG_FS.Init.dev_endpoints = 4;
 655              		.loc 1 338 28 is_stmt 0 view .LVU135
 656 0012 4FF0A045 		mov	r5, #1342177280
 339:Src/usbd_conf.c ****   hpcd_USB_OTG_FS.Init.speed = PCD_SPEED_FULL;
 657              		.loc 1 339 38 view .LVU136
 658 0016 0424     		movs	r4, #4
 336:Src/usbd_conf.c **** 
 659              		.loc 1 336 15 view .LVU137
 660 0018 C0F8C432 		str	r3, [r0, #708]
 338:Src/usbd_conf.c ****   hpcd_USB_OTG_FS.Init.dev_endpoints = 4;
 661              		.loc 1 338 3 is_stmt 1 view .LVU138
 348:Src/usbd_conf.c ****   {
 662              		.loc 1 348 7 is_stmt 0 view .LVU139
 663 001c 1846     		mov	r0, r3
 664              	.LVL49:
 344:Src/usbd_conf.c ****   hpcd_USB_OTG_FS.Init.lpm_enable = DISABLE;
 665              		.loc 1 344 41 view .LVU140
 666 001e C3E90722 		strd	r2, r2, [r3, #28]
 347:Src/usbd_conf.c ****   if (HAL_PCD_Init(&hpcd_USB_OTG_FS) != HAL_OK)
 667              		.loc 1 347 42 view .LVU141
 668 0022 C3E90B22 		strd	r2, r2, [r3, #44]
ARM GAS  /tmp/ccFeeFGq.s 			page 20


 339:Src/usbd_conf.c ****   hpcd_USB_OTG_FS.Init.speed = PCD_SPEED_FULL;
 669              		.loc 1 339 38 view .LVU142
 670 0026 C3E90054 		strd	r5, r4, [r3]
 340:Src/usbd_conf.c ****   hpcd_USB_OTG_FS.Init.dma_enable = DISABLE;
 671              		.loc 1 340 3 is_stmt 1 view .LVU143
 341:Src/usbd_conf.c ****   hpcd_USB_OTG_FS.Init.phy_itface = PCD_PHY_EMBEDDED;
 672              		.loc 1 341 35 is_stmt 0 view .LVU144
 673 002a 1A61     		str	r2, [r3, #16]
 345:Src/usbd_conf.c ****   hpcd_USB_OTG_FS.Init.vbus_sensing_enable = DISABLE;
 674              		.loc 1 345 35 view .LVU145
 675 002c 5A62     		str	r2, [r3, #36]
 340:Src/usbd_conf.c ****   hpcd_USB_OTG_FS.Init.dma_enable = DISABLE;
 676              		.loc 1 340 30 view .LVU146
 677 002e D960     		str	r1, [r3, #12]
 341:Src/usbd_conf.c ****   hpcd_USB_OTG_FS.Init.phy_itface = PCD_PHY_EMBEDDED;
 678              		.loc 1 341 3 is_stmt 1 view .LVU147
 342:Src/usbd_conf.c ****   hpcd_USB_OTG_FS.Init.Sof_enable = DISABLE;
 679              		.loc 1 342 3 view .LVU148
 342:Src/usbd_conf.c ****   hpcd_USB_OTG_FS.Init.Sof_enable = DISABLE;
 680              		.loc 1 342 35 is_stmt 0 view .LVU149
 681 0030 9961     		str	r1, [r3, #24]
 343:Src/usbd_conf.c ****   hpcd_USB_OTG_FS.Init.low_power_enable = DISABLE;
 682              		.loc 1 343 3 is_stmt 1 view .LVU150
 344:Src/usbd_conf.c ****   hpcd_USB_OTG_FS.Init.lpm_enable = DISABLE;
 683              		.loc 1 344 3 view .LVU151
 345:Src/usbd_conf.c ****   hpcd_USB_OTG_FS.Init.vbus_sensing_enable = DISABLE;
 684              		.loc 1 345 3 view .LVU152
 346:Src/usbd_conf.c ****   hpcd_USB_OTG_FS.Init.use_dedicated_ep1 = DISABLE;
 685              		.loc 1 346 3 view .LVU153
 347:Src/usbd_conf.c ****   if (HAL_PCD_Init(&hpcd_USB_OTG_FS) != HAL_OK)
 686              		.loc 1 347 3 view .LVU154
 348:Src/usbd_conf.c ****   {
 687              		.loc 1 348 3 view .LVU155
 348:Src/usbd_conf.c ****   {
 688              		.loc 1 348 7 is_stmt 0 view .LVU156
 689 0032 FFF7FEFF 		bl	HAL_PCD_Init
 690              	.LVL50:
 348:Src/usbd_conf.c ****   {
 691              		.loc 1 348 6 view .LVU157
 692 0036 78B9     		cbnz	r0, .L48
 693              	.L39:
 368:Src/usbd_conf.c ****   HAL_PCDEx_SetTxFiFo(&hpcd_USB_OTG_FS, 0, 0x40);
 694              		.loc 1 368 3 is_stmt 1 view .LVU158
 695 0038 8021     		movs	r1, #128
 696 003a 0948     		ldr	r0, .L49
 697 003c FFF7FEFF 		bl	HAL_PCDEx_SetRxFiFo
 698              	.LVL51:
 369:Src/usbd_conf.c ****   HAL_PCDEx_SetTxFiFo(&hpcd_USB_OTG_FS, 1, 0x80);
 699              		.loc 1 369 3 view .LVU159
 700 0040 4022     		movs	r2, #64
 701 0042 0021     		movs	r1, #0
 702 0044 0648     		ldr	r0, .L49
 703 0046 FFF7FEFF 		bl	HAL_PCDEx_SetTxFiFo
 704              	.LVL52:
 370:Src/usbd_conf.c ****   }
 705              		.loc 1 370 3 view .LVU160
 706 004a 8022     		movs	r2, #128
ARM GAS  /tmp/ccFeeFGq.s 			page 21


 707 004c 0121     		movs	r1, #1
 708 004e 0448     		ldr	r0, .L49
 709 0050 FFF7FEFF 		bl	HAL_PCDEx_SetTxFiFo
 710              	.LVL53:
 372:Src/usbd_conf.c **** }
 711              		.loc 1 372 3 view .LVU161
 712              		.loc 1 373 1 is_stmt 0 view .LVU162
 713 0054 0020     		movs	r0, #0
 714 0056 38BD     		pop	{r3, r4, r5, pc}
 715              	.L48:
 350:Src/usbd_conf.c ****   }
 716              		.loc 1 350 5 is_stmt 1 view .LVU163
 717 0058 FFF7FEFF 		bl	Error_Handler
 718              	.LVL54:
 719 005c ECE7     		b	.L39
 720              	.L50:
 721 005e 00BF     		.align	2
 722              	.L49:
 723 0060 00000000 		.word	hpcd_USB_OTG_FS
 724              		.cfi_endproc
 725              	.LFE147:
 727              		.section	.text.USBD_LL_DeInit,"ax",%progbits
 728              		.align	1
 729              		.p2align 2,,3
 730              		.global	USBD_LL_DeInit
 731              		.syntax unified
 732              		.thumb
 733              		.thumb_func
 734              		.fpu fpv4-sp-d16
 736              	USBD_LL_DeInit:
 737              	.LVL55:
 738              	.LFB148:
 374:Src/usbd_conf.c **** 
 375:Src/usbd_conf.c **** /**
 376:Src/usbd_conf.c ****   * @brief  De-Initializes the low level portion of the device driver.
 377:Src/usbd_conf.c ****   * @param  pdev: Device handle
 378:Src/usbd_conf.c ****   * @retval USBD status
 379:Src/usbd_conf.c ****   */
 380:Src/usbd_conf.c **** USBD_StatusTypeDef USBD_LL_DeInit(USBD_HandleTypeDef *pdev)
 381:Src/usbd_conf.c **** {
 739              		.loc 1 381 1 view -0
 740              		.cfi_startproc
 741              		@ args = 0, pretend = 0, frame = 0
 742              		@ frame_needed = 0, uses_anonymous_args = 0
 382:Src/usbd_conf.c ****   HAL_StatusTypeDef hal_status = HAL_OK;
 743              		.loc 1 382 3 view .LVU165
 383:Src/usbd_conf.c ****   USBD_StatusTypeDef usb_status = USBD_OK;
 744              		.loc 1 383 3 view .LVU166
 384:Src/usbd_conf.c **** 
 385:Src/usbd_conf.c ****   hal_status = HAL_PCD_DeInit(pdev->pData);
 745              		.loc 1 385 3 view .LVU167
 381:Src/usbd_conf.c ****   HAL_StatusTypeDef hal_status = HAL_OK;
 746              		.loc 1 381 1 is_stmt 0 view .LVU168
 747 0000 08B5     		push	{r3, lr}
 748              	.LCFI12:
 749              		.cfi_def_cfa_offset 8
 750              		.cfi_offset 3, -8
ARM GAS  /tmp/ccFeeFGq.s 			page 22


 751              		.cfi_offset 14, -4
 752              		.loc 1 385 16 view .LVU169
 753 0002 D0F8C402 		ldr	r0, [r0, #708]
 754              	.LVL56:
 755              		.loc 1 385 16 view .LVU170
 756 0006 FFF7FEFF 		bl	HAL_PCD_DeInit
 757              	.LVL57:
 386:Src/usbd_conf.c **** 
 387:Src/usbd_conf.c ****   usb_status =  USBD_Get_USB_Status(hal_status);
 758              		.loc 1 387 3 is_stmt 1 view .LVU171
 759              	.LBB31:
 760              	.LBI31:
 388:Src/usbd_conf.c **** 
 389:Src/usbd_conf.c ****   return usb_status;
 390:Src/usbd_conf.c **** }
 391:Src/usbd_conf.c **** 
 392:Src/usbd_conf.c **** /**
 393:Src/usbd_conf.c ****   * @brief  Starts the low level portion of the device driver.
 394:Src/usbd_conf.c ****   * @param  pdev: Device handle
 395:Src/usbd_conf.c ****   * @retval USBD status
 396:Src/usbd_conf.c ****   */
 397:Src/usbd_conf.c **** USBD_StatusTypeDef USBD_LL_Start(USBD_HandleTypeDef *pdev)
 398:Src/usbd_conf.c **** {
 399:Src/usbd_conf.c ****   HAL_StatusTypeDef hal_status = HAL_OK;
 400:Src/usbd_conf.c ****   USBD_StatusTypeDef usb_status = USBD_OK;
 401:Src/usbd_conf.c **** 
 402:Src/usbd_conf.c ****   hal_status = HAL_PCD_Start(pdev->pData);
 403:Src/usbd_conf.c **** 
 404:Src/usbd_conf.c ****   usb_status =  USBD_Get_USB_Status(hal_status);
 405:Src/usbd_conf.c **** 
 406:Src/usbd_conf.c ****   return usb_status;
 407:Src/usbd_conf.c **** }
 408:Src/usbd_conf.c **** 
 409:Src/usbd_conf.c **** /**
 410:Src/usbd_conf.c ****   * @brief  Stops the low level portion of the device driver.
 411:Src/usbd_conf.c ****   * @param  pdev: Device handle
 412:Src/usbd_conf.c ****   * @retval USBD status
 413:Src/usbd_conf.c ****   */
 414:Src/usbd_conf.c **** USBD_StatusTypeDef USBD_LL_Stop(USBD_HandleTypeDef *pdev)
 415:Src/usbd_conf.c **** {
 416:Src/usbd_conf.c ****   HAL_StatusTypeDef hal_status = HAL_OK;
 417:Src/usbd_conf.c ****   USBD_StatusTypeDef usb_status = USBD_OK;
 418:Src/usbd_conf.c **** 
 419:Src/usbd_conf.c ****   hal_status = HAL_PCD_Stop(pdev->pData);
 420:Src/usbd_conf.c **** 
 421:Src/usbd_conf.c ****   usb_status =  USBD_Get_USB_Status(hal_status);
 422:Src/usbd_conf.c **** 
 423:Src/usbd_conf.c ****   return usb_status;
 424:Src/usbd_conf.c **** }
 425:Src/usbd_conf.c **** 
 426:Src/usbd_conf.c **** /**
 427:Src/usbd_conf.c ****   * @brief  Opens an endpoint of the low level driver.
 428:Src/usbd_conf.c ****   * @param  pdev: Device handle
 429:Src/usbd_conf.c ****   * @param  ep_addr: Endpoint number
 430:Src/usbd_conf.c ****   * @param  ep_type: Endpoint type
 431:Src/usbd_conf.c ****   * @param  ep_mps: Endpoint max packet size
 432:Src/usbd_conf.c ****   * @retval USBD status
ARM GAS  /tmp/ccFeeFGq.s 			page 23


 433:Src/usbd_conf.c ****   */
 434:Src/usbd_conf.c **** USBD_StatusTypeDef USBD_LL_OpenEP(USBD_HandleTypeDef *pdev, uint8_t ep_addr, uint8_t ep_type, uint1
 435:Src/usbd_conf.c **** {
 436:Src/usbd_conf.c ****   HAL_StatusTypeDef hal_status = HAL_OK;
 437:Src/usbd_conf.c ****   USBD_StatusTypeDef usb_status = USBD_OK;
 438:Src/usbd_conf.c **** 
 439:Src/usbd_conf.c ****   hal_status = HAL_PCD_EP_Open(pdev->pData, ep_addr, ep_mps, ep_type);
 440:Src/usbd_conf.c **** 
 441:Src/usbd_conf.c ****   usb_status =  USBD_Get_USB_Status(hal_status);
 442:Src/usbd_conf.c **** 
 443:Src/usbd_conf.c ****   return usb_status;
 444:Src/usbd_conf.c **** }
 445:Src/usbd_conf.c **** 
 446:Src/usbd_conf.c **** /**
 447:Src/usbd_conf.c ****   * @brief  Closes an endpoint of the low level driver.
 448:Src/usbd_conf.c ****   * @param  pdev: Device handle
 449:Src/usbd_conf.c ****   * @param  ep_addr: Endpoint number
 450:Src/usbd_conf.c ****   * @retval USBD status
 451:Src/usbd_conf.c ****   */
 452:Src/usbd_conf.c **** USBD_StatusTypeDef USBD_LL_CloseEP(USBD_HandleTypeDef *pdev, uint8_t ep_addr)
 453:Src/usbd_conf.c **** {
 454:Src/usbd_conf.c ****   HAL_StatusTypeDef hal_status = HAL_OK;
 455:Src/usbd_conf.c ****   USBD_StatusTypeDef usb_status = USBD_OK;
 456:Src/usbd_conf.c **** 
 457:Src/usbd_conf.c ****   hal_status = HAL_PCD_EP_Close(pdev->pData, ep_addr);
 458:Src/usbd_conf.c **** 
 459:Src/usbd_conf.c ****   usb_status =  USBD_Get_USB_Status(hal_status);
 460:Src/usbd_conf.c **** 
 461:Src/usbd_conf.c ****   return usb_status;
 462:Src/usbd_conf.c **** }
 463:Src/usbd_conf.c **** 
 464:Src/usbd_conf.c **** /**
 465:Src/usbd_conf.c ****   * @brief  Flushes an endpoint of the Low Level Driver.
 466:Src/usbd_conf.c ****   * @param  pdev: Device handle
 467:Src/usbd_conf.c ****   * @param  ep_addr: Endpoint number
 468:Src/usbd_conf.c ****   * @retval USBD status
 469:Src/usbd_conf.c ****   */
 470:Src/usbd_conf.c **** USBD_StatusTypeDef USBD_LL_FlushEP(USBD_HandleTypeDef *pdev, uint8_t ep_addr)
 471:Src/usbd_conf.c **** {
 472:Src/usbd_conf.c ****   HAL_StatusTypeDef hal_status = HAL_OK;
 473:Src/usbd_conf.c ****   USBD_StatusTypeDef usb_status = USBD_OK;
 474:Src/usbd_conf.c **** 
 475:Src/usbd_conf.c ****   hal_status = HAL_PCD_EP_Flush(pdev->pData, ep_addr);
 476:Src/usbd_conf.c **** 
 477:Src/usbd_conf.c ****   usb_status =  USBD_Get_USB_Status(hal_status);
 478:Src/usbd_conf.c **** 
 479:Src/usbd_conf.c ****   return usb_status;
 480:Src/usbd_conf.c **** }
 481:Src/usbd_conf.c **** 
 482:Src/usbd_conf.c **** /**
 483:Src/usbd_conf.c ****   * @brief  Sets a Stall condition on an endpoint of the Low Level Driver.
 484:Src/usbd_conf.c ****   * @param  pdev: Device handle
 485:Src/usbd_conf.c ****   * @param  ep_addr: Endpoint number
 486:Src/usbd_conf.c ****   * @retval USBD status
 487:Src/usbd_conf.c ****   */
 488:Src/usbd_conf.c **** USBD_StatusTypeDef USBD_LL_StallEP(USBD_HandleTypeDef *pdev, uint8_t ep_addr)
 489:Src/usbd_conf.c **** {
ARM GAS  /tmp/ccFeeFGq.s 			page 24


 490:Src/usbd_conf.c ****   HAL_StatusTypeDef hal_status = HAL_OK;
 491:Src/usbd_conf.c ****   USBD_StatusTypeDef usb_status = USBD_OK;
 492:Src/usbd_conf.c **** 
 493:Src/usbd_conf.c ****   hal_status = HAL_PCD_EP_SetStall(pdev->pData, ep_addr);
 494:Src/usbd_conf.c **** 
 495:Src/usbd_conf.c ****   usb_status =  USBD_Get_USB_Status(hal_status);
 496:Src/usbd_conf.c **** 
 497:Src/usbd_conf.c ****   return usb_status;
 498:Src/usbd_conf.c **** }
 499:Src/usbd_conf.c **** 
 500:Src/usbd_conf.c **** /**
 501:Src/usbd_conf.c ****   * @brief  Clears a Stall condition on an endpoint of the Low Level Driver.
 502:Src/usbd_conf.c ****   * @param  pdev: Device handle
 503:Src/usbd_conf.c ****   * @param  ep_addr: Endpoint number
 504:Src/usbd_conf.c ****   * @retval USBD status
 505:Src/usbd_conf.c ****   */
 506:Src/usbd_conf.c **** USBD_StatusTypeDef USBD_LL_ClearStallEP(USBD_HandleTypeDef *pdev, uint8_t ep_addr)
 507:Src/usbd_conf.c **** {
 508:Src/usbd_conf.c ****   HAL_StatusTypeDef hal_status = HAL_OK;
 509:Src/usbd_conf.c ****   USBD_StatusTypeDef usb_status = USBD_OK;
 510:Src/usbd_conf.c **** 
 511:Src/usbd_conf.c ****   hal_status = HAL_PCD_EP_ClrStall(pdev->pData, ep_addr);
 512:Src/usbd_conf.c **** 
 513:Src/usbd_conf.c ****   usb_status =  USBD_Get_USB_Status(hal_status);
 514:Src/usbd_conf.c **** 
 515:Src/usbd_conf.c ****   return usb_status;
 516:Src/usbd_conf.c **** }
 517:Src/usbd_conf.c **** 
 518:Src/usbd_conf.c **** /**
 519:Src/usbd_conf.c ****   * @brief  Returns Stall condition.
 520:Src/usbd_conf.c ****   * @param  pdev: Device handle
 521:Src/usbd_conf.c ****   * @param  ep_addr: Endpoint number
 522:Src/usbd_conf.c ****   * @retval Stall (1: Yes, 0: No)
 523:Src/usbd_conf.c ****   */
 524:Src/usbd_conf.c **** uint8_t USBD_LL_IsStallEP(USBD_HandleTypeDef *pdev, uint8_t ep_addr)
 525:Src/usbd_conf.c **** {
 526:Src/usbd_conf.c ****   PCD_HandleTypeDef *hpcd = (PCD_HandleTypeDef*) pdev->pData;
 527:Src/usbd_conf.c **** 
 528:Src/usbd_conf.c ****   if((ep_addr & 0x80) == 0x80)
 529:Src/usbd_conf.c ****   {
 530:Src/usbd_conf.c ****     return hpcd->IN_ep[ep_addr & 0x7F].is_stall;
 531:Src/usbd_conf.c ****   }
 532:Src/usbd_conf.c ****   else
 533:Src/usbd_conf.c ****   {
 534:Src/usbd_conf.c ****     return hpcd->OUT_ep[ep_addr & 0x7F].is_stall;
 535:Src/usbd_conf.c ****   }
 536:Src/usbd_conf.c **** }
 537:Src/usbd_conf.c **** 
 538:Src/usbd_conf.c **** /**
 539:Src/usbd_conf.c ****   * @brief  Assigns a USB address to the device.
 540:Src/usbd_conf.c ****   * @param  pdev: Device handle
 541:Src/usbd_conf.c ****   * @param  dev_addr: Device address
 542:Src/usbd_conf.c ****   * @retval USBD status
 543:Src/usbd_conf.c ****   */
 544:Src/usbd_conf.c **** USBD_StatusTypeDef USBD_LL_SetUSBAddress(USBD_HandleTypeDef *pdev, uint8_t dev_addr)
 545:Src/usbd_conf.c **** {
 546:Src/usbd_conf.c ****   HAL_StatusTypeDef hal_status = HAL_OK;
ARM GAS  /tmp/ccFeeFGq.s 			page 25


 547:Src/usbd_conf.c ****   USBD_StatusTypeDef usb_status = USBD_OK;
 548:Src/usbd_conf.c **** 
 549:Src/usbd_conf.c ****   hal_status = HAL_PCD_SetAddress(pdev->pData, dev_addr);
 550:Src/usbd_conf.c **** 
 551:Src/usbd_conf.c ****   usb_status =  USBD_Get_USB_Status(hal_status);
 552:Src/usbd_conf.c **** 
 553:Src/usbd_conf.c ****   return usb_status;
 554:Src/usbd_conf.c **** }
 555:Src/usbd_conf.c **** 
 556:Src/usbd_conf.c **** /**
 557:Src/usbd_conf.c ****   * @brief  Transmits data over an endpoint.
 558:Src/usbd_conf.c ****   * @param  pdev: Device handle
 559:Src/usbd_conf.c ****   * @param  ep_addr: Endpoint number
 560:Src/usbd_conf.c ****   * @param  pbuf: Pointer to data to be sent
 561:Src/usbd_conf.c ****   * @param  size: Data size
 562:Src/usbd_conf.c ****   * @retval USBD status
 563:Src/usbd_conf.c ****   */
 564:Src/usbd_conf.c **** USBD_StatusTypeDef USBD_LL_Transmit(USBD_HandleTypeDef *pdev, uint8_t ep_addr, uint8_t *pbuf, uint3
 565:Src/usbd_conf.c **** {
 566:Src/usbd_conf.c ****   HAL_StatusTypeDef hal_status = HAL_OK;
 567:Src/usbd_conf.c ****   USBD_StatusTypeDef usb_status = USBD_OK;
 568:Src/usbd_conf.c **** 
 569:Src/usbd_conf.c ****   hal_status = HAL_PCD_EP_Transmit(pdev->pData, ep_addr, pbuf, size);
 570:Src/usbd_conf.c **** 
 571:Src/usbd_conf.c ****   usb_status =  USBD_Get_USB_Status(hal_status);
 572:Src/usbd_conf.c **** 
 573:Src/usbd_conf.c ****   return usb_status;
 574:Src/usbd_conf.c **** }
 575:Src/usbd_conf.c **** 
 576:Src/usbd_conf.c **** /**
 577:Src/usbd_conf.c ****   * @brief  Prepares an endpoint for reception.
 578:Src/usbd_conf.c ****   * @param  pdev: Device handle
 579:Src/usbd_conf.c ****   * @param  ep_addr: Endpoint number
 580:Src/usbd_conf.c ****   * @param  pbuf: Pointer to data to be received
 581:Src/usbd_conf.c ****   * @param  size: Data size
 582:Src/usbd_conf.c ****   * @retval USBD status
 583:Src/usbd_conf.c ****   */
 584:Src/usbd_conf.c **** USBD_StatusTypeDef USBD_LL_PrepareReceive(USBD_HandleTypeDef *pdev, uint8_t ep_addr, uint8_t *pbuf,
 585:Src/usbd_conf.c **** {
 586:Src/usbd_conf.c ****   HAL_StatusTypeDef hal_status = HAL_OK;
 587:Src/usbd_conf.c ****   USBD_StatusTypeDef usb_status = USBD_OK;
 588:Src/usbd_conf.c **** 
 589:Src/usbd_conf.c ****   hal_status = HAL_PCD_EP_Receive(pdev->pData, ep_addr, pbuf, size);
 590:Src/usbd_conf.c **** 
 591:Src/usbd_conf.c ****   usb_status =  USBD_Get_USB_Status(hal_status);
 592:Src/usbd_conf.c **** 
 593:Src/usbd_conf.c ****   return usb_status;
 594:Src/usbd_conf.c **** }
 595:Src/usbd_conf.c **** 
 596:Src/usbd_conf.c **** /**
 597:Src/usbd_conf.c ****   * @brief  Returns the last transfered packet size.
 598:Src/usbd_conf.c ****   * @param  pdev: Device handle
 599:Src/usbd_conf.c ****   * @param  ep_addr: Endpoint number
 600:Src/usbd_conf.c ****   * @retval Recived Data Size
 601:Src/usbd_conf.c ****   */
 602:Src/usbd_conf.c **** uint32_t USBD_LL_GetRxDataSize(USBD_HandleTypeDef *pdev, uint8_t ep_addr)
 603:Src/usbd_conf.c **** {
ARM GAS  /tmp/ccFeeFGq.s 			page 26


 604:Src/usbd_conf.c ****   return HAL_PCD_EP_GetRxCount((PCD_HandleTypeDef*) pdev->pData, ep_addr);
 605:Src/usbd_conf.c **** }
 606:Src/usbd_conf.c **** 
 607:Src/usbd_conf.c **** /**
 608:Src/usbd_conf.c ****   * @brief  Static single allocation.
 609:Src/usbd_conf.c ****   * @param  size: Size of allocated memory
 610:Src/usbd_conf.c ****   * @retval None
 611:Src/usbd_conf.c ****   */
 612:Src/usbd_conf.c **** void *USBD_static_malloc(uint32_t size)
 613:Src/usbd_conf.c **** {
 614:Src/usbd_conf.c ****   static uint32_t mem[(sizeof(USBD_CDC_HandleTypeDef)/4)+1];/* On 32-bit boundary */
 615:Src/usbd_conf.c ****   return mem;
 616:Src/usbd_conf.c **** }
 617:Src/usbd_conf.c **** 
 618:Src/usbd_conf.c **** /**
 619:Src/usbd_conf.c ****   * @brief  Dummy memory free
 620:Src/usbd_conf.c ****   * @param  p: Pointer to allocated  memory address
 621:Src/usbd_conf.c ****   * @retval None
 622:Src/usbd_conf.c ****   */
 623:Src/usbd_conf.c **** void USBD_static_free(void *p)
 624:Src/usbd_conf.c **** {
 625:Src/usbd_conf.c **** 
 626:Src/usbd_conf.c **** }
 627:Src/usbd_conf.c **** 
 628:Src/usbd_conf.c **** /**
 629:Src/usbd_conf.c ****   * @brief  Delays routine for the USB Device Library.
 630:Src/usbd_conf.c ****   * @param  Delay: Delay in ms
 631:Src/usbd_conf.c ****   * @retval None
 632:Src/usbd_conf.c ****   */
 633:Src/usbd_conf.c **** void USBD_LL_Delay(uint32_t Delay)
 634:Src/usbd_conf.c **** {
 635:Src/usbd_conf.c ****   HAL_Delay(Delay);
 636:Src/usbd_conf.c **** }
 637:Src/usbd_conf.c **** 
 638:Src/usbd_conf.c **** /**
 639:Src/usbd_conf.c ****   * @brief  Retuns the USB status depending on the HAL status:
 640:Src/usbd_conf.c ****   * @param  hal_status: HAL status
 641:Src/usbd_conf.c ****   * @retval USB status
 642:Src/usbd_conf.c ****   */
 643:Src/usbd_conf.c **** USBD_StatusTypeDef USBD_Get_USB_Status(HAL_StatusTypeDef hal_status)
 761              		.loc 1 643 20 view .LVU172
 762              	.LBB32:
 644:Src/usbd_conf.c **** {
 645:Src/usbd_conf.c ****   USBD_StatusTypeDef usb_status = USBD_OK;
 763              		.loc 1 645 3 view .LVU173
 646:Src/usbd_conf.c **** 
 647:Src/usbd_conf.c ****   switch (hal_status)
 764              		.loc 1 647 3 view .LVU174
 765 000a 0328     		cmp	r0, #3
 766 000c 96BF     		itet	ls
 767 000e 024B     		ldrls	r3, .L55
 768              	.LBE32:
 769              	.LBE31:
 385:Src/usbd_conf.c **** 
 770              		.loc 1 385 16 is_stmt 0 view .LVU175
 771 0010 0320     		movhi	r0, #3
 772              	.LVL58:
ARM GAS  /tmp/ccFeeFGq.s 			page 27


 385:Src/usbd_conf.c **** 
 773              		.loc 1 385 16 view .LVU176
 774 0012 185C     		ldrbls	r0, [r3, r0]	@ zero_extendqisi2
 775              	.LVL59:
 776              	.LBB34:
 777              	.LBB33:
 648:Src/usbd_conf.c ****   {
 649:Src/usbd_conf.c ****     case HAL_OK :
 650:Src/usbd_conf.c ****       usb_status = USBD_OK;
 651:Src/usbd_conf.c ****     break;
 652:Src/usbd_conf.c ****     case HAL_ERROR :
 653:Src/usbd_conf.c ****       usb_status = USBD_FAIL;
 654:Src/usbd_conf.c ****     break;
 655:Src/usbd_conf.c ****     case HAL_BUSY :
 656:Src/usbd_conf.c ****       usb_status = USBD_BUSY;
 657:Src/usbd_conf.c ****     break;
 658:Src/usbd_conf.c ****     case HAL_TIMEOUT :
 659:Src/usbd_conf.c ****       usb_status = USBD_FAIL;
 660:Src/usbd_conf.c ****     break;
 661:Src/usbd_conf.c ****     default :
 662:Src/usbd_conf.c ****       usb_status = USBD_FAIL;
 663:Src/usbd_conf.c ****     break;
 664:Src/usbd_conf.c ****   }
 665:Src/usbd_conf.c ****   return usb_status;
 778              		.loc 1 665 3 is_stmt 1 view .LVU177
 779              		.loc 1 665 3 is_stmt 0 view .LVU178
 780              	.LBE33:
 781              	.LBE34:
 389:Src/usbd_conf.c **** }
 782              		.loc 1 389 3 is_stmt 1 view .LVU179
 390:Src/usbd_conf.c **** 
 783              		.loc 1 390 1 is_stmt 0 view .LVU180
 784 0014 08BD     		pop	{r3, pc}
 785              	.L56:
 786 0016 00BF     		.align	2
 787              	.L55:
 788 0018 00000000 		.word	.LANCHOR0
 789              		.cfi_endproc
 790              	.LFE148:
 792              		.section	.text.USBD_LL_Start,"ax",%progbits
 793              		.align	1
 794              		.p2align 2,,3
 795              		.global	USBD_LL_Start
 796              		.syntax unified
 797              		.thumb
 798              		.thumb_func
 799              		.fpu fpv4-sp-d16
 801              	USBD_LL_Start:
 802              	.LVL60:
 803              	.LFB149:
 398:Src/usbd_conf.c ****   HAL_StatusTypeDef hal_status = HAL_OK;
 804              		.loc 1 398 1 is_stmt 1 view -0
 805              		.cfi_startproc
 806              		@ args = 0, pretend = 0, frame = 0
 807              		@ frame_needed = 0, uses_anonymous_args = 0
 399:Src/usbd_conf.c ****   USBD_StatusTypeDef usb_status = USBD_OK;
 808              		.loc 1 399 3 view .LVU182
ARM GAS  /tmp/ccFeeFGq.s 			page 28


 400:Src/usbd_conf.c **** 
 809              		.loc 1 400 3 view .LVU183
 402:Src/usbd_conf.c **** 
 810              		.loc 1 402 3 view .LVU184
 398:Src/usbd_conf.c ****   HAL_StatusTypeDef hal_status = HAL_OK;
 811              		.loc 1 398 1 is_stmt 0 view .LVU185
 812 0000 08B5     		push	{r3, lr}
 813              	.LCFI13:
 814              		.cfi_def_cfa_offset 8
 815              		.cfi_offset 3, -8
 816              		.cfi_offset 14, -4
 402:Src/usbd_conf.c **** 
 817              		.loc 1 402 16 view .LVU186
 818 0002 D0F8C402 		ldr	r0, [r0, #708]
 819              	.LVL61:
 402:Src/usbd_conf.c **** 
 820              		.loc 1 402 16 view .LVU187
 821 0006 FFF7FEFF 		bl	HAL_PCD_Start
 822              	.LVL62:
 404:Src/usbd_conf.c **** 
 823              		.loc 1 404 3 is_stmt 1 view .LVU188
 824              	.LBB35:
 825              	.LBI35:
 643:Src/usbd_conf.c **** {
 826              		.loc 1 643 20 view .LVU189
 827              	.LBB36:
 645:Src/usbd_conf.c **** 
 828              		.loc 1 645 3 view .LVU190
 647:Src/usbd_conf.c ****   {
 829              		.loc 1 647 3 view .LVU191
 830 000a 0328     		cmp	r0, #3
 831 000c 96BF     		itet	ls
 832 000e 024B     		ldrls	r3, .L61
 833              	.LBE36:
 834              	.LBE35:
 402:Src/usbd_conf.c **** 
 835              		.loc 1 402 16 is_stmt 0 view .LVU192
 836 0010 0320     		movhi	r0, #3
 837              	.LVL63:
 402:Src/usbd_conf.c **** 
 838              		.loc 1 402 16 view .LVU193
 839 0012 185C     		ldrbls	r0, [r3, r0]	@ zero_extendqisi2
 840              	.LVL64:
 841              	.LBB38:
 842              	.LBB37:
 843              		.loc 1 665 3 is_stmt 1 view .LVU194
 844              		.loc 1 665 3 is_stmt 0 view .LVU195
 845              	.LBE37:
 846              	.LBE38:
 406:Src/usbd_conf.c **** }
 847              		.loc 1 406 3 is_stmt 1 view .LVU196
 407:Src/usbd_conf.c **** 
 848              		.loc 1 407 1 is_stmt 0 view .LVU197
 849 0014 08BD     		pop	{r3, pc}
 850              	.L62:
 851 0016 00BF     		.align	2
 852              	.L61:
ARM GAS  /tmp/ccFeeFGq.s 			page 29


 853 0018 00000000 		.word	.LANCHOR0
 854              		.cfi_endproc
 855              	.LFE149:
 857              		.section	.text.USBD_LL_Stop,"ax",%progbits
 858              		.align	1
 859              		.p2align 2,,3
 860              		.global	USBD_LL_Stop
 861              		.syntax unified
 862              		.thumb
 863              		.thumb_func
 864              		.fpu fpv4-sp-d16
 866              	USBD_LL_Stop:
 867              	.LVL65:
 868              	.LFB150:
 415:Src/usbd_conf.c ****   HAL_StatusTypeDef hal_status = HAL_OK;
 869              		.loc 1 415 1 is_stmt 1 view -0
 870              		.cfi_startproc
 871              		@ args = 0, pretend = 0, frame = 0
 872              		@ frame_needed = 0, uses_anonymous_args = 0
 416:Src/usbd_conf.c ****   USBD_StatusTypeDef usb_status = USBD_OK;
 873              		.loc 1 416 3 view .LVU199
 417:Src/usbd_conf.c **** 
 874              		.loc 1 417 3 view .LVU200
 419:Src/usbd_conf.c **** 
 875              		.loc 1 419 3 view .LVU201
 415:Src/usbd_conf.c ****   HAL_StatusTypeDef hal_status = HAL_OK;
 876              		.loc 1 415 1 is_stmt 0 view .LVU202
 877 0000 08B5     		push	{r3, lr}
 878              	.LCFI14:
 879              		.cfi_def_cfa_offset 8
 880              		.cfi_offset 3, -8
 881              		.cfi_offset 14, -4
 419:Src/usbd_conf.c **** 
 882              		.loc 1 419 16 view .LVU203
 883 0002 D0F8C402 		ldr	r0, [r0, #708]
 884              	.LVL66:
 419:Src/usbd_conf.c **** 
 885              		.loc 1 419 16 view .LVU204
 886 0006 FFF7FEFF 		bl	HAL_PCD_Stop
 887              	.LVL67:
 421:Src/usbd_conf.c **** 
 888              		.loc 1 421 3 is_stmt 1 view .LVU205
 889              	.LBB39:
 890              	.LBI39:
 643:Src/usbd_conf.c **** {
 891              		.loc 1 643 20 view .LVU206
 892              	.LBB40:
 645:Src/usbd_conf.c **** 
 893              		.loc 1 645 3 view .LVU207
 647:Src/usbd_conf.c ****   {
 894              		.loc 1 647 3 view .LVU208
 895 000a 0328     		cmp	r0, #3
 896 000c 96BF     		itet	ls
 897 000e 024B     		ldrls	r3, .L67
 898              	.LBE40:
 899              	.LBE39:
 419:Src/usbd_conf.c **** 
ARM GAS  /tmp/ccFeeFGq.s 			page 30


 900              		.loc 1 419 16 is_stmt 0 view .LVU209
 901 0010 0320     		movhi	r0, #3
 902              	.LVL68:
 419:Src/usbd_conf.c **** 
 903              		.loc 1 419 16 view .LVU210
 904 0012 185C     		ldrbls	r0, [r3, r0]	@ zero_extendqisi2
 905              	.LVL69:
 906              	.LBB42:
 907              	.LBB41:
 908              		.loc 1 665 3 is_stmt 1 view .LVU211
 909              		.loc 1 665 3 is_stmt 0 view .LVU212
 910              	.LBE41:
 911              	.LBE42:
 423:Src/usbd_conf.c **** }
 912              		.loc 1 423 3 is_stmt 1 view .LVU213
 424:Src/usbd_conf.c **** 
 913              		.loc 1 424 1 is_stmt 0 view .LVU214
 914 0014 08BD     		pop	{r3, pc}
 915              	.L68:
 916 0016 00BF     		.align	2
 917              	.L67:
 918 0018 00000000 		.word	.LANCHOR0
 919              		.cfi_endproc
 920              	.LFE150:
 922              		.section	.text.USBD_LL_OpenEP,"ax",%progbits
 923              		.align	1
 924              		.p2align 2,,3
 925              		.global	USBD_LL_OpenEP
 926              		.syntax unified
 927              		.thumb
 928              		.thumb_func
 929              		.fpu fpv4-sp-d16
 931              	USBD_LL_OpenEP:
 932              	.LVL70:
 933              	.LFB151:
 435:Src/usbd_conf.c ****   HAL_StatusTypeDef hal_status = HAL_OK;
 934              		.loc 1 435 1 is_stmt 1 view -0
 935              		.cfi_startproc
 936              		@ args = 0, pretend = 0, frame = 0
 937              		@ frame_needed = 0, uses_anonymous_args = 0
 436:Src/usbd_conf.c ****   USBD_StatusTypeDef usb_status = USBD_OK;
 938              		.loc 1 436 3 view .LVU216
 437:Src/usbd_conf.c **** 
 939              		.loc 1 437 3 view .LVU217
 439:Src/usbd_conf.c **** 
 940              		.loc 1 439 3 view .LVU218
 435:Src/usbd_conf.c ****   HAL_StatusTypeDef hal_status = HAL_OK;
 941              		.loc 1 435 1 is_stmt 0 view .LVU219
 942 0000 10B5     		push	{r4, lr}
 943              	.LCFI15:
 944              		.cfi_def_cfa_offset 8
 945              		.cfi_offset 4, -8
 946              		.cfi_offset 14, -4
 435:Src/usbd_conf.c ****   HAL_StatusTypeDef hal_status = HAL_OK;
 947              		.loc 1 435 1 view .LVU220
 948 0002 1446     		mov	r4, r2
 439:Src/usbd_conf.c **** 
ARM GAS  /tmp/ccFeeFGq.s 			page 31


 949              		.loc 1 439 16 view .LVU221
 950 0004 D0F8C402 		ldr	r0, [r0, #708]
 951              	.LVL71:
 435:Src/usbd_conf.c ****   HAL_StatusTypeDef hal_status = HAL_OK;
 952              		.loc 1 435 1 view .LVU222
 953 0008 1A46     		mov	r2, r3
 954              	.LVL72:
 439:Src/usbd_conf.c **** 
 955              		.loc 1 439 16 view .LVU223
 956 000a 2346     		mov	r3, r4
 957              	.LVL73:
 439:Src/usbd_conf.c **** 
 958              		.loc 1 439 16 view .LVU224
 959 000c FFF7FEFF 		bl	HAL_PCD_EP_Open
 960              	.LVL74:
 441:Src/usbd_conf.c **** 
 961              		.loc 1 441 3 is_stmt 1 view .LVU225
 962              	.LBB43:
 963              	.LBI43:
 643:Src/usbd_conf.c **** {
 964              		.loc 1 643 20 view .LVU226
 965              	.LBB44:
 645:Src/usbd_conf.c **** 
 966              		.loc 1 645 3 view .LVU227
 647:Src/usbd_conf.c ****   {
 967              		.loc 1 647 3 view .LVU228
 968 0010 0328     		cmp	r0, #3
 969 0012 96BF     		itet	ls
 970 0014 014B     		ldrls	r3, .L73
 971              	.LBE44:
 972              	.LBE43:
 439:Src/usbd_conf.c **** 
 973              		.loc 1 439 16 is_stmt 0 view .LVU229
 974 0016 0320     		movhi	r0, #3
 975              	.LVL75:
 439:Src/usbd_conf.c **** 
 976              		.loc 1 439 16 view .LVU230
 977 0018 185C     		ldrbls	r0, [r3, r0]	@ zero_extendqisi2
 978              	.LVL76:
 979              	.LBB46:
 980              	.LBB45:
 981              		.loc 1 665 3 is_stmt 1 view .LVU231
 982              		.loc 1 665 3 is_stmt 0 view .LVU232
 983              	.LBE45:
 984              	.LBE46:
 443:Src/usbd_conf.c **** }
 985              		.loc 1 443 3 is_stmt 1 view .LVU233
 444:Src/usbd_conf.c **** 
 986              		.loc 1 444 1 is_stmt 0 view .LVU234
 987 001a 10BD     		pop	{r4, pc}
 988              	.L74:
 989              		.align	2
 990              	.L73:
 991 001c 00000000 		.word	.LANCHOR0
 992              		.cfi_endproc
 993              	.LFE151:
 995              		.section	.text.USBD_LL_CloseEP,"ax",%progbits
ARM GAS  /tmp/ccFeeFGq.s 			page 32


 996              		.align	1
 997              		.p2align 2,,3
 998              		.global	USBD_LL_CloseEP
 999              		.syntax unified
 1000              		.thumb
 1001              		.thumb_func
 1002              		.fpu fpv4-sp-d16
 1004              	USBD_LL_CloseEP:
 1005              	.LVL77:
 1006              	.LFB152:
 453:Src/usbd_conf.c ****   HAL_StatusTypeDef hal_status = HAL_OK;
 1007              		.loc 1 453 1 is_stmt 1 view -0
 1008              		.cfi_startproc
 1009              		@ args = 0, pretend = 0, frame = 0
 1010              		@ frame_needed = 0, uses_anonymous_args = 0
 454:Src/usbd_conf.c ****   USBD_StatusTypeDef usb_status = USBD_OK;
 1011              		.loc 1 454 3 view .LVU236
 455:Src/usbd_conf.c **** 
 1012              		.loc 1 455 3 view .LVU237
 457:Src/usbd_conf.c **** 
 1013              		.loc 1 457 3 view .LVU238
 453:Src/usbd_conf.c ****   HAL_StatusTypeDef hal_status = HAL_OK;
 1014              		.loc 1 453 1 is_stmt 0 view .LVU239
 1015 0000 08B5     		push	{r3, lr}
 1016              	.LCFI16:
 1017              		.cfi_def_cfa_offset 8
 1018              		.cfi_offset 3, -8
 1019              		.cfi_offset 14, -4
 457:Src/usbd_conf.c **** 
 1020              		.loc 1 457 16 view .LVU240
 1021 0002 D0F8C402 		ldr	r0, [r0, #708]
 1022              	.LVL78:
 457:Src/usbd_conf.c **** 
 1023              		.loc 1 457 16 view .LVU241
 1024 0006 FFF7FEFF 		bl	HAL_PCD_EP_Close
 1025              	.LVL79:
 459:Src/usbd_conf.c **** 
 1026              		.loc 1 459 3 is_stmt 1 view .LVU242
 1027              	.LBB47:
 1028              	.LBI47:
 643:Src/usbd_conf.c **** {
 1029              		.loc 1 643 20 view .LVU243
 1030              	.LBB48:
 645:Src/usbd_conf.c **** 
 1031              		.loc 1 645 3 view .LVU244
 647:Src/usbd_conf.c ****   {
 1032              		.loc 1 647 3 view .LVU245
 1033 000a 0328     		cmp	r0, #3
 1034 000c 96BF     		itet	ls
 1035 000e 024B     		ldrls	r3, .L79
 1036              	.LBE48:
 1037              	.LBE47:
 457:Src/usbd_conf.c **** 
 1038              		.loc 1 457 16 is_stmt 0 view .LVU246
 1039 0010 0320     		movhi	r0, #3
 1040              	.LVL80:
 457:Src/usbd_conf.c **** 
ARM GAS  /tmp/ccFeeFGq.s 			page 33


 1041              		.loc 1 457 16 view .LVU247
 1042 0012 185C     		ldrbls	r0, [r3, r0]	@ zero_extendqisi2
 1043              	.LVL81:
 1044              	.LBB50:
 1045              	.LBB49:
 1046              		.loc 1 665 3 is_stmt 1 view .LVU248
 1047              		.loc 1 665 3 is_stmt 0 view .LVU249
 1048              	.LBE49:
 1049              	.LBE50:
 461:Src/usbd_conf.c **** }
 1050              		.loc 1 461 3 is_stmt 1 view .LVU250
 462:Src/usbd_conf.c **** 
 1051              		.loc 1 462 1 is_stmt 0 view .LVU251
 1052 0014 08BD     		pop	{r3, pc}
 1053              	.L80:
 1054 0016 00BF     		.align	2
 1055              	.L79:
 1056 0018 00000000 		.word	.LANCHOR0
 1057              		.cfi_endproc
 1058              	.LFE152:
 1060              		.section	.text.USBD_LL_FlushEP,"ax",%progbits
 1061              		.align	1
 1062              		.p2align 2,,3
 1063              		.global	USBD_LL_FlushEP
 1064              		.syntax unified
 1065              		.thumb
 1066              		.thumb_func
 1067              		.fpu fpv4-sp-d16
 1069              	USBD_LL_FlushEP:
 1070              	.LVL82:
 1071              	.LFB153:
 471:Src/usbd_conf.c ****   HAL_StatusTypeDef hal_status = HAL_OK;
 1072              		.loc 1 471 1 is_stmt 1 view -0
 1073              		.cfi_startproc
 1074              		@ args = 0, pretend = 0, frame = 0
 1075              		@ frame_needed = 0, uses_anonymous_args = 0
 472:Src/usbd_conf.c ****   USBD_StatusTypeDef usb_status = USBD_OK;
 1076              		.loc 1 472 3 view .LVU253
 473:Src/usbd_conf.c **** 
 1077              		.loc 1 473 3 view .LVU254
 475:Src/usbd_conf.c **** 
 1078              		.loc 1 475 3 view .LVU255
 471:Src/usbd_conf.c ****   HAL_StatusTypeDef hal_status = HAL_OK;
 1079              		.loc 1 471 1 is_stmt 0 view .LVU256
 1080 0000 08B5     		push	{r3, lr}
 1081              	.LCFI17:
 1082              		.cfi_def_cfa_offset 8
 1083              		.cfi_offset 3, -8
 1084              		.cfi_offset 14, -4
 475:Src/usbd_conf.c **** 
 1085              		.loc 1 475 16 view .LVU257
 1086 0002 D0F8C402 		ldr	r0, [r0, #708]
 1087              	.LVL83:
 475:Src/usbd_conf.c **** 
 1088              		.loc 1 475 16 view .LVU258
 1089 0006 FFF7FEFF 		bl	HAL_PCD_EP_Flush
 1090              	.LVL84:
ARM GAS  /tmp/ccFeeFGq.s 			page 34


 477:Src/usbd_conf.c **** 
 1091              		.loc 1 477 3 is_stmt 1 view .LVU259
 1092              	.LBB51:
 1093              	.LBI51:
 643:Src/usbd_conf.c **** {
 1094              		.loc 1 643 20 view .LVU260
 1095              	.LBB52:
 645:Src/usbd_conf.c **** 
 1096              		.loc 1 645 3 view .LVU261
 647:Src/usbd_conf.c ****   {
 1097              		.loc 1 647 3 view .LVU262
 1098 000a 0328     		cmp	r0, #3
 1099 000c 96BF     		itet	ls
 1100 000e 024B     		ldrls	r3, .L85
 1101              	.LBE52:
 1102              	.LBE51:
 475:Src/usbd_conf.c **** 
 1103              		.loc 1 475 16 is_stmt 0 view .LVU263
 1104 0010 0320     		movhi	r0, #3
 1105              	.LVL85:
 475:Src/usbd_conf.c **** 
 1106              		.loc 1 475 16 view .LVU264
 1107 0012 185C     		ldrbls	r0, [r3, r0]	@ zero_extendqisi2
 1108              	.LVL86:
 1109              	.LBB54:
 1110              	.LBB53:
 1111              		.loc 1 665 3 is_stmt 1 view .LVU265
 1112              		.loc 1 665 3 is_stmt 0 view .LVU266
 1113              	.LBE53:
 1114              	.LBE54:
 479:Src/usbd_conf.c **** }
 1115              		.loc 1 479 3 is_stmt 1 view .LVU267
 480:Src/usbd_conf.c **** 
 1116              		.loc 1 480 1 is_stmt 0 view .LVU268
 1117 0014 08BD     		pop	{r3, pc}
 1118              	.L86:
 1119 0016 00BF     		.align	2
 1120              	.L85:
 1121 0018 00000000 		.word	.LANCHOR0
 1122              		.cfi_endproc
 1123              	.LFE153:
 1125              		.section	.text.USBD_LL_StallEP,"ax",%progbits
 1126              		.align	1
 1127              		.p2align 2,,3
 1128              		.global	USBD_LL_StallEP
 1129              		.syntax unified
 1130              		.thumb
 1131              		.thumb_func
 1132              		.fpu fpv4-sp-d16
 1134              	USBD_LL_StallEP:
 1135              	.LVL87:
 1136              	.LFB154:
 489:Src/usbd_conf.c ****   HAL_StatusTypeDef hal_status = HAL_OK;
 1137              		.loc 1 489 1 is_stmt 1 view -0
 1138              		.cfi_startproc
 1139              		@ args = 0, pretend = 0, frame = 0
 1140              		@ frame_needed = 0, uses_anonymous_args = 0
ARM GAS  /tmp/ccFeeFGq.s 			page 35


 490:Src/usbd_conf.c ****   USBD_StatusTypeDef usb_status = USBD_OK;
 1141              		.loc 1 490 3 view .LVU270
 491:Src/usbd_conf.c **** 
 1142              		.loc 1 491 3 view .LVU271
 493:Src/usbd_conf.c **** 
 1143              		.loc 1 493 3 view .LVU272
 489:Src/usbd_conf.c ****   HAL_StatusTypeDef hal_status = HAL_OK;
 1144              		.loc 1 489 1 is_stmt 0 view .LVU273
 1145 0000 08B5     		push	{r3, lr}
 1146              	.LCFI18:
 1147              		.cfi_def_cfa_offset 8
 1148              		.cfi_offset 3, -8
 1149              		.cfi_offset 14, -4
 493:Src/usbd_conf.c **** 
 1150              		.loc 1 493 16 view .LVU274
 1151 0002 D0F8C402 		ldr	r0, [r0, #708]
 1152              	.LVL88:
 493:Src/usbd_conf.c **** 
 1153              		.loc 1 493 16 view .LVU275
 1154 0006 FFF7FEFF 		bl	HAL_PCD_EP_SetStall
 1155              	.LVL89:
 495:Src/usbd_conf.c **** 
 1156              		.loc 1 495 3 is_stmt 1 view .LVU276
 1157              	.LBB55:
 1158              	.LBI55:
 643:Src/usbd_conf.c **** {
 1159              		.loc 1 643 20 view .LVU277
 1160              	.LBB56:
 645:Src/usbd_conf.c **** 
 1161              		.loc 1 645 3 view .LVU278
 647:Src/usbd_conf.c ****   {
 1162              		.loc 1 647 3 view .LVU279
 1163 000a 0328     		cmp	r0, #3
 1164 000c 96BF     		itet	ls
 1165 000e 024B     		ldrls	r3, .L91
 1166              	.LBE56:
 1167              	.LBE55:
 493:Src/usbd_conf.c **** 
 1168              		.loc 1 493 16 is_stmt 0 view .LVU280
 1169 0010 0320     		movhi	r0, #3
 1170              	.LVL90:
 493:Src/usbd_conf.c **** 
 1171              		.loc 1 493 16 view .LVU281
 1172 0012 185C     		ldrbls	r0, [r3, r0]	@ zero_extendqisi2
 1173              	.LVL91:
 1174              	.LBB58:
 1175              	.LBB57:
 1176              		.loc 1 665 3 is_stmt 1 view .LVU282
 1177              		.loc 1 665 3 is_stmt 0 view .LVU283
 1178              	.LBE57:
 1179              	.LBE58:
 497:Src/usbd_conf.c **** }
 1180              		.loc 1 497 3 is_stmt 1 view .LVU284
 498:Src/usbd_conf.c **** 
 1181              		.loc 1 498 1 is_stmt 0 view .LVU285
 1182 0014 08BD     		pop	{r3, pc}
 1183              	.L92:
ARM GAS  /tmp/ccFeeFGq.s 			page 36


 1184 0016 00BF     		.align	2
 1185              	.L91:
 1186 0018 00000000 		.word	.LANCHOR0
 1187              		.cfi_endproc
 1188              	.LFE154:
 1190              		.section	.text.USBD_LL_ClearStallEP,"ax",%progbits
 1191              		.align	1
 1192              		.p2align 2,,3
 1193              		.global	USBD_LL_ClearStallEP
 1194              		.syntax unified
 1195              		.thumb
 1196              		.thumb_func
 1197              		.fpu fpv4-sp-d16
 1199              	USBD_LL_ClearStallEP:
 1200              	.LVL92:
 1201              	.LFB155:
 507:Src/usbd_conf.c ****   HAL_StatusTypeDef hal_status = HAL_OK;
 1202              		.loc 1 507 1 is_stmt 1 view -0
 1203              		.cfi_startproc
 1204              		@ args = 0, pretend = 0, frame = 0
 1205              		@ frame_needed = 0, uses_anonymous_args = 0
 508:Src/usbd_conf.c ****   USBD_StatusTypeDef usb_status = USBD_OK;
 1206              		.loc 1 508 3 view .LVU287
 509:Src/usbd_conf.c **** 
 1207              		.loc 1 509 3 view .LVU288
 511:Src/usbd_conf.c **** 
 1208              		.loc 1 511 3 view .LVU289
 507:Src/usbd_conf.c ****   HAL_StatusTypeDef hal_status = HAL_OK;
 1209              		.loc 1 507 1 is_stmt 0 view .LVU290
 1210 0000 08B5     		push	{r3, lr}
 1211              	.LCFI19:
 1212              		.cfi_def_cfa_offset 8
 1213              		.cfi_offset 3, -8
 1214              		.cfi_offset 14, -4
 511:Src/usbd_conf.c **** 
 1215              		.loc 1 511 16 view .LVU291
 1216 0002 D0F8C402 		ldr	r0, [r0, #708]
 1217              	.LVL93:
 511:Src/usbd_conf.c **** 
 1218              		.loc 1 511 16 view .LVU292
 1219 0006 FFF7FEFF 		bl	HAL_PCD_EP_ClrStall
 1220              	.LVL94:
 513:Src/usbd_conf.c **** 
 1221              		.loc 1 513 3 is_stmt 1 view .LVU293
 1222              	.LBB59:
 1223              	.LBI59:
 643:Src/usbd_conf.c **** {
 1224              		.loc 1 643 20 view .LVU294
 1225              	.LBB60:
 645:Src/usbd_conf.c **** 
 1226              		.loc 1 645 3 view .LVU295
 647:Src/usbd_conf.c ****   {
 1227              		.loc 1 647 3 view .LVU296
 1228 000a 0328     		cmp	r0, #3
 1229 000c 96BF     		itet	ls
 1230 000e 024B     		ldrls	r3, .L97
 1231              	.LBE60:
ARM GAS  /tmp/ccFeeFGq.s 			page 37


 1232              	.LBE59:
 511:Src/usbd_conf.c **** 
 1233              		.loc 1 511 16 is_stmt 0 view .LVU297
 1234 0010 0320     		movhi	r0, #3
 1235              	.LVL95:
 511:Src/usbd_conf.c **** 
 1236              		.loc 1 511 16 view .LVU298
 1237 0012 185C     		ldrbls	r0, [r3, r0]	@ zero_extendqisi2
 1238              	.LVL96:
 1239              	.LBB62:
 1240              	.LBB61:
 1241              		.loc 1 665 3 is_stmt 1 view .LVU299
 1242              		.loc 1 665 3 is_stmt 0 view .LVU300
 1243              	.LBE61:
 1244              	.LBE62:
 515:Src/usbd_conf.c **** }
 1245              		.loc 1 515 3 is_stmt 1 view .LVU301
 516:Src/usbd_conf.c **** 
 1246              		.loc 1 516 1 is_stmt 0 view .LVU302
 1247 0014 08BD     		pop	{r3, pc}
 1248              	.L98:
 1249 0016 00BF     		.align	2
 1250              	.L97:
 1251 0018 00000000 		.word	.LANCHOR0
 1252              		.cfi_endproc
 1253              	.LFE155:
 1255              		.section	.text.USBD_LL_IsStallEP,"ax",%progbits
 1256              		.align	1
 1257              		.p2align 2,,3
 1258              		.global	USBD_LL_IsStallEP
 1259              		.syntax unified
 1260              		.thumb
 1261              		.thumb_func
 1262              		.fpu fpv4-sp-d16
 1264              	USBD_LL_IsStallEP:
 1265              	.LVL97:
 1266              	.LFB156:
 525:Src/usbd_conf.c ****   PCD_HandleTypeDef *hpcd = (PCD_HandleTypeDef*) pdev->pData;
 1267              		.loc 1 525 1 is_stmt 1 view -0
 1268              		.cfi_startproc
 1269              		@ args = 0, pretend = 0, frame = 0
 1270              		@ frame_needed = 0, uses_anonymous_args = 0
 1271              		@ link register save eliminated.
 526:Src/usbd_conf.c **** 
 1272              		.loc 1 526 3 view .LVU304
 528:Src/usbd_conf.c ****   {
 1273              		.loc 1 528 5 is_stmt 0 view .LVU305
 1274 0000 0A06     		lsls	r2, r1, #24
 526:Src/usbd_conf.c **** 
 1275              		.loc 1 526 22 view .LVU306
 1276 0002 D0F8C432 		ldr	r3, [r0, #708]
 1277              	.LVL98:
 528:Src/usbd_conf.c ****   {
 1278              		.loc 1 528 3 is_stmt 1 view .LVU307
 528:Src/usbd_conf.c ****   {
 1279              		.loc 1 528 5 is_stmt 0 view .LVU308
 1280 0006 06D4     		bmi	.L102
ARM GAS  /tmp/ccFeeFGq.s 			page 38


 534:Src/usbd_conf.c ****   }
 1281              		.loc 1 534 5 is_stmt 1 view .LVU309
 534:Src/usbd_conf.c ****   }
 1282              		.loc 1 534 40 is_stmt 0 view .LVU310
 1283 0008 C1EBC101 		rsb	r1, r1, r1, lsl #3
 1284              	.LVL99:
 534:Src/usbd_conf.c ****   }
 1285              		.loc 1 534 40 view .LVU311
 1286 000c 03EB8101 		add	r1, r3, r1, lsl #2
 1287 0010 91F8FE01 		ldrb	r0, [r1, #510]	@ zero_extendqisi2
 1288              	.LVL100:
 536:Src/usbd_conf.c **** 
 1289              		.loc 1 536 1 view .LVU312
 1290 0014 7047     		bx	lr
 1291              	.LVL101:
 1292              	.L102:
 530:Src/usbd_conf.c ****   }
 1293              		.loc 1 530 5 is_stmt 1 view .LVU313
 530:Src/usbd_conf.c ****   }
 1294              		.loc 1 530 32 is_stmt 0 view .LVU314
 1295 0016 01F07F01 		and	r1, r1, #127
 1296              	.LVL102:
 530:Src/usbd_conf.c ****   }
 1297              		.loc 1 530 39 view .LVU315
 1298 001a C1EBC101 		rsb	r1, r1, r1, lsl #3
 1299 001e 03EB8101 		add	r1, r3, r1, lsl #2
 1300 0022 91F83E00 		ldrb	r0, [r1, #62]	@ zero_extendqisi2
 1301              	.LVL103:
 530:Src/usbd_conf.c ****   }
 1302              		.loc 1 530 39 view .LVU316
 1303 0026 7047     		bx	lr
 1304              		.cfi_endproc
 1305              	.LFE156:
 1307              		.section	.text.USBD_LL_SetUSBAddress,"ax",%progbits
 1308              		.align	1
 1309              		.p2align 2,,3
 1310              		.global	USBD_LL_SetUSBAddress
 1311              		.syntax unified
 1312              		.thumb
 1313              		.thumb_func
 1314              		.fpu fpv4-sp-d16
 1316              	USBD_LL_SetUSBAddress:
 1317              	.LVL104:
 1318              	.LFB157:
 545:Src/usbd_conf.c ****   HAL_StatusTypeDef hal_status = HAL_OK;
 1319              		.loc 1 545 1 is_stmt 1 view -0
 1320              		.cfi_startproc
 1321              		@ args = 0, pretend = 0, frame = 0
 1322              		@ frame_needed = 0, uses_anonymous_args = 0
 546:Src/usbd_conf.c ****   USBD_StatusTypeDef usb_status = USBD_OK;
 1323              		.loc 1 546 3 view .LVU318
 547:Src/usbd_conf.c **** 
 1324              		.loc 1 547 3 view .LVU319
 549:Src/usbd_conf.c **** 
 1325              		.loc 1 549 3 view .LVU320
 545:Src/usbd_conf.c ****   HAL_StatusTypeDef hal_status = HAL_OK;
 1326              		.loc 1 545 1 is_stmt 0 view .LVU321
ARM GAS  /tmp/ccFeeFGq.s 			page 39


 1327 0000 08B5     		push	{r3, lr}
 1328              	.LCFI20:
 1329              		.cfi_def_cfa_offset 8
 1330              		.cfi_offset 3, -8
 1331              		.cfi_offset 14, -4
 549:Src/usbd_conf.c **** 
 1332              		.loc 1 549 16 view .LVU322
 1333 0002 D0F8C402 		ldr	r0, [r0, #708]
 1334              	.LVL105:
 549:Src/usbd_conf.c **** 
 1335              		.loc 1 549 16 view .LVU323
 1336 0006 FFF7FEFF 		bl	HAL_PCD_SetAddress
 1337              	.LVL106:
 551:Src/usbd_conf.c **** 
 1338              		.loc 1 551 3 is_stmt 1 view .LVU324
 1339              	.LBB63:
 1340              	.LBI63:
 643:Src/usbd_conf.c **** {
 1341              		.loc 1 643 20 view .LVU325
 1342              	.LBB64:
 645:Src/usbd_conf.c **** 
 1343              		.loc 1 645 3 view .LVU326
 647:Src/usbd_conf.c ****   {
 1344              		.loc 1 647 3 view .LVU327
 1345 000a 0328     		cmp	r0, #3
 1346 000c 96BF     		itet	ls
 1347 000e 024B     		ldrls	r3, .L107
 1348              	.LBE64:
 1349              	.LBE63:
 549:Src/usbd_conf.c **** 
 1350              		.loc 1 549 16 is_stmt 0 view .LVU328
 1351 0010 0320     		movhi	r0, #3
 1352              	.LVL107:
 549:Src/usbd_conf.c **** 
 1353              		.loc 1 549 16 view .LVU329
 1354 0012 185C     		ldrbls	r0, [r3, r0]	@ zero_extendqisi2
 1355              	.LVL108:
 1356              	.LBB66:
 1357              	.LBB65:
 1358              		.loc 1 665 3 is_stmt 1 view .LVU330
 1359              		.loc 1 665 3 is_stmt 0 view .LVU331
 1360              	.LBE65:
 1361              	.LBE66:
 553:Src/usbd_conf.c **** }
 1362              		.loc 1 553 3 is_stmt 1 view .LVU332
 554:Src/usbd_conf.c **** 
 1363              		.loc 1 554 1 is_stmt 0 view .LVU333
 1364 0014 08BD     		pop	{r3, pc}
 1365              	.L108:
 1366 0016 00BF     		.align	2
 1367              	.L107:
 1368 0018 00000000 		.word	.LANCHOR0
 1369              		.cfi_endproc
 1370              	.LFE157:
 1372              		.section	.text.USBD_LL_Transmit,"ax",%progbits
 1373              		.align	1
 1374              		.p2align 2,,3
ARM GAS  /tmp/ccFeeFGq.s 			page 40


 1375              		.global	USBD_LL_Transmit
 1376              		.syntax unified
 1377              		.thumb
 1378              		.thumb_func
 1379              		.fpu fpv4-sp-d16
 1381              	USBD_LL_Transmit:
 1382              	.LVL109:
 1383              	.LFB158:
 565:Src/usbd_conf.c ****   HAL_StatusTypeDef hal_status = HAL_OK;
 1384              		.loc 1 565 1 is_stmt 1 view -0
 1385              		.cfi_startproc
 1386              		@ args = 0, pretend = 0, frame = 0
 1387              		@ frame_needed = 0, uses_anonymous_args = 0
 566:Src/usbd_conf.c ****   USBD_StatusTypeDef usb_status = USBD_OK;
 1388              		.loc 1 566 3 view .LVU335
 567:Src/usbd_conf.c **** 
 1389              		.loc 1 567 3 view .LVU336
 569:Src/usbd_conf.c **** 
 1390              		.loc 1 569 3 view .LVU337
 565:Src/usbd_conf.c ****   HAL_StatusTypeDef hal_status = HAL_OK;
 1391              		.loc 1 565 1 is_stmt 0 view .LVU338
 1392 0000 08B5     		push	{r3, lr}
 1393              	.LCFI21:
 1394              		.cfi_def_cfa_offset 8
 1395              		.cfi_offset 3, -8
 1396              		.cfi_offset 14, -4
 569:Src/usbd_conf.c **** 
 1397              		.loc 1 569 16 view .LVU339
 1398 0002 D0F8C402 		ldr	r0, [r0, #708]
 1399              	.LVL110:
 569:Src/usbd_conf.c **** 
 1400              		.loc 1 569 16 view .LVU340
 1401 0006 FFF7FEFF 		bl	HAL_PCD_EP_Transmit
 1402              	.LVL111:
 571:Src/usbd_conf.c **** 
 1403              		.loc 1 571 3 is_stmt 1 view .LVU341
 1404              	.LBB67:
 1405              	.LBI67:
 643:Src/usbd_conf.c **** {
 1406              		.loc 1 643 20 view .LVU342
 1407              	.LBB68:
 645:Src/usbd_conf.c **** 
 1408              		.loc 1 645 3 view .LVU343
 647:Src/usbd_conf.c ****   {
 1409              		.loc 1 647 3 view .LVU344
 1410 000a 0328     		cmp	r0, #3
 1411 000c 96BF     		itet	ls
 1412 000e 024B     		ldrls	r3, .L113
 1413              	.LBE68:
 1414              	.LBE67:
 569:Src/usbd_conf.c **** 
 1415              		.loc 1 569 16 is_stmt 0 view .LVU345
 1416 0010 0320     		movhi	r0, #3
 1417              	.LVL112:
 569:Src/usbd_conf.c **** 
 1418              		.loc 1 569 16 view .LVU346
 1419 0012 185C     		ldrbls	r0, [r3, r0]	@ zero_extendqisi2
ARM GAS  /tmp/ccFeeFGq.s 			page 41


 1420              	.LVL113:
 1421              	.LBB70:
 1422              	.LBB69:
 1423              		.loc 1 665 3 is_stmt 1 view .LVU347
 1424              		.loc 1 665 3 is_stmt 0 view .LVU348
 1425              	.LBE69:
 1426              	.LBE70:
 573:Src/usbd_conf.c **** }
 1427              		.loc 1 573 3 is_stmt 1 view .LVU349
 574:Src/usbd_conf.c **** 
 1428              		.loc 1 574 1 is_stmt 0 view .LVU350
 1429 0014 08BD     		pop	{r3, pc}
 1430              	.L114:
 1431 0016 00BF     		.align	2
 1432              	.L113:
 1433 0018 00000000 		.word	.LANCHOR0
 1434              		.cfi_endproc
 1435              	.LFE158:
 1437              		.section	.text.USBD_LL_PrepareReceive,"ax",%progbits
 1438              		.align	1
 1439              		.p2align 2,,3
 1440              		.global	USBD_LL_PrepareReceive
 1441              		.syntax unified
 1442              		.thumb
 1443              		.thumb_func
 1444              		.fpu fpv4-sp-d16
 1446              	USBD_LL_PrepareReceive:
 1447              	.LVL114:
 1448              	.LFB159:
 585:Src/usbd_conf.c ****   HAL_StatusTypeDef hal_status = HAL_OK;
 1449              		.loc 1 585 1 is_stmt 1 view -0
 1450              		.cfi_startproc
 1451              		@ args = 0, pretend = 0, frame = 0
 1452              		@ frame_needed = 0, uses_anonymous_args = 0
 586:Src/usbd_conf.c ****   USBD_StatusTypeDef usb_status = USBD_OK;
 1453              		.loc 1 586 3 view .LVU352
 587:Src/usbd_conf.c **** 
 1454              		.loc 1 587 3 view .LVU353
 589:Src/usbd_conf.c **** 
 1455              		.loc 1 589 3 view .LVU354
 585:Src/usbd_conf.c ****   HAL_StatusTypeDef hal_status = HAL_OK;
 1456              		.loc 1 585 1 is_stmt 0 view .LVU355
 1457 0000 08B5     		push	{r3, lr}
 1458              	.LCFI22:
 1459              		.cfi_def_cfa_offset 8
 1460              		.cfi_offset 3, -8
 1461              		.cfi_offset 14, -4
 589:Src/usbd_conf.c **** 
 1462              		.loc 1 589 16 view .LVU356
 1463 0002 D0F8C402 		ldr	r0, [r0, #708]
 1464              	.LVL115:
 589:Src/usbd_conf.c **** 
 1465              		.loc 1 589 16 view .LVU357
 1466 0006 FFF7FEFF 		bl	HAL_PCD_EP_Receive
 1467              	.LVL116:
 591:Src/usbd_conf.c **** 
 1468              		.loc 1 591 3 is_stmt 1 view .LVU358
ARM GAS  /tmp/ccFeeFGq.s 			page 42


 1469              	.LBB71:
 1470              	.LBI71:
 643:Src/usbd_conf.c **** {
 1471              		.loc 1 643 20 view .LVU359
 1472              	.LBB72:
 645:Src/usbd_conf.c **** 
 1473              		.loc 1 645 3 view .LVU360
 647:Src/usbd_conf.c ****   {
 1474              		.loc 1 647 3 view .LVU361
 1475 000a 0328     		cmp	r0, #3
 1476 000c 96BF     		itet	ls
 1477 000e 024B     		ldrls	r3, .L119
 1478              	.LBE72:
 1479              	.LBE71:
 589:Src/usbd_conf.c **** 
 1480              		.loc 1 589 16 is_stmt 0 view .LVU362
 1481 0010 0320     		movhi	r0, #3
 1482              	.LVL117:
 589:Src/usbd_conf.c **** 
 1483              		.loc 1 589 16 view .LVU363
 1484 0012 185C     		ldrbls	r0, [r3, r0]	@ zero_extendqisi2
 1485              	.LVL118:
 1486              	.LBB74:
 1487              	.LBB73:
 1488              		.loc 1 665 3 is_stmt 1 view .LVU364
 1489              		.loc 1 665 3 is_stmt 0 view .LVU365
 1490              	.LBE73:
 1491              	.LBE74:
 593:Src/usbd_conf.c **** }
 1492              		.loc 1 593 3 is_stmt 1 view .LVU366
 594:Src/usbd_conf.c **** 
 1493              		.loc 1 594 1 is_stmt 0 view .LVU367
 1494 0014 08BD     		pop	{r3, pc}
 1495              	.L120:
 1496 0016 00BF     		.align	2
 1497              	.L119:
 1498 0018 00000000 		.word	.LANCHOR0
 1499              		.cfi_endproc
 1500              	.LFE159:
 1502              		.section	.text.USBD_LL_GetRxDataSize,"ax",%progbits
 1503              		.align	1
 1504              		.p2align 2,,3
 1505              		.global	USBD_LL_GetRxDataSize
 1506              		.syntax unified
 1507              		.thumb
 1508              		.thumb_func
 1509              		.fpu fpv4-sp-d16
 1511              	USBD_LL_GetRxDataSize:
 1512              	.LVL119:
 1513              	.LFB160:
 603:Src/usbd_conf.c ****   return HAL_PCD_EP_GetRxCount((PCD_HandleTypeDef*) pdev->pData, ep_addr);
 1514              		.loc 1 603 1 is_stmt 1 view -0
 1515              		.cfi_startproc
 1516              		@ args = 0, pretend = 0, frame = 0
 1517              		@ frame_needed = 0, uses_anonymous_args = 0
 1518              		@ link register save eliminated.
 604:Src/usbd_conf.c **** }
ARM GAS  /tmp/ccFeeFGq.s 			page 43


 1519              		.loc 1 604 3 view .LVU369
 604:Src/usbd_conf.c **** }
 1520              		.loc 1 604 10 is_stmt 0 view .LVU370
 1521 0000 D0F8C402 		ldr	r0, [r0, #708]
 1522              	.LVL120:
 604:Src/usbd_conf.c **** }
 1523              		.loc 1 604 10 view .LVU371
 1524 0004 FFF7FEBF 		b	HAL_PCD_EP_GetRxCount
 1525              	.LVL121:
 604:Src/usbd_conf.c **** }
 1526              		.loc 1 604 10 view .LVU372
 1527              		.cfi_endproc
 1528              	.LFE160:
 1530              		.section	.text.USBD_static_malloc,"ax",%progbits
 1531              		.align	1
 1532              		.p2align 2,,3
 1533              		.global	USBD_static_malloc
 1534              		.syntax unified
 1535              		.thumb
 1536              		.thumb_func
 1537              		.fpu fpv4-sp-d16
 1539              	USBD_static_malloc:
 1540              	.LVL122:
 1541              	.LFB161:
 613:Src/usbd_conf.c ****   static uint32_t mem[(sizeof(USBD_CDC_HandleTypeDef)/4)+1];/* On 32-bit boundary */
 1542              		.loc 1 613 1 is_stmt 1 view -0
 1543              		.cfi_startproc
 1544              		@ args = 0, pretend = 0, frame = 0
 1545              		@ frame_needed = 0, uses_anonymous_args = 0
 1546              		@ link register save eliminated.
 614:Src/usbd_conf.c ****   return mem;
 1547              		.loc 1 614 3 view .LVU374
 615:Src/usbd_conf.c **** }
 1548              		.loc 1 615 3 view .LVU375
 616:Src/usbd_conf.c **** 
 1549              		.loc 1 616 1 is_stmt 0 view .LVU376
 1550 0000 0048     		ldr	r0, .L123
 1551              	.LVL123:
 616:Src/usbd_conf.c **** 
 1552              		.loc 1 616 1 view .LVU377
 1553 0002 7047     		bx	lr
 1554              	.L124:
 1555              		.align	2
 1556              	.L123:
 1557 0004 00000000 		.word	.LANCHOR1
 1558              		.cfi_endproc
 1559              	.LFE161:
 1561              		.section	.text.USBD_static_free,"ax",%progbits
 1562              		.align	1
 1563              		.p2align 2,,3
 1564              		.global	USBD_static_free
 1565              		.syntax unified
 1566              		.thumb
 1567              		.thumb_func
 1568              		.fpu fpv4-sp-d16
 1570              	USBD_static_free:
 1571              	.LVL124:
ARM GAS  /tmp/ccFeeFGq.s 			page 44


 1572              	.LFB162:
 624:Src/usbd_conf.c **** 
 1573              		.loc 1 624 1 is_stmt 1 view -0
 1574              		.cfi_startproc
 1575              		@ args = 0, pretend = 0, frame = 0
 1576              		@ frame_needed = 0, uses_anonymous_args = 0
 1577              		@ link register save eliminated.
 626:Src/usbd_conf.c **** 
 1578              		.loc 1 626 1 view .LVU379
 1579 0000 7047     		bx	lr
 1580              		.cfi_endproc
 1581              	.LFE162:
 1583 0002 00BF     		.section	.text.USBD_LL_Delay,"ax",%progbits
 1584              		.align	1
 1585              		.p2align 2,,3
 1586              		.global	USBD_LL_Delay
 1587              		.syntax unified
 1588              		.thumb
 1589              		.thumb_func
 1590              		.fpu fpv4-sp-d16
 1592              	USBD_LL_Delay:
 1593              	.LVL125:
 1594              	.LFB163:
 634:Src/usbd_conf.c ****   HAL_Delay(Delay);
 1595              		.loc 1 634 1 view -0
 1596              		.cfi_startproc
 1597              		@ args = 0, pretend = 0, frame = 0
 1598              		@ frame_needed = 0, uses_anonymous_args = 0
 1599              		@ link register save eliminated.
 635:Src/usbd_conf.c **** }
 1600              		.loc 1 635 3 view .LVU381
 1601 0000 FFF7FEBF 		b	HAL_Delay
 1602              	.LVL126:
 635:Src/usbd_conf.c **** }
 1603              		.loc 1 635 3 is_stmt 0 view .LVU382
 1604              		.cfi_endproc
 1605              	.LFE163:
 1607              		.section	.text.USBD_Get_USB_Status,"ax",%progbits
 1608              		.align	1
 1609              		.p2align 2,,3
 1610              		.global	USBD_Get_USB_Status
 1611              		.syntax unified
 1612              		.thumb
 1613              		.thumb_func
 1614              		.fpu fpv4-sp-d16
 1616              	USBD_Get_USB_Status:
 1617              	.LVL127:
 1618              	.LFB164:
 644:Src/usbd_conf.c ****   USBD_StatusTypeDef usb_status = USBD_OK;
 1619              		.loc 1 644 1 is_stmt 1 view -0
 1620              		.cfi_startproc
 1621              		@ args = 0, pretend = 0, frame = 0
 1622              		@ frame_needed = 0, uses_anonymous_args = 0
 1623              		@ link register save eliminated.
 645:Src/usbd_conf.c **** 
 1624              		.loc 1 645 3 view .LVU384
 647:Src/usbd_conf.c ****   {
ARM GAS  /tmp/ccFeeFGq.s 			page 45


 1625              		.loc 1 647 3 view .LVU385
 1626 0000 0328     		cmp	r0, #3
 1627 0002 9ABF     		itte	ls
 1628 0004 014B     		ldrls	r3, .L130
 1629 0006 185C     		ldrbls	r0, [r3, r0]	@ zero_extendqisi2
 1630              	.LVL128:
 644:Src/usbd_conf.c ****   USBD_StatusTypeDef usb_status = USBD_OK;
 1631              		.loc 1 644 1 is_stmt 0 view .LVU386
 1632 0008 0320     		movhi	r0, #3
 1633              	.LVL129:
 1634              		.loc 1 665 3 is_stmt 1 view .LVU387
 666:Src/usbd_conf.c **** }
 1635              		.loc 1 666 1 is_stmt 0 view .LVU388
 1636 000a 7047     		bx	lr
 1637              	.L131:
 1638              		.align	2
 1639              	.L130:
 1640 000c 00000000 		.word	.LANCHOR0
 1641              		.cfi_endproc
 1642              	.LFE164:
 1644              		.comm	hpcd_USB_OTG_FS,1032,4
 1645              		.section	.bss.mem.10784,"aw",%nobits
 1646              		.align	2
 1647              		.set	.LANCHOR1,. + 0
 1650              	mem.10784:
 1651 0000 00000000 		.space	544
 1651      00000000 
 1651      00000000 
 1651      00000000 
 1651      00000000 
 1652              		.section	.rodata.CSWTCH.23,"a"
 1653              		.align	2
 1654              		.set	.LANCHOR0,. + 0
 1657              	CSWTCH.23:
 1658 0000 00       		.byte	0
 1659 0001 03       		.byte	3
 1660 0002 01       		.byte	1
 1661 0003 03       		.byte	3
 1662              		.text
 1663              	.Letext0:
 1664              		.file 2 "/opt/gcc-arm-none-eabi-9-2020-q2-update/arm-none-eabi/include/machine/_default_types.h"
 1665              		.file 3 "/opt/gcc-arm-none-eabi-9-2020-q2-update/arm-none-eabi/include/sys/_stdint.h"
 1666              		.file 4 "Drivers/CMSIS/Include/core_cm4.h"
 1667              		.file 5 "Drivers/CMSIS/Device/ST/STM32F4xx/Include/system_stm32f4xx.h"
 1668              		.file 6 "Drivers/CMSIS/Device/ST/STM32F4xx/Include/stm32f405xx.h"
 1669              		.file 7 "Drivers/CMSIS/Device/ST/STM32F4xx/Include/stm32f4xx.h"
 1670              		.file 8 "Drivers/STM32F4xx_HAL_Driver/Inc/stm32f4xx_hal_def.h"
 1671              		.file 9 "Drivers/STM32F4xx_HAL_Driver/Inc/stm32f4xx_hal_gpio.h"
 1672              		.file 10 "Drivers/STM32F4xx_HAL_Driver/Inc/stm32f4xx_ll_usb.h"
 1673              		.file 11 "Drivers/STM32F4xx_HAL_Driver/Inc/stm32f4xx_hal_pcd.h"
 1674              		.file 12 "Drivers/STM32F4xx_HAL_Driver/Inc/stm32f4xx_hal.h"
 1675              		.file 13 "/opt/gcc-arm-none-eabi-9-2020-q2-update/lib/gcc/arm-none-eabi/9.3.1/include/stddef.h"
 1676              		.file 14 "/opt/gcc-arm-none-eabi-9-2020-q2-update/arm-none-eabi/include/sys/_types.h"
 1677              		.file 15 "/opt/gcc-arm-none-eabi-9-2020-q2-update/arm-none-eabi/include/sys/reent.h"
 1678              		.file 16 "/opt/gcc-arm-none-eabi-9-2020-q2-update/arm-none-eabi/include/sys/lock.h"
 1679              		.file 17 "/opt/gcc-arm-none-eabi-9-2020-q2-update/arm-none-eabi/include/stdlib.h"
 1680              		.file 18 "Middlewares/ST/STM32_USB_Device_Library/Core/Inc/usbd_def.h"
ARM GAS  /tmp/ccFeeFGq.s 			page 46


 1681              		.file 19 "Middlewares/ST/STM32_USB_Device_Library/Class/CDC/Inc/usbd_cdc.h"
 1682              		.file 20 "Drivers/STM32F4xx_HAL_Driver/Inc/stm32f4xx_hal_pcd_ex.h"
 1683              		.file 21 "Middlewares/ST/STM32_USB_Device_Library/Core/Inc/usbd_core.h"
 1684              		.file 22 "Drivers/STM32F4xx_HAL_Driver/Inc/stm32f4xx_hal_cortex.h"
ARM GAS  /tmp/ccFeeFGq.s 			page 47

